SF:/Users/bene/bitcoin/rust-payjoin/payjoin-cli/src/app/config.rs
FN:260,_RNCNvNtNtCsdNOva7tMRqO_11payjoin_cli3app6config15add_v1_defaults0B7_
FN:296,_RNCNvNtNtCsdNOva7tMRqO_11payjoin_cli3app6config18handle_subcommands0B7_
FN:318,_RNCNvNtNtCsdNOva7tMRqO_11payjoin_cli3app6config18handle_subcommandss0_0B7_
FN:321,_RNCNvNtNtCsdNOva7tMRqO_11payjoin_cli3app6config18handle_subcommandss1_0B7_
FN:300,_RNCNvNtNtCsdNOva7tMRqO_11payjoin_cli3app6config18handle_subcommandss_0B7_
FN:248,_RNCNvNtNtCsdNOva7tMRqO_11payjoin_cli3app6config19add_common_defaults0B7_
FN:235,_RNCNvNtNtCsdNOva7tMRqO_11payjoin_cli3app6config21add_bitcoind_defaults0B7_
FN:236,_RNCNvNtNtCsdNOva7tMRqO_11payjoin_cli3app6config21add_bitcoind_defaultss_0B7_
FN:68,_RNvMNtNtCsdNOva7tMRqO_11payjoin_cli3app6configNtB2_6Config17determine_version
FN:207,_RNvMNtNtCsdNOva7tMRqO_11payjoin_cli3app6configNtB2_6Config2v1
FN:102,_RNvMNtNtCsdNOva7tMRqO_11payjoin_cli3app6configNtB2_6Config3new
FN:253,_RNvNtNtCsdNOva7tMRqO_11payjoin_cli3app6config15add_v1_defaults
FN:290,_RNvNtNtCsdNOva7tMRqO_11payjoin_cli3app6config18handle_subcommands
FN:247,_RNvNtNtCsdNOva7tMRqO_11payjoin_cli3app6config19add_common_defaults
FN:226,_RNvNtNtCsdNOva7tMRqO_11payjoin_cli3app6config21add_bitcoind_defaults
FN:260,_RNCNvNtNtCsgibgrjNWKaG_11payjoin_cli3app6config15add_v1_defaults0B7_
FN:296,_RNCNvNtNtCsgibgrjNWKaG_11payjoin_cli3app6config18handle_subcommands0B7_
FN:318,_RNCNvNtNtCsgibgrjNWKaG_11payjoin_cli3app6config18handle_subcommandss0_0B7_
FN:321,_RNCNvNtNtCsgibgrjNWKaG_11payjoin_cli3app6config18handle_subcommandss1_0B7_
FN:300,_RNCNvNtNtCsgibgrjNWKaG_11payjoin_cli3app6config18handle_subcommandss_0B7_
FN:248,_RNCNvNtNtCsgibgrjNWKaG_11payjoin_cli3app6config19add_common_defaults0B7_
FN:235,_RNCNvNtNtCsgibgrjNWKaG_11payjoin_cli3app6config21add_bitcoind_defaults0B7_
FN:236,_RNCNvNtNtCsgibgrjNWKaG_11payjoin_cli3app6config21add_bitcoind_defaultss_0B7_
FN:68,_RNvMNtNtCsgibgrjNWKaG_11payjoin_cli3app6configNtB2_6Config17determine_version
FN:207,_RNvMNtNtCsgibgrjNWKaG_11payjoin_cli3app6configNtB2_6Config2v1
FN:102,_RNvMNtNtCsgibgrjNWKaG_11payjoin_cli3app6configNtB2_6Config3new
FN:253,_RNvNtNtCsgibgrjNWKaG_11payjoin_cli3app6config15add_v1_defaults
FN:290,_RNvNtNtCsgibgrjNWKaG_11payjoin_cli3app6config18handle_subcommands
FN:247,_RNvNtNtCsgibgrjNWKaG_11payjoin_cli3app6config19add_common_defaults
FN:226,_RNvNtNtCsgibgrjNWKaG_11payjoin_cli3app6config21add_bitcoind_defaults
FN:68,_RNvMNtNtCsb4baREu157E_11payjoin_cli3app6configNtB2_6Config17determine_version
FN:207,_RNvMNtNtCsb4baREu157E_11payjoin_cli3app6configNtB2_6Config2v1
FN:102,_RNvMNtNtCsb4baREu157E_11payjoin_cli3app6configNtB2_6Config3new
FN:253,_RNvNtNtCsb4baREu157E_11payjoin_cli3app6config15add_v1_defaults
FN:290,_RNvNtNtCsb4baREu157E_11payjoin_cli3app6config18handle_subcommands
FN:247,_RNvNtNtCsb4baREu157E_11payjoin_cli3app6config19add_common_defaults
FN:226,_RNvNtNtCsb4baREu157E_11payjoin_cli3app6config21add_bitcoind_defaults
FN:260,_RNCNvNtNtCsb4baREu157E_11payjoin_cli3app6config15add_v1_defaults0B7_
FN:296,_RNCNvNtNtCsb4baREu157E_11payjoin_cli3app6config18handle_subcommands0B7_
FN:318,_RNCNvNtNtCsb4baREu157E_11payjoin_cli3app6config18handle_subcommandss0_0B7_
FN:321,_RNCNvNtNtCsb4baREu157E_11payjoin_cli3app6config18handle_subcommandss1_0B7_
FN:300,_RNCNvNtNtCsb4baREu157E_11payjoin_cli3app6config18handle_subcommandss_0B7_
FN:248,_RNCNvNtNtCsb4baREu157E_11payjoin_cli3app6config19add_common_defaults0B7_
FN:235,_RNCNvNtNtCsb4baREu157E_11payjoin_cli3app6config21add_bitcoind_defaults0B7_
FN:236,_RNCNvNtNtCsb4baREu157E_11payjoin_cli3app6config21add_bitcoind_defaultss_0B7_
FN:343,_RINvNtNtCsdBQVr9DQLnV_11payjoin_cli3app6config32deserialize_ohttp_keys_from_pathpEB6_
FN:354,_RNCINvNtNtCsdBQVr9DQLnV_11payjoin_cli3app6config32deserialize_ohttp_keys_from_pathpE0B8_
FN:355,_RNCINvNtNtCsdBQVr9DQLnV_11payjoin_cli3app6config32deserialize_ohttp_keys_from_pathpEs_0B8_
FN:356,_RNCNCINvNtNtCsdBQVr9DQLnV_11payjoin_cli3app6config32deserialize_ohttp_keys_from_pathpEs_00Ba_
FN:281,_RNCNCNvNtNtCsdBQVr9DQLnV_11payjoin_cli3app6config15add_v2_defaultss0_00B9_
FN:260,_RNCNvNtNtCsdBQVr9DQLnV_11payjoin_cli3app6config15add_v1_defaults0B7_
FN:276,_RNCNvNtNtCsdBQVr9DQLnV_11payjoin_cli3app6config15add_v2_defaults0B7_
FN:281,_RNCNvNtNtCsdBQVr9DQLnV_11payjoin_cli3app6config15add_v2_defaultss0_0B7_
FN:277,_RNCNvNtNtCsdBQVr9DQLnV_11payjoin_cli3app6config15add_v2_defaultss_0B7_
FN:296,_RNCNvNtNtCsdBQVr9DQLnV_11payjoin_cli3app6config18handle_subcommands0B7_
FN:318,_RNCNvNtNtCsdBQVr9DQLnV_11payjoin_cli3app6config18handle_subcommandss0_0B7_
FN:321,_RNCNvNtNtCsdBQVr9DQLnV_11payjoin_cli3app6config18handle_subcommandss1_0B7_
FN:327,_RNCNvNtNtCsdBQVr9DQLnV_11payjoin_cli3app6config18handle_subcommandss2_0B7_
FN:331,_RNCNvNtNtCsdBQVr9DQLnV_11payjoin_cli3app6config18handle_subcommandss3_0B7_
FN:300,_RNCNvNtNtCsdBQVr9DQLnV_11payjoin_cli3app6config18handle_subcommandss_0B7_
FN:248,_RNCNvNtNtCsdBQVr9DQLnV_11payjoin_cli3app6config19add_common_defaults0B7_
FN:235,_RNCNvNtNtCsdBQVr9DQLnV_11payjoin_cli3app6config21add_bitcoind_defaults0B7_
FN:236,_RNCNvNtNtCsdBQVr9DQLnV_11payjoin_cli3app6config21add_bitcoind_defaultss_0B7_
FN:68,_RNvMNtNtCsdBQVr9DQLnV_11payjoin_cli3app6configNtB2_6Config17determine_version
FN:207,_RNvMNtNtCsdBQVr9DQLnV_11payjoin_cli3app6configNtB2_6Config2v1
FN:216,_RNvMNtNtCsdBQVr9DQLnV_11payjoin_cli3app6configNtB2_6Config2v2
FN:102,_RNvMNtNtCsdBQVr9DQLnV_11payjoin_cli3app6configNtB2_6Config3new
FN:253,_RNvNtNtCsdBQVr9DQLnV_11payjoin_cli3app6config15add_v1_defaults
FN:269,_RNvNtNtCsdBQVr9DQLnV_11payjoin_cli3app6config15add_v2_defaults
FN:290,_RNvNtNtCsdBQVr9DQLnV_11payjoin_cli3app6config18handle_subcommands
FN:247,_RNvNtNtCsdBQVr9DQLnV_11payjoin_cli3app6config19add_common_defaults
FN:226,_RNvNtNtCsdBQVr9DQLnV_11payjoin_cli3app6config21add_bitcoind_defaults
FN:260,_RNCNvNtNtCscUu8AqYtVTR_11payjoin_cli3app6config15add_v1_defaults0B7_
FN:296,_RNCNvNtNtCscUu8AqYtVTR_11payjoin_cli3app6config18handle_subcommands0B7_
FN:318,_RNCNvNtNtCscUu8AqYtVTR_11payjoin_cli3app6config18handle_subcommandss0_0B7_
FN:321,_RNCNvNtNtCscUu8AqYtVTR_11payjoin_cli3app6config18handle_subcommandss1_0B7_
FN:300,_RNCNvNtNtCscUu8AqYtVTR_11payjoin_cli3app6config18handle_subcommandss_0B7_
FN:248,_RNCNvNtNtCscUu8AqYtVTR_11payjoin_cli3app6config19add_common_defaults0B7_
FN:235,_RNCNvNtNtCscUu8AqYtVTR_11payjoin_cli3app6config21add_bitcoind_defaults0B7_
FN:236,_RNCNvNtNtCscUu8AqYtVTR_11payjoin_cli3app6config21add_bitcoind_defaultss_0B7_
FN:68,_RNvMNtNtCscUu8AqYtVTR_11payjoin_cli3app6configNtB2_6Config17determine_version
FN:207,_RNvMNtNtCscUu8AqYtVTR_11payjoin_cli3app6configNtB2_6Config2v1
FN:102,_RNvMNtNtCscUu8AqYtVTR_11payjoin_cli3app6configNtB2_6Config3new
FN:253,_RNvNtNtCscUu8AqYtVTR_11payjoin_cli3app6config15add_v1_defaults
FN:290,_RNvNtNtCscUu8AqYtVTR_11payjoin_cli3app6config18handle_subcommands
FN:247,_RNvNtNtCscUu8AqYtVTR_11payjoin_cli3app6config19add_common_defaults
FN:226,_RNvNtNtCscUu8AqYtVTR_11payjoin_cli3app6config21add_bitcoind_defaults
FN:343,_RINvNtNtCs6sB0kYsNxnG_11payjoin_cli3app6config32deserialize_ohttp_keys_from_pathNtNtCsbzXrLe7kxwF_6config5value5ValueEB6_
FN:354,_RNCINvNtNtCs6sB0kYsNxnG_11payjoin_cli3app6config32deserialize_ohttp_keys_from_pathNtNtCsbzXrLe7kxwF_6config5value5ValueE0B8_
FN:355,_RNCINvNtNtCs6sB0kYsNxnG_11payjoin_cli3app6config32deserialize_ohttp_keys_from_pathNtNtCsbzXrLe7kxwF_6config5value5ValueEs_0B8_
FN:356,_RNCNCINvNtNtCs6sB0kYsNxnG_11payjoin_cli3app6config32deserialize_ohttp_keys_from_pathNtNtCsbzXrLe7kxwF_6config5value5ValueEs_00Ba_
FN:281,_RNCNCNvNtNtCs6sB0kYsNxnG_11payjoin_cli3app6config15add_v2_defaultss0_00B9_
FN:260,_RNCNvNtNtCs6sB0kYsNxnG_11payjoin_cli3app6config15add_v1_defaults0B7_
FN:276,_RNCNvNtNtCs6sB0kYsNxnG_11payjoin_cli3app6config15add_v2_defaults0B7_
FN:281,_RNCNvNtNtCs6sB0kYsNxnG_11payjoin_cli3app6config15add_v2_defaultss0_0B7_
FN:277,_RNCNvNtNtCs6sB0kYsNxnG_11payjoin_cli3app6config15add_v2_defaultss_0B7_
FN:296,_RNCNvNtNtCs6sB0kYsNxnG_11payjoin_cli3app6config18handle_subcommands0B7_
FN:318,_RNCNvNtNtCs6sB0kYsNxnG_11payjoin_cli3app6config18handle_subcommandss0_0B7_
FN:321,_RNCNvNtNtCs6sB0kYsNxnG_11payjoin_cli3app6config18handle_subcommandss1_0B7_
FN:327,_RNCNvNtNtCs6sB0kYsNxnG_11payjoin_cli3app6config18handle_subcommandss2_0B7_
FN:331,_RNCNvNtNtCs6sB0kYsNxnG_11payjoin_cli3app6config18handle_subcommandss3_0B7_
FN:300,_RNCNvNtNtCs6sB0kYsNxnG_11payjoin_cli3app6config18handle_subcommandss_0B7_
FN:248,_RNCNvNtNtCs6sB0kYsNxnG_11payjoin_cli3app6config19add_common_defaults0B7_
FN:235,_RNCNvNtNtCs6sB0kYsNxnG_11payjoin_cli3app6config21add_bitcoind_defaults0B7_
FN:236,_RNCNvNtNtCs6sB0kYsNxnG_11payjoin_cli3app6config21add_bitcoind_defaultss_0B7_
FN:68,_RNvMNtNtCs6sB0kYsNxnG_11payjoin_cli3app6configNtB2_6Config17determine_version
FN:207,_RNvMNtNtCs6sB0kYsNxnG_11payjoin_cli3app6configNtB2_6Config2v1
FN:216,_RNvMNtNtCs6sB0kYsNxnG_11payjoin_cli3app6configNtB2_6Config2v2
FN:102,_RNvMNtNtCs6sB0kYsNxnG_11payjoin_cli3app6configNtB2_6Config3new
FN:253,_RNvNtNtCs6sB0kYsNxnG_11payjoin_cli3app6config15add_v1_defaults
FN:269,_RNvNtNtCs6sB0kYsNxnG_11payjoin_cli3app6config15add_v2_defaults
FN:290,_RNvNtNtCs6sB0kYsNxnG_11payjoin_cli3app6config18handle_subcommands
FN:247,_RNvNtNtCs6sB0kYsNxnG_11payjoin_cli3app6config19add_common_defaults
FN:226,_RNvNtNtCs6sB0kYsNxnG_11payjoin_cli3app6config21add_bitcoind_defaults
FNDA:0,_RNCNvNtNtCsdNOva7tMRqO_11payjoin_cli3app6config15add_v1_defaults0B7_
FNDA:0,_RNCNvNtNtCsdNOva7tMRqO_11payjoin_cli3app6config18handle_subcommands0B7_
FNDA:0,_RNCNvNtNtCsdNOva7tMRqO_11payjoin_cli3app6config18handle_subcommandss0_0B7_
FNDA:0,_RNCNvNtNtCsdNOva7tMRqO_11payjoin_cli3app6config18handle_subcommandss1_0B7_
FNDA:0,_RNCNvNtNtCsdNOva7tMRqO_11payjoin_cli3app6config18handle_subcommandss_0B7_
FNDA:0,_RNCNvNtNtCsdNOva7tMRqO_11payjoin_cli3app6config19add_common_defaults0B7_
FNDA:0,_RNCNvNtNtCsdNOva7tMRqO_11payjoin_cli3app6config21add_bitcoind_defaults0B7_
FNDA:0,_RNCNvNtNtCsdNOva7tMRqO_11payjoin_cli3app6config21add_bitcoind_defaultss_0B7_
FNDA:0,_RNvMNtNtCsdNOva7tMRqO_11payjoin_cli3app6configNtB2_6Config17determine_version
FNDA:0,_RNvMNtNtCsdNOva7tMRqO_11payjoin_cli3app6configNtB2_6Config2v1
FNDA:0,_RNvMNtNtCsdNOva7tMRqO_11payjoin_cli3app6configNtB2_6Config3new
FNDA:0,_RNvNtNtCsdNOva7tMRqO_11payjoin_cli3app6config15add_v1_defaults
FNDA:0,_RNvNtNtCsdNOva7tMRqO_11payjoin_cli3app6config18handle_subcommands
FNDA:0,_RNvNtNtCsdNOva7tMRqO_11payjoin_cli3app6config19add_common_defaults
FNDA:0,_RNvNtNtCsdNOva7tMRqO_11payjoin_cli3app6config21add_bitcoind_defaults
FNDA:0,_RNCNvNtNtCsgibgrjNWKaG_11payjoin_cli3app6config15add_v1_defaults0B7_
FNDA:0,_RNCNvNtNtCsgibgrjNWKaG_11payjoin_cli3app6config18handle_subcommands0B7_
FNDA:0,_RNCNvNtNtCsgibgrjNWKaG_11payjoin_cli3app6config18handle_subcommandss0_0B7_
FNDA:0,_RNCNvNtNtCsgibgrjNWKaG_11payjoin_cli3app6config18handle_subcommandss1_0B7_
FNDA:0,_RNCNvNtNtCsgibgrjNWKaG_11payjoin_cli3app6config18handle_subcommandss_0B7_
FNDA:0,_RNCNvNtNtCsgibgrjNWKaG_11payjoin_cli3app6config19add_common_defaults0B7_
FNDA:0,_RNCNvNtNtCsgibgrjNWKaG_11payjoin_cli3app6config21add_bitcoind_defaults0B7_
FNDA:0,_RNCNvNtNtCsgibgrjNWKaG_11payjoin_cli3app6config21add_bitcoind_defaultss_0B7_
FNDA:0,_RNvMNtNtCsgibgrjNWKaG_11payjoin_cli3app6configNtB2_6Config17determine_version
FNDA:0,_RNvMNtNtCsgibgrjNWKaG_11payjoin_cli3app6configNtB2_6Config2v1
FNDA:0,_RNvMNtNtCsgibgrjNWKaG_11payjoin_cli3app6configNtB2_6Config3new
FNDA:0,_RNvNtNtCsgibgrjNWKaG_11payjoin_cli3app6config15add_v1_defaults
FNDA:0,_RNvNtNtCsgibgrjNWKaG_11payjoin_cli3app6config18handle_subcommands
FNDA:0,_RNvNtNtCsgibgrjNWKaG_11payjoin_cli3app6config19add_common_defaults
FNDA:0,_RNvNtNtCsgibgrjNWKaG_11payjoin_cli3app6config21add_bitcoind_defaults
FNDA:0,_RNvMNtNtCsb4baREu157E_11payjoin_cli3app6configNtB2_6Config17determine_version
FNDA:0,_RNvMNtNtCsb4baREu157E_11payjoin_cli3app6configNtB2_6Config2v1
FNDA:0,_RNvMNtNtCsb4baREu157E_11payjoin_cli3app6configNtB2_6Config3new
FNDA:0,_RNvNtNtCsb4baREu157E_11payjoin_cli3app6config15add_v1_defaults
FNDA:0,_RNvNtNtCsb4baREu157E_11payjoin_cli3app6config18handle_subcommands
FNDA:0,_RNvNtNtCsb4baREu157E_11payjoin_cli3app6config19add_common_defaults
FNDA:0,_RNvNtNtCsb4baREu157E_11payjoin_cli3app6config21add_bitcoind_defaults
FNDA:0,_RNCNvNtNtCsb4baREu157E_11payjoin_cli3app6config15add_v1_defaults0B7_
FNDA:0,_RNCNvNtNtCsb4baREu157E_11payjoin_cli3app6config18handle_subcommands0B7_
FNDA:0,_RNCNvNtNtCsb4baREu157E_11payjoin_cli3app6config18handle_subcommandss0_0B7_
FNDA:0,_RNCNvNtNtCsb4baREu157E_11payjoin_cli3app6config18handle_subcommandss1_0B7_
FNDA:0,_RNCNvNtNtCsb4baREu157E_11payjoin_cli3app6config18handle_subcommandss_0B7_
FNDA:0,_RNCNvNtNtCsb4baREu157E_11payjoin_cli3app6config19add_common_defaults0B7_
FNDA:0,_RNCNvNtNtCsb4baREu157E_11payjoin_cli3app6config21add_bitcoind_defaults0B7_
FNDA:0,_RNCNvNtNtCsb4baREu157E_11payjoin_cli3app6config21add_bitcoind_defaultss_0B7_
FNDA:0,_RINvNtNtCsdBQVr9DQLnV_11payjoin_cli3app6config32deserialize_ohttp_keys_from_pathpEB6_
FNDA:0,_RNCINvNtNtCsdBQVr9DQLnV_11payjoin_cli3app6config32deserialize_ohttp_keys_from_pathpE0B8_
FNDA:0,_RNCINvNtNtCsdBQVr9DQLnV_11payjoin_cli3app6config32deserialize_ohttp_keys_from_pathpEs_0B8_
FNDA:0,_RNCNCINvNtNtCsdBQVr9DQLnV_11payjoin_cli3app6config32deserialize_ohttp_keys_from_pathpEs_00Ba_
FNDA:0,_RNCNCNvNtNtCsdBQVr9DQLnV_11payjoin_cli3app6config15add_v2_defaultss0_00B9_
FNDA:0,_RNCNvNtNtCsdBQVr9DQLnV_11payjoin_cli3app6config15add_v1_defaults0B7_
FNDA:0,_RNCNvNtNtCsdBQVr9DQLnV_11payjoin_cli3app6config15add_v2_defaults0B7_
FNDA:0,_RNCNvNtNtCsdBQVr9DQLnV_11payjoin_cli3app6config15add_v2_defaultss0_0B7_
FNDA:0,_RNCNvNtNtCsdBQVr9DQLnV_11payjoin_cli3app6config15add_v2_defaultss_0B7_
FNDA:0,_RNCNvNtNtCsdBQVr9DQLnV_11payjoin_cli3app6config18handle_subcommands0B7_
FNDA:0,_RNCNvNtNtCsdBQVr9DQLnV_11payjoin_cli3app6config18handle_subcommandss0_0B7_
FNDA:0,_RNCNvNtNtCsdBQVr9DQLnV_11payjoin_cli3app6config18handle_subcommandss1_0B7_
FNDA:0,_RNCNvNtNtCsdBQVr9DQLnV_11payjoin_cli3app6config18handle_subcommandss2_0B7_
FNDA:0,_RNCNvNtNtCsdBQVr9DQLnV_11payjoin_cli3app6config18handle_subcommandss3_0B7_
FNDA:0,_RNCNvNtNtCsdBQVr9DQLnV_11payjoin_cli3app6config18handle_subcommandss_0B7_
FNDA:0,_RNCNvNtNtCsdBQVr9DQLnV_11payjoin_cli3app6config19add_common_defaults0B7_
FNDA:0,_RNCNvNtNtCsdBQVr9DQLnV_11payjoin_cli3app6config21add_bitcoind_defaults0B7_
FNDA:0,_RNCNvNtNtCsdBQVr9DQLnV_11payjoin_cli3app6config21add_bitcoind_defaultss_0B7_
FNDA:0,_RNvMNtNtCsdBQVr9DQLnV_11payjoin_cli3app6configNtB2_6Config17determine_version
FNDA:0,_RNvMNtNtCsdBQVr9DQLnV_11payjoin_cli3app6configNtB2_6Config2v1
FNDA:0,_RNvMNtNtCsdBQVr9DQLnV_11payjoin_cli3app6configNtB2_6Config2v2
FNDA:0,_RNvMNtNtCsdBQVr9DQLnV_11payjoin_cli3app6configNtB2_6Config3new
FNDA:0,_RNvNtNtCsdBQVr9DQLnV_11payjoin_cli3app6config15add_v1_defaults
FNDA:0,_RNvNtNtCsdBQVr9DQLnV_11payjoin_cli3app6config15add_v2_defaults
FNDA:0,_RNvNtNtCsdBQVr9DQLnV_11payjoin_cli3app6config18handle_subcommands
FNDA:0,_RNvNtNtCsdBQVr9DQLnV_11payjoin_cli3app6config19add_common_defaults
FNDA:0,_RNvNtNtCsdBQVr9DQLnV_11payjoin_cli3app6config21add_bitcoind_defaults
FNDA:0,_RNCNvNtNtCscUu8AqYtVTR_11payjoin_cli3app6config15add_v1_defaults0B7_
FNDA:2,_RNCNvNtNtCscUu8AqYtVTR_11payjoin_cli3app6config18handle_subcommands0B7_
FNDA:1,_RNCNvNtNtCscUu8AqYtVTR_11payjoin_cli3app6config18handle_subcommandss0_0B7_
FNDA:1,_RNCNvNtNtCscUu8AqYtVTR_11payjoin_cli3app6config18handle_subcommandss1_0B7_
FNDA:1,_RNCNvNtNtCscUu8AqYtVTR_11payjoin_cli3app6config18handle_subcommandss_0B7_
FNDA:2,_RNCNvNtNtCscUu8AqYtVTR_11payjoin_cli3app6config19add_common_defaults0B7_
FNDA:2,_RNCNvNtNtCscUu8AqYtVTR_11payjoin_cli3app6config21add_bitcoind_defaults0B7_
FNDA:2,_RNCNvNtNtCscUu8AqYtVTR_11payjoin_cli3app6config21add_bitcoind_defaultss_0B7_
FNDA:2,_RNvMNtNtCscUu8AqYtVTR_11payjoin_cli3app6configNtB2_6Config17determine_version
FNDA:2,_RNvMNtNtCscUu8AqYtVTR_11payjoin_cli3app6configNtB2_6Config2v1
FNDA:2,_RNvMNtNtCscUu8AqYtVTR_11payjoin_cli3app6configNtB2_6Config3new
FNDA:2,_RNvNtNtCscUu8AqYtVTR_11payjoin_cli3app6config15add_v1_defaults
FNDA:2,_RNvNtNtCscUu8AqYtVTR_11payjoin_cli3app6config18handle_subcommands
FNDA:2,_RNvNtNtCscUu8AqYtVTR_11payjoin_cli3app6config19add_common_defaults
FNDA:2,_RNvNtNtCscUu8AqYtVTR_11payjoin_cli3app6config21add_bitcoind_defaults
FNDA:8,_RINvNtNtCs6sB0kYsNxnG_11payjoin_cli3app6config32deserialize_ohttp_keys_from_pathNtNtCsbzXrLe7kxwF_6config5value5ValueEB6_
FNDA:0,_RNCINvNtNtCs6sB0kYsNxnG_11payjoin_cli3app6config32deserialize_ohttp_keys_from_pathNtNtCsbzXrLe7kxwF_6config5value5ValueE0B8_
FNDA:1,_RNCINvNtNtCs6sB0kYsNxnG_11payjoin_cli3app6config32deserialize_ohttp_keys_from_pathNtNtCsbzXrLe7kxwF_6config5value5ValueEs_0B8_
FNDA:0,_RNCNCINvNtNtCs6sB0kYsNxnG_11payjoin_cli3app6config32deserialize_ohttp_keys_from_pathNtNtCsbzXrLe7kxwF_6config5value5ValueEs_00Ba_
FNDA:8,_RNCNCNvNtNtCs6sB0kYsNxnG_11payjoin_cli3app6config15add_v2_defaultss0_00B9_
FNDA:0,_RNCNvNtNtCs6sB0kYsNxnG_11payjoin_cli3app6config15add_v1_defaults0B7_
FNDA:0,_RNCNvNtNtCs6sB0kYsNxnG_11payjoin_cli3app6config15add_v2_defaults0B7_
FNDA:8,_RNCNvNtNtCs6sB0kYsNxnG_11payjoin_cli3app6config15add_v2_defaultss0_0B7_
FNDA:0,_RNCNvNtNtCs6sB0kYsNxnG_11payjoin_cli3app6config15add_v2_defaultss_0B7_
FNDA:11,_RNCNvNtNtCs6sB0kYsNxnG_11payjoin_cli3app6config18handle_subcommands0B7_
FNDA:2,_RNCNvNtNtCs6sB0kYsNxnG_11payjoin_cli3app6config18handle_subcommandss0_0B7_
FNDA:2,_RNCNvNtNtCs6sB0kYsNxnG_11payjoin_cli3app6config18handle_subcommandss1_0B7_
FNDA:1,_RNCNvNtNtCs6sB0kYsNxnG_11payjoin_cli3app6config18handle_subcommandss2_0B7_
FNDA:1,_RNCNvNtNtCs6sB0kYsNxnG_11payjoin_cli3app6config18handle_subcommandss3_0B7_
FNDA:2,_RNCNvNtNtCs6sB0kYsNxnG_11payjoin_cli3app6config18handle_subcommandss_0B7_
FNDA:11,_RNCNvNtNtCs6sB0kYsNxnG_11payjoin_cli3app6config19add_common_defaults0B7_
FNDA:11,_RNCNvNtNtCs6sB0kYsNxnG_11payjoin_cli3app6config21add_bitcoind_defaults0B7_
FNDA:11,_RNCNvNtNtCs6sB0kYsNxnG_11payjoin_cli3app6config21add_bitcoind_defaultss_0B7_
FNDA:11,_RNvMNtNtCs6sB0kYsNxnG_11payjoin_cli3app6configNtB2_6Config17determine_version
FNDA:4,_RNvMNtNtCs6sB0kYsNxnG_11payjoin_cli3app6configNtB2_6Config2v1
FNDA:13,_RNvMNtNtCs6sB0kYsNxnG_11payjoin_cli3app6configNtB2_6Config2v2
FNDA:11,_RNvMNtNtCs6sB0kYsNxnG_11payjoin_cli3app6configNtB2_6Config3new
FNDA:3,_RNvNtNtCs6sB0kYsNxnG_11payjoin_cli3app6config15add_v1_defaults
FNDA:8,_RNvNtNtCs6sB0kYsNxnG_11payjoin_cli3app6config15add_v2_defaults
FNDA:11,_RNvNtNtCs6sB0kYsNxnG_11payjoin_cli3app6config18handle_subcommands
FNDA:11,_RNvNtNtCs6sB0kYsNxnG_11payjoin_cli3app6config19add_common_defaults
FNDA:11,_RNvNtNtCs6sB0kYsNxnG_11payjoin_cli3app6config21add_bitcoind_defaults
FNF:27
FNH:22
DA:68,13
DA:69,13
DA:72,13
DA:73,0
DA:74,13
DA:77,13
DA:78,5
DA:79,0
DA:80,0
DA:81,0
DA:82,0
DA:83,5
DA:84,5
DA:85,8
DA:87,13
DA:88,5
DA:89,8
DA:93,8
DA:95,0
DA:100,13
DA:102,13
DA:103,13
DA:104,13
DA:105,13
DA:107,13
DA:109,13
DA:113,5
DA:123,8
DA:126,0
DA:127,0
DA:128,0
DA:132,13
DA:134,13
DA:135,13
DA:136,13
DA:137,13
DA:139,13
DA:140,13
DA:142,13
DA:143,13
DA:144,13
DA:145,13
DA:146,13
DA:148,13
DA:150,13
DA:153,13
DA:157,5
DA:158,5
DA:159,5
DA:160,0
DA:161,0
DA:162,0
DA:163,5
DA:165,5
DA:167,0
DA:168,0
DA:169,0
DA:170,0
DA:181,8
DA:182,8
DA:183,0
DA:184,0
DA:185,0
DA:186,0
DA:190,0
DA:191,0
DA:192,0
DA:196,13
DA:197,0
DA:198,0
DA:199,0
DA:200,13
DA:202,13
DA:203,13
DA:204,13
DA:207,6
DA:208,6
DA:209,6
DA:211,0
DA:213,6
DA:216,13
DA:217,13
DA:218,13
DA:220,0
DA:222,13
DA:226,13
DA:228,13
DA:229,13
DA:230,13
DA:231,13
DA:232,13
DA:235,13
DA:236,13
DA:237,13
DA:238,13
DA:240,13
DA:241,13
DA:242,13
DA:243,13
DA:244,13
DA:245,13
DA:247,13
DA:248,13
DA:249,13
DA:250,13
DA:253,5
DA:255,5
DA:256,5
DA:257,5
DA:260,5
DA:262,5
DA:263,5
DA:264,5
DA:265,5
DA:269,8
DA:271,8
DA:272,8
DA:273,8
DA:276,8
DA:277,8
DA:278,8
DA:279,8
DA:280,8
DA:281,8
DA:283,8
DA:284,8
DA:285,8
DA:286,8
DA:287,8
DA:290,13
DA:292,13
DA:293,13
DA:294,13
DA:296,13
DA:297,0
DA:298,13
DA:300,13
DA:301,0
DA:303,13
DA:304,5
DA:307,4
DA:309,4
DA:311,3
DA:313,3
DA:317,4
DA:318,4
DA:319,4
DA:321,4
DA:322,0
DA:324,3
DA:325,3
DA:327,3
DA:328,0
DA:329,3
DA:331,3
DA:332,0
DA:333,4
DA:336,4
DA:338,0
DA:340,13
DA:343,8
DA:344,8
DA:345,8
DA:346,8
DA:347,8
DA:349,8
DA:351,8
DA:352,7
DA:353,1
DA:354,1
DA:355,1
DA:356,1
DA:357,0
DA:358,0
DA:359,1
DA:360,1
DA:362,8
BRF:0
BRH:0
LF:187
LH:153
end_of_record
SF:/Users/bene/bitcoin/rust-payjoin/payjoin-cli/src/app/mod.rs
FN:103,_RINvNtCsdNOva7tMRqO_11payjoin_cli3app17read_limited_bodyppEB4_
FN:107,_RNCINvNtCsdNOva7tMRqO_11payjoin_cli3app17read_limited_bodyppE0B6_
FN:111,_RNCNCINvNtCsdNOva7tMRqO_11payjoin_cli3app17read_limited_bodyppE00B8_
FN:95,_RNCNvNtCsdNOva7tMRqO_11payjoin_cli3app16handle_interrupt0B5_
FN:72,_RNvNtCsdNOva7tMRqO_11payjoin_cli3app10http_agent
FN:95,_RNvNtCsdNOva7tMRqO_11payjoin_cli3app16handle_interrupt
FN:82,_RNvNtCsdNOva7tMRqO_11payjoin_cli3app18http_agent_builder
FN:58,_RNvYpNtNtCsdNOva7tMRqO_11payjoin_cli3app3App19process_pj_responseB7_
FN:38,_RNvYpNtNtCsdNOva7tMRqO_11payjoin_cli3app3App20create_original_psbtB7_
FN:103,_RINvNtCsgibgrjNWKaG_11payjoin_cli3app17read_limited_bodyppEB4_
FN:107,_RNCINvNtCsgibgrjNWKaG_11payjoin_cli3app17read_limited_bodyppE0B6_
FN:111,_RNCNCINvNtCsgibgrjNWKaG_11payjoin_cli3app17read_limited_bodyppE00B8_
FN:95,_RNCNvNtCsgibgrjNWKaG_11payjoin_cli3app16handle_interrupt0B5_
FN:72,_RNvNtCsgibgrjNWKaG_11payjoin_cli3app10http_agent
FN:95,_RNvNtCsgibgrjNWKaG_11payjoin_cli3app16handle_interrupt
FN:82,_RNvNtCsgibgrjNWKaG_11payjoin_cli3app18http_agent_builder
FN:58,_RNvYpNtNtCsgibgrjNWKaG_11payjoin_cli3app3App19process_pj_responseB7_
FN:38,_RNvYpNtNtCsgibgrjNWKaG_11payjoin_cli3app3App20create_original_psbtB7_
FN:58,_RNvYNtNtNtCsb4baREu157E_11payjoin_cli3app2v13AppNtB6_3App19process_pj_responseB8_
FN:38,_RNvYNtNtNtCsb4baREu157E_11payjoin_cli3app2v13AppNtB6_3App20create_original_psbtB8_
FN:103,_RINvNtCsb4baREu157E_11payjoin_cli3app17read_limited_bodyINtNtCs9uzqRJ3jro6_14http_body_util6stream14BodyDataStreamINtNtNtBX_11combinators7map_err6MapErrINtNtB1T_8box_body7BoxBodyNtNtCsaaYEsrDHBtF_5bytes5bytes5BytesINtNtCs3JibHiv1CSv_5alloc5boxed3BoxDNtNtCs2hl1TO11rA7_4core5error5ErrorNtNtB44_6marker4SendNtB4B_4SyncEL_EEINvNtCs8sTBixt68zY_7reqwest5error6decodeB3q_EEENtB5c_5ErrorEB4_
FN:103,_RINvNtCsb4baREu157E_11payjoin_cli3app17read_limited_bodyINtNtCs9uzqRJ3jro6_14http_body_util6stream14BodyDataStreamNtNtNtCs9cxRumJ6vay_5hyper4body8incoming8IncomingENtNtB1U_5error5ErrorEB4_
FN:107,_RNCINvNtCsb4baREu157E_11payjoin_cli3app17read_limited_bodyINtNtCs9uzqRJ3jro6_14http_body_util6stream14BodyDataStreamINtNtNtBZ_11combinators7map_err6MapErrINtNtB1V_8box_body7BoxBodyNtNtCsaaYEsrDHBtF_5bytes5bytes5BytesINtNtCs3JibHiv1CSv_5alloc5boxed3BoxDNtNtCs2hl1TO11rA7_4core5error5ErrorNtNtB46_6marker4SendNtB4D_4SyncEL_EEINvNtCs8sTBixt68zY_7reqwest5error6decodeB3s_EEENtB5e_5ErrorE0B6_
FN:107,_RNCINvNtCsb4baREu157E_11payjoin_cli3app17read_limited_bodyINtNtCs9uzqRJ3jro6_14http_body_util6stream14BodyDataStreamNtNtNtCs9cxRumJ6vay_5hyper4body8incoming8IncomingENtNtB1W_5error5ErrorE0B6_
FN:111,_RNCNCINvNtCsb4baREu157E_11payjoin_cli3app17read_limited_bodyINtNtCs9uzqRJ3jro6_14http_body_util6stream14BodyDataStreamINtNtNtB11_11combinators7map_err6MapErrINtNtB1X_8box_body7BoxBodyNtNtCsaaYEsrDHBtF_5bytes5bytes5BytesINtNtCs3JibHiv1CSv_5alloc5boxed3BoxDNtNtCs2hl1TO11rA7_4core5error5ErrorNtNtB49_6marker4SendNtB4G_4SyncEL_EEINvNtCs8sTBixt68zY_7reqwest5error6decodeB3v_EEENtB5h_5ErrorE00B8_
FN:111,_RNCNCINvNtCsb4baREu157E_11payjoin_cli3app17read_limited_bodyINtNtCs9uzqRJ3jro6_14http_body_util6stream14BodyDataStreamNtNtNtCs9cxRumJ6vay_5hyper4body8incoming8IncomingENtNtB1Y_5error5ErrorE00B8_
FN:95,_RNCNvNtCsb4baREu157E_11payjoin_cli3app16handle_interrupt0B5_
FN:72,_RNvNtCsb4baREu157E_11payjoin_cli3app10http_agent
FN:95,_RNvNtCsb4baREu157E_11payjoin_cli3app16handle_interrupt
FN:82,_RNvNtCsb4baREu157E_11payjoin_cli3app18http_agent_builder
FN:103,_RINvNtCsdBQVr9DQLnV_11payjoin_cli3app17read_limited_bodyppEB4_
FN:107,_RNCINvNtCsdBQVr9DQLnV_11payjoin_cli3app17read_limited_bodyppE0B6_
FN:111,_RNCNCINvNtCsdBQVr9DQLnV_11payjoin_cli3app17read_limited_bodyppE00B8_
FN:95,_RNCNvNtCsdBQVr9DQLnV_11payjoin_cli3app16handle_interrupt0B5_
FN:72,_RNvNtCsdBQVr9DQLnV_11payjoin_cli3app10http_agent
FN:95,_RNvNtCsdBQVr9DQLnV_11payjoin_cli3app16handle_interrupt
FN:82,_RNvNtCsdBQVr9DQLnV_11payjoin_cli3app18http_agent_builder
FN:58,_RNvYpNtNtCsdBQVr9DQLnV_11payjoin_cli3app3App19process_pj_responseB7_
FN:38,_RNvYpNtNtCsdBQVr9DQLnV_11payjoin_cli3app3App20create_original_psbtB7_
FN:58,_RNvYNtNtNtCscUu8AqYtVTR_11payjoin_cli3app2v13AppNtB6_3App19process_pj_responseB8_
FN:38,_RNvYNtNtNtCscUu8AqYtVTR_11payjoin_cli3app2v13AppNtB6_3App20create_original_psbtB8_
FN:72,_RNvNtCscUu8AqYtVTR_11payjoin_cli3app10http_agent
FN:95,_RNvNtCscUu8AqYtVTR_11payjoin_cli3app16handle_interrupt
FN:82,_RNvNtCscUu8AqYtVTR_11payjoin_cli3app18http_agent_builder
FN:103,_RINvNtCscUu8AqYtVTR_11payjoin_cli3app17read_limited_bodyINtNtCs9uzqRJ3jro6_14http_body_util6stream14BodyDataStreamINtNtNtBX_11combinators7map_err6MapErrINtNtB1T_8box_body7BoxBodyNtNtCsaaYEsrDHBtF_5bytes5bytes5BytesINtNtCs3JibHiv1CSv_5alloc5boxed3BoxDNtNtCs2hl1TO11rA7_4core5error5ErrorNtNtB44_6marker4SendNtB4B_4SyncEL_EEINvNtCs8sTBixt68zY_7reqwest5error6decodeB3q_EEENtB5c_5ErrorEB4_
FN:103,_RINvNtCscUu8AqYtVTR_11payjoin_cli3app17read_limited_bodyINtNtCs9uzqRJ3jro6_14http_body_util6stream14BodyDataStreamNtNtNtCs9cxRumJ6vay_5hyper4body8incoming8IncomingENtNtB1U_5error5ErrorEB4_
FN:107,_RNCINvNtCscUu8AqYtVTR_11payjoin_cli3app17read_limited_bodyINtNtCs9uzqRJ3jro6_14http_body_util6stream14BodyDataStreamINtNtNtBZ_11combinators7map_err6MapErrINtNtB1V_8box_body7BoxBodyNtNtCsaaYEsrDHBtF_5bytes5bytes5BytesINtNtCs3JibHiv1CSv_5alloc5boxed3BoxDNtNtCs2hl1TO11rA7_4core5error5ErrorNtNtB46_6marker4SendNtB4D_4SyncEL_EEINvNtCs8sTBixt68zY_7reqwest5error6decodeB3s_EEENtB5e_5ErrorE0B6_
FN:107,_RNCINvNtCscUu8AqYtVTR_11payjoin_cli3app17read_limited_bodyINtNtCs9uzqRJ3jro6_14http_body_util6stream14BodyDataStreamNtNtNtCs9cxRumJ6vay_5hyper4body8incoming8IncomingENtNtB1W_5error5ErrorE0B6_
FN:111,_RNCNCINvNtCscUu8AqYtVTR_11payjoin_cli3app17read_limited_bodyINtNtCs9uzqRJ3jro6_14http_body_util6stream14BodyDataStreamINtNtNtB11_11combinators7map_err6MapErrINtNtB1X_8box_body7BoxBodyNtNtCsaaYEsrDHBtF_5bytes5bytes5BytesINtNtCs3JibHiv1CSv_5alloc5boxed3BoxDNtNtCs2hl1TO11rA7_4core5error5ErrorNtNtB49_6marker4SendNtB4G_4SyncEL_EEINvNtCs8sTBixt68zY_7reqwest5error6decodeB3v_EEENtB5h_5ErrorE00B8_
FN:111,_RNCNCINvNtCscUu8AqYtVTR_11payjoin_cli3app17read_limited_bodyINtNtCs9uzqRJ3jro6_14http_body_util6stream14BodyDataStreamNtNtNtCs9cxRumJ6vay_5hyper4body8incoming8IncomingENtNtB1Y_5error5ErrorE00B8_
FN:95,_RNCNvNtCscUu8AqYtVTR_11payjoin_cli3app16handle_interrupt0B5_
FN:103,_RINvNtCs6sB0kYsNxnG_11payjoin_cli3app17read_limited_bodyINtNtCs9uzqRJ3jro6_14http_body_util6stream14BodyDataStreamINtNtNtBX_11combinators7map_err6MapErrINtNtB1T_8box_body7BoxBodyNtNtCsaaYEsrDHBtF_5bytes5bytes5BytesINtNtCs3JibHiv1CSv_5alloc5boxed3BoxDNtNtCs2hl1TO11rA7_4core5error5ErrorNtNtB44_6marker4SendNtB4B_4SyncEL_EEINvNtCs5Iaz79GWAH0_7reqwest5error6decodeB3q_EEENtB5c_5ErrorEB4_
FN:103,_RINvNtCs6sB0kYsNxnG_11payjoin_cli3app17read_limited_bodyINtNtCs9uzqRJ3jro6_14http_body_util6stream14BodyDataStreamNtNtNtCsjTA6264Tasq_5hyper4body8incoming8IncomingENtNtB1U_5error5ErrorEB4_
FN:107,_RNCINvNtCs6sB0kYsNxnG_11payjoin_cli3app17read_limited_bodyINtNtCs9uzqRJ3jro6_14http_body_util6stream14BodyDataStreamINtNtNtBZ_11combinators7map_err6MapErrINtNtB1V_8box_body7BoxBodyNtNtCsaaYEsrDHBtF_5bytes5bytes5BytesINtNtCs3JibHiv1CSv_5alloc5boxed3BoxDNtNtCs2hl1TO11rA7_4core5error5ErrorNtNtB46_6marker4SendNtB4D_4SyncEL_EEINvNtCs5Iaz79GWAH0_7reqwest5error6decodeB3s_EEENtB5e_5ErrorE0B6_
FN:107,_RNCINvNtCs6sB0kYsNxnG_11payjoin_cli3app17read_limited_bodyINtNtCs9uzqRJ3jro6_14http_body_util6stream14BodyDataStreamNtNtNtCsjTA6264Tasq_5hyper4body8incoming8IncomingENtNtB1W_5error5ErrorE0B6_
FN:111,_RNCNCINvNtCs6sB0kYsNxnG_11payjoin_cli3app17read_limited_bodyINtNtCs9uzqRJ3jro6_14http_body_util6stream14BodyDataStreamINtNtNtB11_11combinators7map_err6MapErrINtNtB1X_8box_body7BoxBodyNtNtCsaaYEsrDHBtF_5bytes5bytes5BytesINtNtCs3JibHiv1CSv_5alloc5boxed3BoxDNtNtCs2hl1TO11rA7_4core5error5ErrorNtNtB49_6marker4SendNtB4G_4SyncEL_EEINvNtCs5Iaz79GWAH0_7reqwest5error6decodeB3v_EEENtB5h_5ErrorE00B8_
FN:111,_RNCNCINvNtCs6sB0kYsNxnG_11payjoin_cli3app17read_limited_bodyINtNtCs9uzqRJ3jro6_14http_body_util6stream14BodyDataStreamNtNtNtCsjTA6264Tasq_5hyper4body8incoming8IncomingENtNtB1Y_5error5ErrorE00B8_
FN:95,_RNCNvNtCs6sB0kYsNxnG_11payjoin_cli3app16handle_interrupt0B5_
FN:58,_RNvYNtNtNtCs6sB0kYsNxnG_11payjoin_cli3app2v13AppNtB6_3App19process_pj_responseB8_
FN:38,_RNvYNtNtNtCs6sB0kYsNxnG_11payjoin_cli3app2v13AppNtB6_3App20create_original_psbtB8_
FN:58,_RNvYNtNtNtCs6sB0kYsNxnG_11payjoin_cli3app2v23AppNtB6_3App19process_pj_responseB8_
FN:38,_RNvYNtNtNtCs6sB0kYsNxnG_11payjoin_cli3app2v23AppNtB6_3App20create_original_psbtB8_
FN:72,_RNvNtCs6sB0kYsNxnG_11payjoin_cli3app10http_agent
FN:95,_RNvNtCs6sB0kYsNxnG_11payjoin_cli3app16handle_interrupt
FN:82,_RNvNtCs6sB0kYsNxnG_11payjoin_cli3app18http_agent_builder
FNDA:0,_RINvNtCsdNOva7tMRqO_11payjoin_cli3app17read_limited_bodyppEB4_
FNDA:0,_RNCINvNtCsdNOva7tMRqO_11payjoin_cli3app17read_limited_bodyppE0B6_
FNDA:0,_RNCNCINvNtCsdNOva7tMRqO_11payjoin_cli3app17read_limited_bodyppE00B8_
FNDA:0,_RNCNvNtCsdNOva7tMRqO_11payjoin_cli3app16handle_interrupt0B5_
FNDA:0,_RNvNtCsdNOva7tMRqO_11payjoin_cli3app10http_agent
FNDA:0,_RNvNtCsdNOva7tMRqO_11payjoin_cli3app16handle_interrupt
FNDA:0,_RNvNtCsdNOva7tMRqO_11payjoin_cli3app18http_agent_builder
FNDA:0,_RNvYpNtNtCsdNOva7tMRqO_11payjoin_cli3app3App19process_pj_responseB7_
FNDA:0,_RNvYpNtNtCsdNOva7tMRqO_11payjoin_cli3app3App20create_original_psbtB7_
FNDA:0,_RINvNtCsgibgrjNWKaG_11payjoin_cli3app17read_limited_bodyppEB4_
FNDA:0,_RNCINvNtCsgibgrjNWKaG_11payjoin_cli3app17read_limited_bodyppE0B6_
FNDA:0,_RNCNCINvNtCsgibgrjNWKaG_11payjoin_cli3app17read_limited_bodyppE00B8_
FNDA:0,_RNCNvNtCsgibgrjNWKaG_11payjoin_cli3app16handle_interrupt0B5_
FNDA:0,_RNvNtCsgibgrjNWKaG_11payjoin_cli3app10http_agent
FNDA:0,_RNvNtCsgibgrjNWKaG_11payjoin_cli3app16handle_interrupt
FNDA:0,_RNvNtCsgibgrjNWKaG_11payjoin_cli3app18http_agent_builder
FNDA:0,_RNvYpNtNtCsgibgrjNWKaG_11payjoin_cli3app3App19process_pj_responseB7_
FNDA:0,_RNvYpNtNtCsgibgrjNWKaG_11payjoin_cli3app3App20create_original_psbtB7_
FNDA:0,_RNvYNtNtNtCsb4baREu157E_11payjoin_cli3app2v13AppNtB6_3App19process_pj_responseB8_
FNDA:0,_RNvYNtNtNtCsb4baREu157E_11payjoin_cli3app2v13AppNtB6_3App20create_original_psbtB8_
FNDA:0,_RINvNtCsb4baREu157E_11payjoin_cli3app17read_limited_bodyINtNtCs9uzqRJ3jro6_14http_body_util6stream14BodyDataStreamINtNtNtBX_11combinators7map_err6MapErrINtNtB1T_8box_body7BoxBodyNtNtCsaaYEsrDHBtF_5bytes5bytes5BytesINtNtCs3JibHiv1CSv_5alloc5boxed3BoxDNtNtCs2hl1TO11rA7_4core5error5ErrorNtNtB44_6marker4SendNtB4B_4SyncEL_EEINvNtCs8sTBixt68zY_7reqwest5error6decodeB3q_EEENtB5c_5ErrorEB4_
FNDA:0,_RINvNtCsb4baREu157E_11payjoin_cli3app17read_limited_bodyINtNtCs9uzqRJ3jro6_14http_body_util6stream14BodyDataStreamNtNtNtCs9cxRumJ6vay_5hyper4body8incoming8IncomingENtNtB1U_5error5ErrorEB4_
FNDA:0,_RNCINvNtCsb4baREu157E_11payjoin_cli3app17read_limited_bodyINtNtCs9uzqRJ3jro6_14http_body_util6stream14BodyDataStreamINtNtNtBZ_11combinators7map_err6MapErrINtNtB1V_8box_body7BoxBodyNtNtCsaaYEsrDHBtF_5bytes5bytes5BytesINtNtCs3JibHiv1CSv_5alloc5boxed3BoxDNtNtCs2hl1TO11rA7_4core5error5ErrorNtNtB46_6marker4SendNtB4D_4SyncEL_EEINvNtCs8sTBixt68zY_7reqwest5error6decodeB3s_EEENtB5e_5ErrorE0B6_
FNDA:0,_RNCINvNtCsb4baREu157E_11payjoin_cli3app17read_limited_bodyINtNtCs9uzqRJ3jro6_14http_body_util6stream14BodyDataStreamNtNtNtCs9cxRumJ6vay_5hyper4body8incoming8IncomingENtNtB1W_5error5ErrorE0B6_
FNDA:0,_RNCNCINvNtCsb4baREu157E_11payjoin_cli3app17read_limited_bodyINtNtCs9uzqRJ3jro6_14http_body_util6stream14BodyDataStreamINtNtNtB11_11combinators7map_err6MapErrINtNtB1X_8box_body7BoxBodyNtNtCsaaYEsrDHBtF_5bytes5bytes5BytesINtNtCs3JibHiv1CSv_5alloc5boxed3BoxDNtNtCs2hl1TO11rA7_4core5error5ErrorNtNtB49_6marker4SendNtB4G_4SyncEL_EEINvNtCs8sTBixt68zY_7reqwest5error6decodeB3v_EEENtB5h_5ErrorE00B8_
FNDA:0,_RNCNCINvNtCsb4baREu157E_11payjoin_cli3app17read_limited_bodyINtNtCs9uzqRJ3jro6_14http_body_util6stream14BodyDataStreamNtNtNtCs9cxRumJ6vay_5hyper4body8incoming8IncomingENtNtB1Y_5error5ErrorE00B8_
FNDA:0,_RNCNvNtCsb4baREu157E_11payjoin_cli3app16handle_interrupt0B5_
FNDA:0,_RNvNtCsb4baREu157E_11payjoin_cli3app10http_agent
FNDA:0,_RNvNtCsb4baREu157E_11payjoin_cli3app16handle_interrupt
FNDA:0,_RNvNtCsb4baREu157E_11payjoin_cli3app18http_agent_builder
FNDA:0,_RINvNtCsdBQVr9DQLnV_11payjoin_cli3app17read_limited_bodyppEB4_
FNDA:0,_RNCINvNtCsdBQVr9DQLnV_11payjoin_cli3app17read_limited_bodyppE0B6_
FNDA:0,_RNCNCINvNtCsdBQVr9DQLnV_11payjoin_cli3app17read_limited_bodyppE00B8_
FNDA:0,_RNCNvNtCsdBQVr9DQLnV_11payjoin_cli3app16handle_interrupt0B5_
FNDA:0,_RNvNtCsdBQVr9DQLnV_11payjoin_cli3app10http_agent
FNDA:0,_RNvNtCsdBQVr9DQLnV_11payjoin_cli3app16handle_interrupt
FNDA:0,_RNvNtCsdBQVr9DQLnV_11payjoin_cli3app18http_agent_builder
FNDA:0,_RNvYpNtNtCsdBQVr9DQLnV_11payjoin_cli3app3App19process_pj_responseB7_
FNDA:0,_RNvYpNtNtCsdBQVr9DQLnV_11payjoin_cli3app3App20create_original_psbtB7_
FNDA:1,_RNvYNtNtNtCscUu8AqYtVTR_11payjoin_cli3app2v13AppNtB6_3App19process_pj_responseB8_
FNDA:1,_RNvYNtNtNtCscUu8AqYtVTR_11payjoin_cli3app2v13AppNtB6_3App20create_original_psbtB8_
FNDA:1,_RNvNtCscUu8AqYtVTR_11payjoin_cli3app10http_agent
FNDA:2,_RNvNtCscUu8AqYtVTR_11payjoin_cli3app16handle_interrupt
FNDA:1,_RNvNtCscUu8AqYtVTR_11payjoin_cli3app18http_agent_builder
FNDA:1,_RINvNtCscUu8AqYtVTR_11payjoin_cli3app17read_limited_bodyINtNtCs9uzqRJ3jro6_14http_body_util6stream14BodyDataStreamINtNtNtBX_11combinators7map_err6MapErrINtNtB1T_8box_body7BoxBodyNtNtCsaaYEsrDHBtF_5bytes5bytes5BytesINtNtCs3JibHiv1CSv_5alloc5boxed3BoxDNtNtCs2hl1TO11rA7_4core5error5ErrorNtNtB44_6marker4SendNtB4B_4SyncEL_EEINvNtCs8sTBixt68zY_7reqwest5error6decodeB3q_EEENtB5c_5ErrorEB4_
FNDA:1,_RINvNtCscUu8AqYtVTR_11payjoin_cli3app17read_limited_bodyINtNtCs9uzqRJ3jro6_14http_body_util6stream14BodyDataStreamNtNtNtCs9cxRumJ6vay_5hyper4body8incoming8IncomingENtNtB1U_5error5ErrorEB4_
FNDA:1,_RNCINvNtCscUu8AqYtVTR_11payjoin_cli3app17read_limited_bodyINtNtCs9uzqRJ3jro6_14http_body_util6stream14BodyDataStreamINtNtNtBZ_11combinators7map_err6MapErrINtNtB1V_8box_body7BoxBodyNtNtCsaaYEsrDHBtF_5bytes5bytes5BytesINtNtCs3JibHiv1CSv_5alloc5boxed3BoxDNtNtCs2hl1TO11rA7_4core5error5ErrorNtNtB46_6marker4SendNtB4D_4SyncEL_EEINvNtCs8sTBixt68zY_7reqwest5error6decodeB3s_EEENtB5e_5ErrorE0B6_
FNDA:1,_RNCINvNtCscUu8AqYtVTR_11payjoin_cli3app17read_limited_bodyINtNtCs9uzqRJ3jro6_14http_body_util6stream14BodyDataStreamNtNtNtCs9cxRumJ6vay_5hyper4body8incoming8IncomingENtNtB1W_5error5ErrorE0B6_
FNDA:0,_RNCNCINvNtCscUu8AqYtVTR_11payjoin_cli3app17read_limited_bodyINtNtCs9uzqRJ3jro6_14http_body_util6stream14BodyDataStreamINtNtNtB11_11combinators7map_err6MapErrINtNtB1X_8box_body7BoxBodyNtNtCsaaYEsrDHBtF_5bytes5bytes5BytesINtNtCs3JibHiv1CSv_5alloc5boxed3BoxDNtNtCs2hl1TO11rA7_4core5error5ErrorNtNtB49_6marker4SendNtB4G_4SyncEL_EEINvNtCs8sTBixt68zY_7reqwest5error6decodeB3v_EEENtB5h_5ErrorE00B8_
FNDA:0,_RNCNCINvNtCscUu8AqYtVTR_11payjoin_cli3app17read_limited_bodyINtNtCs9uzqRJ3jro6_14http_body_util6stream14BodyDataStreamNtNtNtCs9cxRumJ6vay_5hyper4body8incoming8IncomingENtNtB1Y_5error5ErrorE00B8_
FNDA:2,_RNCNvNtCscUu8AqYtVTR_11payjoin_cli3app16handle_interrupt0B5_
FNDA:1,_RINvNtCs6sB0kYsNxnG_11payjoin_cli3app17read_limited_bodyINtNtCs9uzqRJ3jro6_14http_body_util6stream14BodyDataStreamINtNtNtBX_11combinators7map_err6MapErrINtNtB1T_8box_body7BoxBodyNtNtCsaaYEsrDHBtF_5bytes5bytes5BytesINtNtCs3JibHiv1CSv_5alloc5boxed3BoxDNtNtCs2hl1TO11rA7_4core5error5ErrorNtNtB44_6marker4SendNtB4B_4SyncEL_EEINvNtCs5Iaz79GWAH0_7reqwest5error6decodeB3q_EEENtB5c_5ErrorEB4_
FNDA:2,_RINvNtCs6sB0kYsNxnG_11payjoin_cli3app17read_limited_bodyINtNtCs9uzqRJ3jro6_14http_body_util6stream14BodyDataStreamNtNtNtCsjTA6264Tasq_5hyper4body8incoming8IncomingENtNtB1U_5error5ErrorEB4_
FNDA:1,_RNCINvNtCs6sB0kYsNxnG_11payjoin_cli3app17read_limited_bodyINtNtCs9uzqRJ3jro6_14http_body_util6stream14BodyDataStreamINtNtNtBZ_11combinators7map_err6MapErrINtNtB1V_8box_body7BoxBodyNtNtCsaaYEsrDHBtF_5bytes5bytes5BytesINtNtCs3JibHiv1CSv_5alloc5boxed3BoxDNtNtCs2hl1TO11rA7_4core5error5ErrorNtNtB46_6marker4SendNtB4D_4SyncEL_EEINvNtCs5Iaz79GWAH0_7reqwest5error6decodeB3s_EEENtB5e_5ErrorE0B6_
FNDA:2,_RNCINvNtCs6sB0kYsNxnG_11payjoin_cli3app17read_limited_bodyINtNtCs9uzqRJ3jro6_14http_body_util6stream14BodyDataStreamNtNtNtCsjTA6264Tasq_5hyper4body8incoming8IncomingENtNtB1W_5error5ErrorE0B6_
FNDA:0,_RNCNCINvNtCs6sB0kYsNxnG_11payjoin_cli3app17read_limited_bodyINtNtCs9uzqRJ3jro6_14http_body_util6stream14BodyDataStreamINtNtNtB11_11combinators7map_err6MapErrINtNtB1X_8box_body7BoxBodyNtNtCsaaYEsrDHBtF_5bytes5bytes5BytesINtNtCs3JibHiv1CSv_5alloc5boxed3BoxDNtNtCs2hl1TO11rA7_4core5error5ErrorNtNtB49_6marker4SendNtB4G_4SyncEL_EEINvNtCs5Iaz79GWAH0_7reqwest5error6decodeB3v_EEENtB5h_5ErrorE00B8_
FNDA:0,_RNCNCINvNtCs6sB0kYsNxnG_11payjoin_cli3app17read_limited_bodyINtNtCs9uzqRJ3jro6_14http_body_util6stream14BodyDataStreamNtNtNtCsjTA6264Tasq_5hyper4body8incoming8IncomingENtNtB1Y_5error5ErrorE00B8_
FNDA:11,_RNCNvNtCs6sB0kYsNxnG_11payjoin_cli3app16handle_interrupt0B5_
FNDA:1,_RNvYNtNtNtCs6sB0kYsNxnG_11payjoin_cli3app2v13AppNtB6_3App19process_pj_responseB8_
FNDA:1,_RNvYNtNtNtCs6sB0kYsNxnG_11payjoin_cli3app2v13AppNtB6_3App20create_original_psbtB8_
FNDA:2,_RNvYNtNtNtCs6sB0kYsNxnG_11payjoin_cli3app2v23AppNtB6_3App19process_pj_responseB8_
FNDA:2,_RNvYNtNtNtCs6sB0kYsNxnG_11payjoin_cli3app2v23AppNtB6_3App20create_original_psbtB8_
FNDA:9,_RNvNtCs6sB0kYsNxnG_11payjoin_cli3app10http_agent
FNDA:11,_RNvNtCs6sB0kYsNxnG_11payjoin_cli3app16handle_interrupt
FNDA:9,_RNvNtCs6sB0kYsNxnG_11payjoin_cli3app18http_agent_builder
FNF:9
FNH:8
DA:38,4
DA:39,4
DA:40,4
DA:41,4
DA:42,4
DA:43,4
DA:45,4
DA:46,0
DA:47,0
DA:48,0
DA:49,4
DA:52,4
DA:53,4
DA:55,4
DA:56,4
DA:58,4
DA:59,4
DA:61,4
DA:62,4
DA:64,4
DA:66,4
DA:67,4
DA:68,4
DA:72,10
DA:73,10
DA:74,10
DA:82,10
DA:83,10
DA:84,10
DA:85,10
DA:87,10
DA:88,10
DA:89,10
DA:90,10
DA:91,0
DA:92,10
DA:93,10
DA:95,13
DA:96,13
DA:97,0
DA:98,9
DA:99,9
DA:100,9
DA:103,5
DA:104,5
DA:105,5
DA:106,5
DA:107,5
DA:108,5
DA:110,10
DA:111,5
DA:112,5
DA:113,0
DA:114,5
DA:115,5
DA:118,5
DA:119,5
BRF:0
BRH:0
LF:59
LH:52
end_of_record
SF:/Users/bene/bitcoin/rust-payjoin/payjoin-cli/src/app/v1.rs
FN:141,_RINvMs_NtNtCsdNOva7tMRqO_11payjoin_cli3app2v1NtB5_3App21construct_payjoin_uripEB9_
FN:444,_RINvNtNtCsdNOva7tMRqO_11payjoin_cli3app2v14fullpEB6_
FN:201,_RNCNCNCNvMs_NtNtCsdNOva7tMRqO_11payjoin_cli3app2v1NtBa_3App17start_http_server000Be_
FN:188,_RNCNCNvMs_NtNtCsdNOva7tMRqO_11payjoin_cli3app2v1NtB8_3App17start_http_server00Bc_
FN:258,_RNCNCNvMs_NtNtCsdNOva7tMRqO_11payjoin_cli3app2v1NtB8_3App18handle_web_request00Bc_
FN:271,_RNCNCNvMs_NtNtCsdNOva7tMRqO_11payjoin_cli3app2v1NtB8_3App18handle_web_request0s1_0Bc_
FN:262,_RNCNCNvMs_NtNtCsdNOva7tMRqO_11payjoin_cli3app2v1NtB8_3App18handle_web_request0s_0Bc_
FN:328,_RNCNCNvMs_NtNtCsdNOva7tMRqO_11payjoin_cli3app2v1NtB8_3App19handle_payjoin_post00Bc_
FN:340,_RNCNCNvMs_NtNtCsdNOva7tMRqO_11payjoin_cli3app2v1NtB8_3App19handle_payjoin_post0s0_0Bc_
FN:329,_RNCNCNvMs_NtNtCsdNOva7tMRqO_11payjoin_cli3app2v1NtB8_3App19handle_payjoin_post0s_0Bc_
FN:367,_RNCNCNvMs_NtNtCsdNOva7tMRqO_11payjoin_cli3app2v1NtB8_3App19process_v1_proposal00Bc_
FN:389,_RNCNCNvMs_NtNtCsdNOva7tMRqO_11payjoin_cli3app2v1NtB8_3App19process_v1_proposals1_00Bc_
FN:413,_RNCNCNvMs_NtNtCsdNOva7tMRqO_11payjoin_cli3app2v1NtB8_3App19process_v1_proposals4_00Bc_
FN:376,_RNCNCNvMs_NtNtCsdNOva7tMRqO_11payjoin_cli3app2v1NtB8_3App19process_v1_proposals_00Bc_
FN:67,_RNCNCNvXs2_NtNtCsdNOva7tMRqO_11payjoin_cli3app2v1NtB9_3AppNtBb_3App12send_payjoin00Bd_
FN:70,_RNCNCNvXs2_NtNtCsdNOva7tMRqO_11payjoin_cli3app2v1NtB9_3AppNtBb_3App12send_payjoin0s0_0Bd_
FN:87,_RNCNCNvXs2_NtNtCsdNOva7tMRqO_11payjoin_cli3app2v1NtB9_3AppNtBb_3App12send_payjoin0s3_0Bd_
FN:98,_RNCNCNvXs2_NtNtCsdNOva7tMRqO_11payjoin_cli3app2v1NtB9_3AppNtBb_3App12send_payjoin0s4_0Bd_
FN:99,_RNCNCNvXs2_NtNtCsdNOva7tMRqO_11payjoin_cli3app2v1NtB9_3AppNtBb_3App12send_payjoin0s5_0Bd_
FN:108,_RNCNCNvXs2_NtNtCsdNOva7tMRqO_11payjoin_cli3app2v1NtB9_3AppNtBb_3App12send_payjoin0s6_0Bd_
FN:69,_RNCNCNvXs2_NtNtCsdNOva7tMRqO_11payjoin_cli3app2v1NtB9_3AppNtBb_3App12send_payjoin0s_0Bd_
FN:292,_RNCNvMs_NtNtCsdNOva7tMRqO_11payjoin_cli3app2v1NtB6_3App16handle_get_bip210Ba_
FN:308,_RNCNvMs_NtNtCsdNOva7tMRqO_11payjoin_cli3app2v1NtB6_3App16handle_get_bip21s0_0Ba_
FN:295,_RNCNvMs_NtNtCsdNOva7tMRqO_11payjoin_cli3app2v1NtB6_3App16handle_get_bip21s_0Ba_
FN:224,_RNCNvMs_NtNtCsdNOva7tMRqO_11payjoin_cli3app2v1NtB6_3App17init_tls_acceptor0Ba_
FN:237,_RNCNvMs_NtNtCsdNOva7tMRqO_11payjoin_cli3app2v1NtB6_3App17init_tls_acceptors_0Ba_
FN:154,_RNCNvMs_NtNtCsdNOva7tMRqO_11payjoin_cli3app2v1NtB6_3App17start_http_server0Ba_
FN:248,_RNCNvMs_NtNtCsdNOva7tMRqO_11payjoin_cli3app2v1NtB6_3App18handle_web_request0Ba_
FN:321,_RNCNvMs_NtNtCsdNOva7tMRqO_11payjoin_cli3app2v1NtB6_3App19handle_payjoin_post0Ba_
FN:364,_RNCNvMs_NtNtCsdNOva7tMRqO_11payjoin_cli3app2v1NtB6_3App19process_v1_proposal0Ba_
FN:381,_RNCNvMs_NtNtCsdNOva7tMRqO_11payjoin_cli3app2v1NtB6_3App19process_v1_proposals0_0Ba_
FN:386,_RNCNvMs_NtNtCsdNOva7tMRqO_11payjoin_cli3app2v1NtB6_3App19process_v1_proposals1_0Ba_
FN:397,_RNCNvMs_NtNtCsdNOva7tMRqO_11payjoin_cli3app2v1NtB6_3App19process_v1_proposals2_0Ba_
FN:402,_RNCNvMs_NtNtCsdNOva7tMRqO_11payjoin_cli3app2v1NtB6_3App19process_v1_proposals3_0Ba_
FN:410,_RNCNvMs_NtNtCsdNOva7tMRqO_11payjoin_cli3app2v1NtB6_3App19process_v1_proposals4_0Ba_
FN:375,_RNCNvMs_NtNtCsdNOva7tMRqO_11payjoin_cli3app2v1NtB6_3App19process_v1_proposals_0Ba_
FN:424,_RNCNvNtNtCsdNOva7tMRqO_11payjoin_cli3app2v123try_contributing_inputs0B7_
FN:37,_RNCNvXNtNtCsdNOva7tMRqO_11payjoin_cli3app2v1NtB4_7HeadersNtNtNtNtCs9T6n9XKryM2_7payjoin4core7receive2v17Headers10get_header0B8_
FN:288,_RNvMs_NtNtCsdNOva7tMRqO_11payjoin_cli3app2v1NtB4_3App16handle_get_bip21
FN:210,_RNvMs_NtNtCsdNOva7tMRqO_11payjoin_cli3app2v1NtB4_3App17init_tls_acceptor
FN:154,_RNvMs_NtNtCsdNOva7tMRqO_11payjoin_cli3app2v1NtB4_3App17start_http_server
FN:245,_RNvMs_NtNtCsdNOva7tMRqO_11payjoin_cli3app2v1NtB4_3App18handle_web_request
FN:318,_RNvMs_NtNtCsdNOva7tMRqO_11payjoin_cli3app2v1NtB4_3App19handle_payjoin_post
FN:357,_RNvMs_NtNtCsdNOva7tMRqO_11payjoin_cli3app2v1NtB4_3App19process_v1_proposal
FN:419,_RNvNtNtCsdNOva7tMRqO_11payjoin_cli3app2v123try_contributing_inputs
FN:36,_RNvXNtNtCsdNOva7tMRqO_11payjoin_cli3app2v1NtB2_7HeadersNtNtNtNtCs9T6n9XKryM2_7payjoin4core7receive2v17Headers10get_header
FN:65,_RNvXs2_NtNtCsdNOva7tMRqO_11payjoin_cli3app2v1NtB5_3AppNtB7_3App12send_payjoin
FN:118,_RNvXs2_NtNtCsdNOva7tMRqO_11payjoin_cli3app2v1NtB5_3AppNtB7_3App15receive_payjoin
FN:51,_RNvXs2_NtNtCsdNOva7tMRqO_11payjoin_cli3app2v1NtB5_3AppNtB7_3App3new
FN:63,_RNvXs2_NtNtCsdNOva7tMRqO_11payjoin_cli3app2v1NtB5_3AppNtB7_3App6wallet
FN:141,_RINvMs_NtNtCsgibgrjNWKaG_11payjoin_cli3app2v1NtB5_3App21construct_payjoin_uripEB9_
FN:444,_RINvNtNtCsgibgrjNWKaG_11payjoin_cli3app2v14fullpEB6_
FN:201,_RNCNCNCNvMs_NtNtCsgibgrjNWKaG_11payjoin_cli3app2v1NtBa_3App17start_http_server000Be_
FN:188,_RNCNCNvMs_NtNtCsgibgrjNWKaG_11payjoin_cli3app2v1NtB8_3App17start_http_server00Bc_
FN:258,_RNCNCNvMs_NtNtCsgibgrjNWKaG_11payjoin_cli3app2v1NtB8_3App18handle_web_request00Bc_
FN:271,_RNCNCNvMs_NtNtCsgibgrjNWKaG_11payjoin_cli3app2v1NtB8_3App18handle_web_request0s1_0Bc_
FN:262,_RNCNCNvMs_NtNtCsgibgrjNWKaG_11payjoin_cli3app2v1NtB8_3App18handle_web_request0s_0Bc_
FN:328,_RNCNCNvMs_NtNtCsgibgrjNWKaG_11payjoin_cli3app2v1NtB8_3App19handle_payjoin_post00Bc_
FN:340,_RNCNCNvMs_NtNtCsgibgrjNWKaG_11payjoin_cli3app2v1NtB8_3App19handle_payjoin_post0s0_0Bc_
FN:329,_RNCNCNvMs_NtNtCsgibgrjNWKaG_11payjoin_cli3app2v1NtB8_3App19handle_payjoin_post0s_0Bc_
FN:367,_RNCNCNvMs_NtNtCsgibgrjNWKaG_11payjoin_cli3app2v1NtB8_3App19process_v1_proposal00Bc_
FN:389,_RNCNCNvMs_NtNtCsgibgrjNWKaG_11payjoin_cli3app2v1NtB8_3App19process_v1_proposals1_00Bc_
FN:413,_RNCNCNvMs_NtNtCsgibgrjNWKaG_11payjoin_cli3app2v1NtB8_3App19process_v1_proposals4_00Bc_
FN:376,_RNCNCNvMs_NtNtCsgibgrjNWKaG_11payjoin_cli3app2v1NtB8_3App19process_v1_proposals_00Bc_
FN:67,_RNCNCNvXs2_NtNtCsgibgrjNWKaG_11payjoin_cli3app2v1NtB9_3AppNtBb_3App12send_payjoin00Bd_
FN:70,_RNCNCNvXs2_NtNtCsgibgrjNWKaG_11payjoin_cli3app2v1NtB9_3AppNtBb_3App12send_payjoin0s0_0Bd_
FN:87,_RNCNCNvXs2_NtNtCsgibgrjNWKaG_11payjoin_cli3app2v1NtB9_3AppNtBb_3App12send_payjoin0s3_0Bd_
FN:98,_RNCNCNvXs2_NtNtCsgibgrjNWKaG_11payjoin_cli3app2v1NtB9_3AppNtBb_3App12send_payjoin0s4_0Bd_
FN:99,_RNCNCNvXs2_NtNtCsgibgrjNWKaG_11payjoin_cli3app2v1NtB9_3AppNtBb_3App12send_payjoin0s5_0Bd_
FN:108,_RNCNCNvXs2_NtNtCsgibgrjNWKaG_11payjoin_cli3app2v1NtB9_3AppNtBb_3App12send_payjoin0s6_0Bd_
FN:69,_RNCNCNvXs2_NtNtCsgibgrjNWKaG_11payjoin_cli3app2v1NtB9_3AppNtBb_3App12send_payjoin0s_0Bd_
FN:292,_RNCNvMs_NtNtCsgibgrjNWKaG_11payjoin_cli3app2v1NtB6_3App16handle_get_bip210Ba_
FN:308,_RNCNvMs_NtNtCsgibgrjNWKaG_11payjoin_cli3app2v1NtB6_3App16handle_get_bip21s0_0Ba_
FN:295,_RNCNvMs_NtNtCsgibgrjNWKaG_11payjoin_cli3app2v1NtB6_3App16handle_get_bip21s_0Ba_
FN:224,_RNCNvMs_NtNtCsgibgrjNWKaG_11payjoin_cli3app2v1NtB6_3App17init_tls_acceptor0Ba_
FN:237,_RNCNvMs_NtNtCsgibgrjNWKaG_11payjoin_cli3app2v1NtB6_3App17init_tls_acceptors_0Ba_
FN:154,_RNCNvMs_NtNtCsgibgrjNWKaG_11payjoin_cli3app2v1NtB6_3App17start_http_server0Ba_
FN:248,_RNCNvMs_NtNtCsgibgrjNWKaG_11payjoin_cli3app2v1NtB6_3App18handle_web_request0Ba_
FN:321,_RNCNvMs_NtNtCsgibgrjNWKaG_11payjoin_cli3app2v1NtB6_3App19handle_payjoin_post0Ba_
FN:364,_RNCNvMs_NtNtCsgibgrjNWKaG_11payjoin_cli3app2v1NtB6_3App19process_v1_proposal0Ba_
FN:381,_RNCNvMs_NtNtCsgibgrjNWKaG_11payjoin_cli3app2v1NtB6_3App19process_v1_proposals0_0Ba_
FN:386,_RNCNvMs_NtNtCsgibgrjNWKaG_11payjoin_cli3app2v1NtB6_3App19process_v1_proposals1_0Ba_
FN:397,_RNCNvMs_NtNtCsgibgrjNWKaG_11payjoin_cli3app2v1NtB6_3App19process_v1_proposals2_0Ba_
FN:402,_RNCNvMs_NtNtCsgibgrjNWKaG_11payjoin_cli3app2v1NtB6_3App19process_v1_proposals3_0Ba_
FN:410,_RNCNvMs_NtNtCsgibgrjNWKaG_11payjoin_cli3app2v1NtB6_3App19process_v1_proposals4_0Ba_
FN:375,_RNCNvMs_NtNtCsgibgrjNWKaG_11payjoin_cli3app2v1NtB6_3App19process_v1_proposals_0Ba_
FN:424,_RNCNvNtNtCsgibgrjNWKaG_11payjoin_cli3app2v123try_contributing_inputs0B7_
FN:37,_RNCNvXNtNtCsgibgrjNWKaG_11payjoin_cli3app2v1NtB4_7HeadersNtNtNtNtCs9T6n9XKryM2_7payjoin4core7receive2v17Headers10get_header0B8_
FN:288,_RNvMs_NtNtCsgibgrjNWKaG_11payjoin_cli3app2v1NtB4_3App16handle_get_bip21
FN:210,_RNvMs_NtNtCsgibgrjNWKaG_11payjoin_cli3app2v1NtB4_3App17init_tls_acceptor
FN:154,_RNvMs_NtNtCsgibgrjNWKaG_11payjoin_cli3app2v1NtB4_3App17start_http_server
FN:245,_RNvMs_NtNtCsgibgrjNWKaG_11payjoin_cli3app2v1NtB4_3App18handle_web_request
FN:318,_RNvMs_NtNtCsgibgrjNWKaG_11payjoin_cli3app2v1NtB4_3App19handle_payjoin_post
FN:357,_RNvMs_NtNtCsgibgrjNWKaG_11payjoin_cli3app2v1NtB4_3App19process_v1_proposal
FN:419,_RNvNtNtCsgibgrjNWKaG_11payjoin_cli3app2v123try_contributing_inputs
FN:36,_RNvXNtNtCsgibgrjNWKaG_11payjoin_cli3app2v1NtB2_7HeadersNtNtNtNtCs9T6n9XKryM2_7payjoin4core7receive2v17Headers10get_header
FN:65,_RNvXs2_NtNtCsgibgrjNWKaG_11payjoin_cli3app2v1NtB5_3AppNtB7_3App12send_payjoin
FN:118,_RNvXs2_NtNtCsgibgrjNWKaG_11payjoin_cli3app2v1NtB5_3AppNtB7_3App15receive_payjoin
FN:51,_RNvXs2_NtNtCsgibgrjNWKaG_11payjoin_cli3app2v1NtB5_3AppNtB7_3App3new
FN:63,_RNvXs2_NtNtCsgibgrjNWKaG_11payjoin_cli3app2v1NtB5_3AppNtB7_3App6wallet
FN:288,_RNvMs_NtNtCsb4baREu157E_11payjoin_cli3app2v1NtB4_3App16handle_get_bip21
FN:210,_RNvMs_NtNtCsb4baREu157E_11payjoin_cli3app2v1NtB4_3App17init_tls_acceptor
FN:154,_RNvMs_NtNtCsb4baREu157E_11payjoin_cli3app2v1NtB4_3App17start_http_server
FN:245,_RNvMs_NtNtCsb4baREu157E_11payjoin_cli3app2v1NtB4_3App18handle_web_request
FN:318,_RNvMs_NtNtCsb4baREu157E_11payjoin_cli3app2v1NtB4_3App19handle_payjoin_post
FN:357,_RNvMs_NtNtCsb4baREu157E_11payjoin_cli3app2v1NtB4_3App19process_v1_proposal
FN:419,_RNvNtNtCsb4baREu157E_11payjoin_cli3app2v123try_contributing_inputs
FN:36,_RNvXNtNtCsb4baREu157E_11payjoin_cli3app2v1NtB2_7HeadersNtNtNtNtCs9T6n9XKryM2_7payjoin4core7receive2v17Headers10get_header
FN:65,_RNvXs2_NtNtCsb4baREu157E_11payjoin_cli3app2v1NtB5_3AppNtB7_3App12send_payjoin
FN:118,_RNvXs2_NtNtCsb4baREu157E_11payjoin_cli3app2v1NtB5_3AppNtB7_3App15receive_payjoin
FN:51,_RNvXs2_NtNtCsb4baREu157E_11payjoin_cli3app2v1NtB5_3AppNtB7_3App3new
FN:63,_RNvXs2_NtNtCsb4baREu157E_11payjoin_cli3app2v1NtB5_3AppNtB7_3App6wallet
FN:141,_RINvMs_NtNtCsb4baREu157E_11payjoin_cli3app2v1NtB5_3App21construct_payjoin_uriReEB9_
FN:444,_RINvNtNtCsb4baREu157E_11payjoin_cli3app2v14fullNtNtCs3JibHiv1CSv_5alloc6string6StringEB6_
FN:444,_RINvNtNtCsb4baREu157E_11payjoin_cli3app2v14fullReEB6_
FN:201,_RNCNCNCNvMs_NtNtCsb4baREu157E_11payjoin_cli3app2v1NtBa_3App17start_http_server000Be_
FN:188,_RNCNCNvMs_NtNtCsb4baREu157E_11payjoin_cli3app2v1NtB8_3App17start_http_server00Bc_
FN:258,_RNCNCNvMs_NtNtCsb4baREu157E_11payjoin_cli3app2v1NtB8_3App18handle_web_request00Bc_
FN:271,_RNCNCNvMs_NtNtCsb4baREu157E_11payjoin_cli3app2v1NtB8_3App18handle_web_request0s1_0Bc_
FN:262,_RNCNCNvMs_NtNtCsb4baREu157E_11payjoin_cli3app2v1NtB8_3App18handle_web_request0s_0Bc_
FN:328,_RNCNCNvMs_NtNtCsb4baREu157E_11payjoin_cli3app2v1NtB8_3App19handle_payjoin_post00Bc_
FN:340,_RNCNCNvMs_NtNtCsb4baREu157E_11payjoin_cli3app2v1NtB8_3App19handle_payjoin_post0s0_0Bc_
FN:329,_RNCNCNvMs_NtNtCsb4baREu157E_11payjoin_cli3app2v1NtB8_3App19handle_payjoin_post0s_0Bc_
FN:367,_RNCNCNvMs_NtNtCsb4baREu157E_11payjoin_cli3app2v1NtB8_3App19process_v1_proposal00Bc_
FN:389,_RNCNCNvMs_NtNtCsb4baREu157E_11payjoin_cli3app2v1NtB8_3App19process_v1_proposals1_00Bc_
FN:413,_RNCNCNvMs_NtNtCsb4baREu157E_11payjoin_cli3app2v1NtB8_3App19process_v1_proposals4_00Bc_
FN:376,_RNCNCNvMs_NtNtCsb4baREu157E_11payjoin_cli3app2v1NtB8_3App19process_v1_proposals_00Bc_
FN:67,_RNCNCNvXs2_NtNtCsb4baREu157E_11payjoin_cli3app2v1NtB9_3AppNtBb_3App12send_payjoin00Bd_
FN:70,_RNCNCNvXs2_NtNtCsb4baREu157E_11payjoin_cli3app2v1NtB9_3AppNtBb_3App12send_payjoin0s0_0Bd_
FN:87,_RNCNCNvXs2_NtNtCsb4baREu157E_11payjoin_cli3app2v1NtB9_3AppNtBb_3App12send_payjoin0s3_0Bd_
FN:98,_RNCNCNvXs2_NtNtCsb4baREu157E_11payjoin_cli3app2v1NtB9_3AppNtBb_3App12send_payjoin0s4_0Bd_
FN:99,_RNCNCNvXs2_NtNtCsb4baREu157E_11payjoin_cli3app2v1NtB9_3AppNtBb_3App12send_payjoin0s5_0Bd_
FN:108,_RNCNCNvXs2_NtNtCsb4baREu157E_11payjoin_cli3app2v1NtB9_3AppNtBb_3App12send_payjoin0s6_0Bd_
FN:69,_RNCNCNvXs2_NtNtCsb4baREu157E_11payjoin_cli3app2v1NtB9_3AppNtBb_3App12send_payjoin0s_0Bd_
FN:292,_RNCNvMs_NtNtCsb4baREu157E_11payjoin_cli3app2v1NtB6_3App16handle_get_bip210Ba_
FN:308,_RNCNvMs_NtNtCsb4baREu157E_11payjoin_cli3app2v1NtB6_3App16handle_get_bip21s0_0Ba_
FN:295,_RNCNvMs_NtNtCsb4baREu157E_11payjoin_cli3app2v1NtB6_3App16handle_get_bip21s_0Ba_
FN:224,_RNCNvMs_NtNtCsb4baREu157E_11payjoin_cli3app2v1NtB6_3App17init_tls_acceptor0Ba_
FN:237,_RNCNvMs_NtNtCsb4baREu157E_11payjoin_cli3app2v1NtB6_3App17init_tls_acceptors_0Ba_
FN:154,_RNCNvMs_NtNtCsb4baREu157E_11payjoin_cli3app2v1NtB6_3App17start_http_server0Ba_
FN:248,_RNCNvMs_NtNtCsb4baREu157E_11payjoin_cli3app2v1NtB6_3App18handle_web_request0Ba_
FN:321,_RNCNvMs_NtNtCsb4baREu157E_11payjoin_cli3app2v1NtB6_3App19handle_payjoin_post0Ba_
FN:364,_RNCNvMs_NtNtCsb4baREu157E_11payjoin_cli3app2v1NtB6_3App19process_v1_proposal0Ba_
FN:381,_RNCNvMs_NtNtCsb4baREu157E_11payjoin_cli3app2v1NtB6_3App19process_v1_proposals0_0Ba_
FN:386,_RNCNvMs_NtNtCsb4baREu157E_11payjoin_cli3app2v1NtB6_3App19process_v1_proposals1_0Ba_
FN:397,_RNCNvMs_NtNtCsb4baREu157E_11payjoin_cli3app2v1NtB6_3App19process_v1_proposals2_0Ba_
FN:402,_RNCNvMs_NtNtCsb4baREu157E_11payjoin_cli3app2v1NtB6_3App19process_v1_proposals3_0Ba_
FN:410,_RNCNvMs_NtNtCsb4baREu157E_11payjoin_cli3app2v1NtB6_3App19process_v1_proposals4_0Ba_
FN:375,_RNCNvMs_NtNtCsb4baREu157E_11payjoin_cli3app2v1NtB6_3App19process_v1_proposals_0Ba_
FN:424,_RNCNvNtNtCsb4baREu157E_11payjoin_cli3app2v123try_contributing_inputs0B7_
FN:37,_RNCNvXNtNtCsb4baREu157E_11payjoin_cli3app2v1NtB4_7HeadersNtNtNtNtCs9T6n9XKryM2_7payjoin4core7receive2v17Headers10get_header0B8_
FN:141,_RINvMs_NtNtCsdBQVr9DQLnV_11payjoin_cli3app2v1NtB5_3App21construct_payjoin_uripEB9_
FN:444,_RINvNtNtCsdBQVr9DQLnV_11payjoin_cli3app2v14fullpEB6_
FN:201,_RNCNCNCNvMs_NtNtCsdBQVr9DQLnV_11payjoin_cli3app2v1NtBa_3App17start_http_server000Be_
FN:188,_RNCNCNvMs_NtNtCsdBQVr9DQLnV_11payjoin_cli3app2v1NtB8_3App17start_http_server00Bc_
FN:258,_RNCNCNvMs_NtNtCsdBQVr9DQLnV_11payjoin_cli3app2v1NtB8_3App18handle_web_request00Bc_
FN:271,_RNCNCNvMs_NtNtCsdBQVr9DQLnV_11payjoin_cli3app2v1NtB8_3App18handle_web_request0s1_0Bc_
FN:262,_RNCNCNvMs_NtNtCsdBQVr9DQLnV_11payjoin_cli3app2v1NtB8_3App18handle_web_request0s_0Bc_
FN:328,_RNCNCNvMs_NtNtCsdBQVr9DQLnV_11payjoin_cli3app2v1NtB8_3App19handle_payjoin_post00Bc_
FN:340,_RNCNCNvMs_NtNtCsdBQVr9DQLnV_11payjoin_cli3app2v1NtB8_3App19handle_payjoin_post0s0_0Bc_
FN:329,_RNCNCNvMs_NtNtCsdBQVr9DQLnV_11payjoin_cli3app2v1NtB8_3App19handle_payjoin_post0s_0Bc_
FN:367,_RNCNCNvMs_NtNtCsdBQVr9DQLnV_11payjoin_cli3app2v1NtB8_3App19process_v1_proposal00Bc_
FN:389,_RNCNCNvMs_NtNtCsdBQVr9DQLnV_11payjoin_cli3app2v1NtB8_3App19process_v1_proposals1_00Bc_
FN:413,_RNCNCNvMs_NtNtCsdBQVr9DQLnV_11payjoin_cli3app2v1NtB8_3App19process_v1_proposals4_00Bc_
FN:376,_RNCNCNvMs_NtNtCsdBQVr9DQLnV_11payjoin_cli3app2v1NtB8_3App19process_v1_proposals_00Bc_
FN:67,_RNCNCNvXs2_NtNtCsdBQVr9DQLnV_11payjoin_cli3app2v1NtB9_3AppNtBb_3App12send_payjoin00Bd_
FN:70,_RNCNCNvXs2_NtNtCsdBQVr9DQLnV_11payjoin_cli3app2v1NtB9_3AppNtBb_3App12send_payjoin0s0_0Bd_
FN:87,_RNCNCNvXs2_NtNtCsdBQVr9DQLnV_11payjoin_cli3app2v1NtB9_3AppNtBb_3App12send_payjoin0s3_0Bd_
FN:98,_RNCNCNvXs2_NtNtCsdBQVr9DQLnV_11payjoin_cli3app2v1NtB9_3AppNtBb_3App12send_payjoin0s4_0Bd_
FN:99,_RNCNCNvXs2_NtNtCsdBQVr9DQLnV_11payjoin_cli3app2v1NtB9_3AppNtBb_3App12send_payjoin0s5_0Bd_
FN:108,_RNCNCNvXs2_NtNtCsdBQVr9DQLnV_11payjoin_cli3app2v1NtB9_3AppNtBb_3App12send_payjoin0s6_0Bd_
FN:69,_RNCNCNvXs2_NtNtCsdBQVr9DQLnV_11payjoin_cli3app2v1NtB9_3AppNtBb_3App12send_payjoin0s_0Bd_
FN:292,_RNCNvMs_NtNtCsdBQVr9DQLnV_11payjoin_cli3app2v1NtB6_3App16handle_get_bip210Ba_
FN:308,_RNCNvMs_NtNtCsdBQVr9DQLnV_11payjoin_cli3app2v1NtB6_3App16handle_get_bip21s0_0Ba_
FN:295,_RNCNvMs_NtNtCsdBQVr9DQLnV_11payjoin_cli3app2v1NtB6_3App16handle_get_bip21s_0Ba_
FN:224,_RNCNvMs_NtNtCsdBQVr9DQLnV_11payjoin_cli3app2v1NtB6_3App17init_tls_acceptor0Ba_
FN:237,_RNCNvMs_NtNtCsdBQVr9DQLnV_11payjoin_cli3app2v1NtB6_3App17init_tls_acceptors_0Ba_
FN:154,_RNCNvMs_NtNtCsdBQVr9DQLnV_11payjoin_cli3app2v1NtB6_3App17start_http_server0Ba_
FN:248,_RNCNvMs_NtNtCsdBQVr9DQLnV_11payjoin_cli3app2v1NtB6_3App18handle_web_request0Ba_
FN:321,_RNCNvMs_NtNtCsdBQVr9DQLnV_11payjoin_cli3app2v1NtB6_3App19handle_payjoin_post0Ba_
FN:364,_RNCNvMs_NtNtCsdBQVr9DQLnV_11payjoin_cli3app2v1NtB6_3App19process_v1_proposal0Ba_
FN:381,_RNCNvMs_NtNtCsdBQVr9DQLnV_11payjoin_cli3app2v1NtB6_3App19process_v1_proposals0_0Ba_
FN:386,_RNCNvMs_NtNtCsdBQVr9DQLnV_11payjoin_cli3app2v1NtB6_3App19process_v1_proposals1_0Ba_
FN:397,_RNCNvMs_NtNtCsdBQVr9DQLnV_11payjoin_cli3app2v1NtB6_3App19process_v1_proposals2_0Ba_
FN:402,_RNCNvMs_NtNtCsdBQVr9DQLnV_11payjoin_cli3app2v1NtB6_3App19process_v1_proposals3_0Ba_
FN:410,_RNCNvMs_NtNtCsdBQVr9DQLnV_11payjoin_cli3app2v1NtB6_3App19process_v1_proposals4_0Ba_
FN:375,_RNCNvMs_NtNtCsdBQVr9DQLnV_11payjoin_cli3app2v1NtB6_3App19process_v1_proposals_0Ba_
FN:424,_RNCNvNtNtCsdBQVr9DQLnV_11payjoin_cli3app2v123try_contributing_inputs0B7_
FN:37,_RNCNvXNtNtCsdBQVr9DQLnV_11payjoin_cli3app2v1NtB4_7HeadersNtNtNtNtCsgunIiAgq1He_7payjoin4core7receive2v17Headers10get_header0B8_
FN:288,_RNvMs_NtNtCsdBQVr9DQLnV_11payjoin_cli3app2v1NtB4_3App16handle_get_bip21
FN:210,_RNvMs_NtNtCsdBQVr9DQLnV_11payjoin_cli3app2v1NtB4_3App17init_tls_acceptor
FN:154,_RNvMs_NtNtCsdBQVr9DQLnV_11payjoin_cli3app2v1NtB4_3App17start_http_server
FN:245,_RNvMs_NtNtCsdBQVr9DQLnV_11payjoin_cli3app2v1NtB4_3App18handle_web_request
FN:318,_RNvMs_NtNtCsdBQVr9DQLnV_11payjoin_cli3app2v1NtB4_3App19handle_payjoin_post
FN:357,_RNvMs_NtNtCsdBQVr9DQLnV_11payjoin_cli3app2v1NtB4_3App19process_v1_proposal
FN:419,_RNvNtNtCsdBQVr9DQLnV_11payjoin_cli3app2v123try_contributing_inputs
FN:36,_RNvXNtNtCsdBQVr9DQLnV_11payjoin_cli3app2v1NtB2_7HeadersNtNtNtNtCsgunIiAgq1He_7payjoin4core7receive2v17Headers10get_header
FN:65,_RNvXs2_NtNtCsdBQVr9DQLnV_11payjoin_cli3app2v1NtB5_3AppNtB7_3App12send_payjoin
FN:118,_RNvXs2_NtNtCsdBQVr9DQLnV_11payjoin_cli3app2v1NtB5_3AppNtB7_3App15receive_payjoin
FN:130,_RNvXs2_NtNtCsdBQVr9DQLnV_11payjoin_cli3app2v1NtB5_3AppNtB7_3App15resume_payjoins
FN:51,_RNvXs2_NtNtCsdBQVr9DQLnV_11payjoin_cli3app2v1NtB5_3AppNtB7_3App3new
FN:63,_RNvXs2_NtNtCsdBQVr9DQLnV_11payjoin_cli3app2v1NtB5_3AppNtB7_3App6wallet
FN:135,_RNvXs2_NtNtCsdBQVr9DQLnV_11payjoin_cli3app2v1NtB5_3AppNtB7_3App7history
FN:141,_RINvMs_NtNtCscUu8AqYtVTR_11payjoin_cli3app2v1NtB5_3App21construct_payjoin_uriReEB9_
FN:444,_RINvNtNtCscUu8AqYtVTR_11payjoin_cli3app2v14fullNtNtCs3JibHiv1CSv_5alloc6string6StringEB6_
FN:444,_RINvNtNtCscUu8AqYtVTR_11payjoin_cli3app2v14fullReEB6_
FN:201,_RNCNCNCNvMs_NtNtCscUu8AqYtVTR_11payjoin_cli3app2v1NtBa_3App17start_http_server000Be_
FN:188,_RNCNCNvMs_NtNtCscUu8AqYtVTR_11payjoin_cli3app2v1NtB8_3App17start_http_server00Bc_
FN:258,_RNCNCNvMs_NtNtCscUu8AqYtVTR_11payjoin_cli3app2v1NtB8_3App18handle_web_request00Bc_
FN:271,_RNCNCNvMs_NtNtCscUu8AqYtVTR_11payjoin_cli3app2v1NtB8_3App18handle_web_request0s1_0Bc_
FN:262,_RNCNCNvMs_NtNtCscUu8AqYtVTR_11payjoin_cli3app2v1NtB8_3App18handle_web_request0s_0Bc_
FN:328,_RNCNCNvMs_NtNtCscUu8AqYtVTR_11payjoin_cli3app2v1NtB8_3App19handle_payjoin_post00Bc_
FN:340,_RNCNCNvMs_NtNtCscUu8AqYtVTR_11payjoin_cli3app2v1NtB8_3App19handle_payjoin_post0s0_0Bc_
FN:329,_RNCNCNvMs_NtNtCscUu8AqYtVTR_11payjoin_cli3app2v1NtB8_3App19handle_payjoin_post0s_0Bc_
FN:367,_RNCNCNvMs_NtNtCscUu8AqYtVTR_11payjoin_cli3app2v1NtB8_3App19process_v1_proposal00Bc_
FN:389,_RNCNCNvMs_NtNtCscUu8AqYtVTR_11payjoin_cli3app2v1NtB8_3App19process_v1_proposals1_00Bc_
FN:413,_RNCNCNvMs_NtNtCscUu8AqYtVTR_11payjoin_cli3app2v1NtB8_3App19process_v1_proposals4_00Bc_
FN:376,_RNCNCNvMs_NtNtCscUu8AqYtVTR_11payjoin_cli3app2v1NtB8_3App19process_v1_proposals_00Bc_
FN:67,_RNCNCNvXs2_NtNtCscUu8AqYtVTR_11payjoin_cli3app2v1NtB9_3AppNtBb_3App12send_payjoin00Bd_
FN:70,_RNCNCNvXs2_NtNtCscUu8AqYtVTR_11payjoin_cli3app2v1NtB9_3AppNtBb_3App12send_payjoin0s0_0Bd_
FN:87,_RNCNCNvXs2_NtNtCscUu8AqYtVTR_11payjoin_cli3app2v1NtB9_3AppNtBb_3App12send_payjoin0s3_0Bd_
FN:98,_RNCNCNvXs2_NtNtCscUu8AqYtVTR_11payjoin_cli3app2v1NtB9_3AppNtBb_3App12send_payjoin0s4_0Bd_
FN:99,_RNCNCNvXs2_NtNtCscUu8AqYtVTR_11payjoin_cli3app2v1NtB9_3AppNtBb_3App12send_payjoin0s5_0Bd_
FN:108,_RNCNCNvXs2_NtNtCscUu8AqYtVTR_11payjoin_cli3app2v1NtB9_3AppNtBb_3App12send_payjoin0s6_0Bd_
FN:69,_RNCNCNvXs2_NtNtCscUu8AqYtVTR_11payjoin_cli3app2v1NtB9_3AppNtBb_3App12send_payjoin0s_0Bd_
FN:292,_RNCNvMs_NtNtCscUu8AqYtVTR_11payjoin_cli3app2v1NtB6_3App16handle_get_bip210Ba_
FN:308,_RNCNvMs_NtNtCscUu8AqYtVTR_11payjoin_cli3app2v1NtB6_3App16handle_get_bip21s0_0Ba_
FN:295,_RNCNvMs_NtNtCscUu8AqYtVTR_11payjoin_cli3app2v1NtB6_3App16handle_get_bip21s_0Ba_
FN:224,_RNCNvMs_NtNtCscUu8AqYtVTR_11payjoin_cli3app2v1NtB6_3App17init_tls_acceptor0Ba_
FN:237,_RNCNvMs_NtNtCscUu8AqYtVTR_11payjoin_cli3app2v1NtB6_3App17init_tls_acceptors_0Ba_
FN:154,_RNCNvMs_NtNtCscUu8AqYtVTR_11payjoin_cli3app2v1NtB6_3App17start_http_server0Ba_
FN:248,_RNCNvMs_NtNtCscUu8AqYtVTR_11payjoin_cli3app2v1NtB6_3App18handle_web_request0Ba_
FN:321,_RNCNvMs_NtNtCscUu8AqYtVTR_11payjoin_cli3app2v1NtB6_3App19handle_payjoin_post0Ba_
FN:364,_RNCNvMs_NtNtCscUu8AqYtVTR_11payjoin_cli3app2v1NtB6_3App19process_v1_proposal0Ba_
FN:381,_RNCNvMs_NtNtCscUu8AqYtVTR_11payjoin_cli3app2v1NtB6_3App19process_v1_proposals0_0Ba_
FN:386,_RNCNvMs_NtNtCscUu8AqYtVTR_11payjoin_cli3app2v1NtB6_3App19process_v1_proposals1_0Ba_
FN:397,_RNCNvMs_NtNtCscUu8AqYtVTR_11payjoin_cli3app2v1NtB6_3App19process_v1_proposals2_0Ba_
FN:402,_RNCNvMs_NtNtCscUu8AqYtVTR_11payjoin_cli3app2v1NtB6_3App19process_v1_proposals3_0Ba_
FN:410,_RNCNvMs_NtNtCscUu8AqYtVTR_11payjoin_cli3app2v1NtB6_3App19process_v1_proposals4_0Ba_
FN:375,_RNCNvMs_NtNtCscUu8AqYtVTR_11payjoin_cli3app2v1NtB6_3App19process_v1_proposals_0Ba_
FN:424,_RNCNvNtNtCscUu8AqYtVTR_11payjoin_cli3app2v123try_contributing_inputs0B7_
FN:37,_RNCNvXNtNtCscUu8AqYtVTR_11payjoin_cli3app2v1NtB4_7HeadersNtNtNtNtCs9T6n9XKryM2_7payjoin4core7receive2v17Headers10get_header0B8_
FN:288,_RNvMs_NtNtCscUu8AqYtVTR_11payjoin_cli3app2v1NtB4_3App16handle_get_bip21
FN:210,_RNvMs_NtNtCscUu8AqYtVTR_11payjoin_cli3app2v1NtB4_3App17init_tls_acceptor
FN:154,_RNvMs_NtNtCscUu8AqYtVTR_11payjoin_cli3app2v1NtB4_3App17start_http_server
FN:245,_RNvMs_NtNtCscUu8AqYtVTR_11payjoin_cli3app2v1NtB4_3App18handle_web_request
FN:318,_RNvMs_NtNtCscUu8AqYtVTR_11payjoin_cli3app2v1NtB4_3App19handle_payjoin_post
FN:357,_RNvMs_NtNtCscUu8AqYtVTR_11payjoin_cli3app2v1NtB4_3App19process_v1_proposal
FN:419,_RNvNtNtCscUu8AqYtVTR_11payjoin_cli3app2v123try_contributing_inputs
FN:36,_RNvXNtNtCscUu8AqYtVTR_11payjoin_cli3app2v1NtB2_7HeadersNtNtNtNtCs9T6n9XKryM2_7payjoin4core7receive2v17Headers10get_header
FN:65,_RNvXs2_NtNtCscUu8AqYtVTR_11payjoin_cli3app2v1NtB5_3AppNtB7_3App12send_payjoin
FN:118,_RNvXs2_NtNtCscUu8AqYtVTR_11payjoin_cli3app2v1NtB5_3AppNtB7_3App15receive_payjoin
FN:51,_RNvXs2_NtNtCscUu8AqYtVTR_11payjoin_cli3app2v1NtB5_3AppNtB7_3App3new
FN:63,_RNvXs2_NtNtCscUu8AqYtVTR_11payjoin_cli3app2v1NtB5_3AppNtB7_3App6wallet
FN:141,_RINvMs_NtNtCs6sB0kYsNxnG_11payjoin_cli3app2v1NtB5_3App21construct_payjoin_uriReEB9_
FN:444,_RINvNtNtCs6sB0kYsNxnG_11payjoin_cli3app2v14fullNtNtCs3JibHiv1CSv_5alloc6string6StringEB6_
FN:444,_RINvNtNtCs6sB0kYsNxnG_11payjoin_cli3app2v14fullReEB6_
FN:201,_RNCNCNCNvMs_NtNtCs6sB0kYsNxnG_11payjoin_cli3app2v1NtBa_3App17start_http_server000Be_
FN:188,_RNCNCNvMs_NtNtCs6sB0kYsNxnG_11payjoin_cli3app2v1NtB8_3App17start_http_server00Bc_
FN:258,_RNCNCNvMs_NtNtCs6sB0kYsNxnG_11payjoin_cli3app2v1NtB8_3App18handle_web_request00Bc_
FN:271,_RNCNCNvMs_NtNtCs6sB0kYsNxnG_11payjoin_cli3app2v1NtB8_3App18handle_web_request0s1_0Bc_
FN:262,_RNCNCNvMs_NtNtCs6sB0kYsNxnG_11payjoin_cli3app2v1NtB8_3App18handle_web_request0s_0Bc_
FN:328,_RNCNCNvMs_NtNtCs6sB0kYsNxnG_11payjoin_cli3app2v1NtB8_3App19handle_payjoin_post00Bc_
FN:340,_RNCNCNvMs_NtNtCs6sB0kYsNxnG_11payjoin_cli3app2v1NtB8_3App19handle_payjoin_post0s0_0Bc_
FN:329,_RNCNCNvMs_NtNtCs6sB0kYsNxnG_11payjoin_cli3app2v1NtB8_3App19handle_payjoin_post0s_0Bc_
FN:367,_RNCNCNvMs_NtNtCs6sB0kYsNxnG_11payjoin_cli3app2v1NtB8_3App19process_v1_proposal00Bc_
FN:389,_RNCNCNvMs_NtNtCs6sB0kYsNxnG_11payjoin_cli3app2v1NtB8_3App19process_v1_proposals1_00Bc_
FN:413,_RNCNCNvMs_NtNtCs6sB0kYsNxnG_11payjoin_cli3app2v1NtB8_3App19process_v1_proposals4_00Bc_
FN:376,_RNCNCNvMs_NtNtCs6sB0kYsNxnG_11payjoin_cli3app2v1NtB8_3App19process_v1_proposals_00Bc_
FN:67,_RNCNCNvXs2_NtNtCs6sB0kYsNxnG_11payjoin_cli3app2v1NtB9_3AppNtBb_3App12send_payjoin00Bd_
FN:70,_RNCNCNvXs2_NtNtCs6sB0kYsNxnG_11payjoin_cli3app2v1NtB9_3AppNtBb_3App12send_payjoin0s0_0Bd_
FN:87,_RNCNCNvXs2_NtNtCs6sB0kYsNxnG_11payjoin_cli3app2v1NtB9_3AppNtBb_3App12send_payjoin0s3_0Bd_
FN:98,_RNCNCNvXs2_NtNtCs6sB0kYsNxnG_11payjoin_cli3app2v1NtB9_3AppNtBb_3App12send_payjoin0s4_0Bd_
FN:99,_RNCNCNvXs2_NtNtCs6sB0kYsNxnG_11payjoin_cli3app2v1NtB9_3AppNtBb_3App12send_payjoin0s5_0Bd_
FN:108,_RNCNCNvXs2_NtNtCs6sB0kYsNxnG_11payjoin_cli3app2v1NtB9_3AppNtBb_3App12send_payjoin0s6_0Bd_
FN:69,_RNCNCNvXs2_NtNtCs6sB0kYsNxnG_11payjoin_cli3app2v1NtB9_3AppNtBb_3App12send_payjoin0s_0Bd_
FN:292,_RNCNvMs_NtNtCs6sB0kYsNxnG_11payjoin_cli3app2v1NtB6_3App16handle_get_bip210Ba_
FN:308,_RNCNvMs_NtNtCs6sB0kYsNxnG_11payjoin_cli3app2v1NtB6_3App16handle_get_bip21s0_0Ba_
FN:295,_RNCNvMs_NtNtCs6sB0kYsNxnG_11payjoin_cli3app2v1NtB6_3App16handle_get_bip21s_0Ba_
FN:224,_RNCNvMs_NtNtCs6sB0kYsNxnG_11payjoin_cli3app2v1NtB6_3App17init_tls_acceptor0Ba_
FN:237,_RNCNvMs_NtNtCs6sB0kYsNxnG_11payjoin_cli3app2v1NtB6_3App17init_tls_acceptors_0Ba_
FN:154,_RNCNvMs_NtNtCs6sB0kYsNxnG_11payjoin_cli3app2v1NtB6_3App17start_http_server0Ba_
FN:248,_RNCNvMs_NtNtCs6sB0kYsNxnG_11payjoin_cli3app2v1NtB6_3App18handle_web_request0Ba_
FN:321,_RNCNvMs_NtNtCs6sB0kYsNxnG_11payjoin_cli3app2v1NtB6_3App19handle_payjoin_post0Ba_
FN:364,_RNCNvMs_NtNtCs6sB0kYsNxnG_11payjoin_cli3app2v1NtB6_3App19process_v1_proposal0Ba_
FN:381,_RNCNvMs_NtNtCs6sB0kYsNxnG_11payjoin_cli3app2v1NtB6_3App19process_v1_proposals0_0Ba_
FN:386,_RNCNvMs_NtNtCs6sB0kYsNxnG_11payjoin_cli3app2v1NtB6_3App19process_v1_proposals1_0Ba_
FN:397,_RNCNvMs_NtNtCs6sB0kYsNxnG_11payjoin_cli3app2v1NtB6_3App19process_v1_proposals2_0Ba_
FN:402,_RNCNvMs_NtNtCs6sB0kYsNxnG_11payjoin_cli3app2v1NtB6_3App19process_v1_proposals3_0Ba_
FN:410,_RNCNvMs_NtNtCs6sB0kYsNxnG_11payjoin_cli3app2v1NtB6_3App19process_v1_proposals4_0Ba_
FN:375,_RNCNvMs_NtNtCs6sB0kYsNxnG_11payjoin_cli3app2v1NtB6_3App19process_v1_proposals_0Ba_
FN:424,_RNCNvNtNtCs6sB0kYsNxnG_11payjoin_cli3app2v123try_contributing_inputs0B7_
FN:37,_RNCNvXNtNtCs6sB0kYsNxnG_11payjoin_cli3app2v1NtB4_7HeadersNtNtNtNtCsgunIiAgq1He_7payjoin4core7receive2v17Headers10get_header0B8_
FN:288,_RNvMs_NtNtCs6sB0kYsNxnG_11payjoin_cli3app2v1NtB4_3App16handle_get_bip21
FN:210,_RNvMs_NtNtCs6sB0kYsNxnG_11payjoin_cli3app2v1NtB4_3App17init_tls_acceptor
FN:154,_RNvMs_NtNtCs6sB0kYsNxnG_11payjoin_cli3app2v1NtB4_3App17start_http_server
FN:245,_RNvMs_NtNtCs6sB0kYsNxnG_11payjoin_cli3app2v1NtB4_3App18handle_web_request
FN:318,_RNvMs_NtNtCs6sB0kYsNxnG_11payjoin_cli3app2v1NtB4_3App19handle_payjoin_post
FN:357,_RNvMs_NtNtCs6sB0kYsNxnG_11payjoin_cli3app2v1NtB4_3App19process_v1_proposal
FN:419,_RNvNtNtCs6sB0kYsNxnG_11payjoin_cli3app2v123try_contributing_inputs
FN:36,_RNvXNtNtCs6sB0kYsNxnG_11payjoin_cli3app2v1NtB2_7HeadersNtNtNtNtCsgunIiAgq1He_7payjoin4core7receive2v17Headers10get_header
FN:65,_RNvXs2_NtNtCs6sB0kYsNxnG_11payjoin_cli3app2v1NtB5_3AppNtB7_3App12send_payjoin
FN:118,_RNvXs2_NtNtCs6sB0kYsNxnG_11payjoin_cli3app2v1NtB5_3AppNtB7_3App15receive_payjoin
FN:130,_RNvXs2_NtNtCs6sB0kYsNxnG_11payjoin_cli3app2v1NtB5_3AppNtB7_3App15resume_payjoins
FN:51,_RNvXs2_NtNtCs6sB0kYsNxnG_11payjoin_cli3app2v1NtB5_3AppNtB7_3App3new
FN:63,_RNvXs2_NtNtCs6sB0kYsNxnG_11payjoin_cli3app2v1NtB5_3AppNtB7_3App6wallet
FN:135,_RNvXs2_NtNtCs6sB0kYsNxnG_11payjoin_cli3app2v1NtB5_3AppNtB7_3App7history
FNDA:0,_RINvMs_NtNtCsdNOva7tMRqO_11payjoin_cli3app2v1NtB5_3App21construct_payjoin_uripEB9_
FNDA:0,_RINvNtNtCsdNOva7tMRqO_11payjoin_cli3app2v14fullpEB6_
FNDA:0,_RNCNCNCNvMs_NtNtCsdNOva7tMRqO_11payjoin_cli3app2v1NtBa_3App17start_http_server000Be_
FNDA:0,_RNCNCNvMs_NtNtCsdNOva7tMRqO_11payjoin_cli3app2v1NtB8_3App17start_http_server00Bc_
FNDA:0,_RNCNCNvMs_NtNtCsdNOva7tMRqO_11payjoin_cli3app2v1NtB8_3App18handle_web_request00Bc_
FNDA:0,_RNCNCNvMs_NtNtCsdNOva7tMRqO_11payjoin_cli3app2v1NtB8_3App18handle_web_request0s1_0Bc_
FNDA:0,_RNCNCNvMs_NtNtCsdNOva7tMRqO_11payjoin_cli3app2v1NtB8_3App18handle_web_request0s_0Bc_
FNDA:0,_RNCNCNvMs_NtNtCsdNOva7tMRqO_11payjoin_cli3app2v1NtB8_3App19handle_payjoin_post00Bc_
FNDA:0,_RNCNCNvMs_NtNtCsdNOva7tMRqO_11payjoin_cli3app2v1NtB8_3App19handle_payjoin_post0s0_0Bc_
FNDA:0,_RNCNCNvMs_NtNtCsdNOva7tMRqO_11payjoin_cli3app2v1NtB8_3App19handle_payjoin_post0s_0Bc_
FNDA:0,_RNCNCNvMs_NtNtCsdNOva7tMRqO_11payjoin_cli3app2v1NtB8_3App19process_v1_proposal00Bc_
FNDA:0,_RNCNCNvMs_NtNtCsdNOva7tMRqO_11payjoin_cli3app2v1NtB8_3App19process_v1_proposals1_00Bc_
FNDA:0,_RNCNCNvMs_NtNtCsdNOva7tMRqO_11payjoin_cli3app2v1NtB8_3App19process_v1_proposals4_00Bc_
FNDA:0,_RNCNCNvMs_NtNtCsdNOva7tMRqO_11payjoin_cli3app2v1NtB8_3App19process_v1_proposals_00Bc_
FNDA:0,_RNCNCNvXs2_NtNtCsdNOva7tMRqO_11payjoin_cli3app2v1NtB9_3AppNtBb_3App12send_payjoin00Bd_
FNDA:0,_RNCNCNvXs2_NtNtCsdNOva7tMRqO_11payjoin_cli3app2v1NtB9_3AppNtBb_3App12send_payjoin0s0_0Bd_
FNDA:0,_RNCNCNvXs2_NtNtCsdNOva7tMRqO_11payjoin_cli3app2v1NtB9_3AppNtBb_3App12send_payjoin0s3_0Bd_
FNDA:0,_RNCNCNvXs2_NtNtCsdNOva7tMRqO_11payjoin_cli3app2v1NtB9_3AppNtBb_3App12send_payjoin0s4_0Bd_
FNDA:0,_RNCNCNvXs2_NtNtCsdNOva7tMRqO_11payjoin_cli3app2v1NtB9_3AppNtBb_3App12send_payjoin0s5_0Bd_
FNDA:0,_RNCNCNvXs2_NtNtCsdNOva7tMRqO_11payjoin_cli3app2v1NtB9_3AppNtBb_3App12send_payjoin0s6_0Bd_
FNDA:0,_RNCNCNvXs2_NtNtCsdNOva7tMRqO_11payjoin_cli3app2v1NtB9_3AppNtBb_3App12send_payjoin0s_0Bd_
FNDA:0,_RNCNvMs_NtNtCsdNOva7tMRqO_11payjoin_cli3app2v1NtB6_3App16handle_get_bip210Ba_
FNDA:0,_RNCNvMs_NtNtCsdNOva7tMRqO_11payjoin_cli3app2v1NtB6_3App16handle_get_bip21s0_0Ba_
FNDA:0,_RNCNvMs_NtNtCsdNOva7tMRqO_11payjoin_cli3app2v1NtB6_3App16handle_get_bip21s_0Ba_
FNDA:0,_RNCNvMs_NtNtCsdNOva7tMRqO_11payjoin_cli3app2v1NtB6_3App17init_tls_acceptor0Ba_
FNDA:0,_RNCNvMs_NtNtCsdNOva7tMRqO_11payjoin_cli3app2v1NtB6_3App17init_tls_acceptors_0Ba_
FNDA:0,_RNCNvMs_NtNtCsdNOva7tMRqO_11payjoin_cli3app2v1NtB6_3App17start_http_server0Ba_
FNDA:0,_RNCNvMs_NtNtCsdNOva7tMRqO_11payjoin_cli3app2v1NtB6_3App18handle_web_request0Ba_
FNDA:0,_RNCNvMs_NtNtCsdNOva7tMRqO_11payjoin_cli3app2v1NtB6_3App19handle_payjoin_post0Ba_
FNDA:0,_RNCNvMs_NtNtCsdNOva7tMRqO_11payjoin_cli3app2v1NtB6_3App19process_v1_proposal0Ba_
FNDA:0,_RNCNvMs_NtNtCsdNOva7tMRqO_11payjoin_cli3app2v1NtB6_3App19process_v1_proposals0_0Ba_
FNDA:0,_RNCNvMs_NtNtCsdNOva7tMRqO_11payjoin_cli3app2v1NtB6_3App19process_v1_proposals1_0Ba_
FNDA:0,_RNCNvMs_NtNtCsdNOva7tMRqO_11payjoin_cli3app2v1NtB6_3App19process_v1_proposals2_0Ba_
FNDA:0,_RNCNvMs_NtNtCsdNOva7tMRqO_11payjoin_cli3app2v1NtB6_3App19process_v1_proposals3_0Ba_
FNDA:0,_RNCNvMs_NtNtCsdNOva7tMRqO_11payjoin_cli3app2v1NtB6_3App19process_v1_proposals4_0Ba_
FNDA:0,_RNCNvMs_NtNtCsdNOva7tMRqO_11payjoin_cli3app2v1NtB6_3App19process_v1_proposals_0Ba_
FNDA:0,_RNCNvNtNtCsdNOva7tMRqO_11payjoin_cli3app2v123try_contributing_inputs0B7_
FNDA:0,_RNCNvXNtNtCsdNOva7tMRqO_11payjoin_cli3app2v1NtB4_7HeadersNtNtNtNtCs9T6n9XKryM2_7payjoin4core7receive2v17Headers10get_header0B8_
FNDA:0,_RNvMs_NtNtCsdNOva7tMRqO_11payjoin_cli3app2v1NtB4_3App16handle_get_bip21
FNDA:0,_RNvMs_NtNtCsdNOva7tMRqO_11payjoin_cli3app2v1NtB4_3App17init_tls_acceptor
FNDA:0,_RNvMs_NtNtCsdNOva7tMRqO_11payjoin_cli3app2v1NtB4_3App17start_http_server
FNDA:0,_RNvMs_NtNtCsdNOva7tMRqO_11payjoin_cli3app2v1NtB4_3App18handle_web_request
FNDA:0,_RNvMs_NtNtCsdNOva7tMRqO_11payjoin_cli3app2v1NtB4_3App19handle_payjoin_post
FNDA:0,_RNvMs_NtNtCsdNOva7tMRqO_11payjoin_cli3app2v1NtB4_3App19process_v1_proposal
FNDA:0,_RNvNtNtCsdNOva7tMRqO_11payjoin_cli3app2v123try_contributing_inputs
FNDA:0,_RNvXNtNtCsdNOva7tMRqO_11payjoin_cli3app2v1NtB2_7HeadersNtNtNtNtCs9T6n9XKryM2_7payjoin4core7receive2v17Headers10get_header
FNDA:0,_RNvXs2_NtNtCsdNOva7tMRqO_11payjoin_cli3app2v1NtB5_3AppNtB7_3App12send_payjoin
FNDA:0,_RNvXs2_NtNtCsdNOva7tMRqO_11payjoin_cli3app2v1NtB5_3AppNtB7_3App15receive_payjoin
FNDA:0,_RNvXs2_NtNtCsdNOva7tMRqO_11payjoin_cli3app2v1NtB5_3AppNtB7_3App3new
FNDA:0,_RNvXs2_NtNtCsdNOva7tMRqO_11payjoin_cli3app2v1NtB5_3AppNtB7_3App6wallet
FNDA:0,_RINvMs_NtNtCsgibgrjNWKaG_11payjoin_cli3app2v1NtB5_3App21construct_payjoin_uripEB9_
FNDA:0,_RINvNtNtCsgibgrjNWKaG_11payjoin_cli3app2v14fullpEB6_
FNDA:0,_RNCNCNCNvMs_NtNtCsgibgrjNWKaG_11payjoin_cli3app2v1NtBa_3App17start_http_server000Be_
FNDA:0,_RNCNCNvMs_NtNtCsgibgrjNWKaG_11payjoin_cli3app2v1NtB8_3App17start_http_server00Bc_
FNDA:0,_RNCNCNvMs_NtNtCsgibgrjNWKaG_11payjoin_cli3app2v1NtB8_3App18handle_web_request00Bc_
FNDA:0,_RNCNCNvMs_NtNtCsgibgrjNWKaG_11payjoin_cli3app2v1NtB8_3App18handle_web_request0s1_0Bc_
FNDA:0,_RNCNCNvMs_NtNtCsgibgrjNWKaG_11payjoin_cli3app2v1NtB8_3App18handle_web_request0s_0Bc_
FNDA:0,_RNCNCNvMs_NtNtCsgibgrjNWKaG_11payjoin_cli3app2v1NtB8_3App19handle_payjoin_post00Bc_
FNDA:0,_RNCNCNvMs_NtNtCsgibgrjNWKaG_11payjoin_cli3app2v1NtB8_3App19handle_payjoin_post0s0_0Bc_
FNDA:0,_RNCNCNvMs_NtNtCsgibgrjNWKaG_11payjoin_cli3app2v1NtB8_3App19handle_payjoin_post0s_0Bc_
FNDA:0,_RNCNCNvMs_NtNtCsgibgrjNWKaG_11payjoin_cli3app2v1NtB8_3App19process_v1_proposal00Bc_
FNDA:0,_RNCNCNvMs_NtNtCsgibgrjNWKaG_11payjoin_cli3app2v1NtB8_3App19process_v1_proposals1_00Bc_
FNDA:0,_RNCNCNvMs_NtNtCsgibgrjNWKaG_11payjoin_cli3app2v1NtB8_3App19process_v1_proposals4_00Bc_
FNDA:0,_RNCNCNvMs_NtNtCsgibgrjNWKaG_11payjoin_cli3app2v1NtB8_3App19process_v1_proposals_00Bc_
FNDA:0,_RNCNCNvXs2_NtNtCsgibgrjNWKaG_11payjoin_cli3app2v1NtB9_3AppNtBb_3App12send_payjoin00Bd_
FNDA:0,_RNCNCNvXs2_NtNtCsgibgrjNWKaG_11payjoin_cli3app2v1NtB9_3AppNtBb_3App12send_payjoin0s0_0Bd_
FNDA:0,_RNCNCNvXs2_NtNtCsgibgrjNWKaG_11payjoin_cli3app2v1NtB9_3AppNtBb_3App12send_payjoin0s3_0Bd_
FNDA:0,_RNCNCNvXs2_NtNtCsgibgrjNWKaG_11payjoin_cli3app2v1NtB9_3AppNtBb_3App12send_payjoin0s4_0Bd_
FNDA:0,_RNCNCNvXs2_NtNtCsgibgrjNWKaG_11payjoin_cli3app2v1NtB9_3AppNtBb_3App12send_payjoin0s5_0Bd_
FNDA:0,_RNCNCNvXs2_NtNtCsgibgrjNWKaG_11payjoin_cli3app2v1NtB9_3AppNtBb_3App12send_payjoin0s6_0Bd_
FNDA:0,_RNCNCNvXs2_NtNtCsgibgrjNWKaG_11payjoin_cli3app2v1NtB9_3AppNtBb_3App12send_payjoin0s_0Bd_
FNDA:0,_RNCNvMs_NtNtCsgibgrjNWKaG_11payjoin_cli3app2v1NtB6_3App16handle_get_bip210Ba_
FNDA:0,_RNCNvMs_NtNtCsgibgrjNWKaG_11payjoin_cli3app2v1NtB6_3App16handle_get_bip21s0_0Ba_
FNDA:0,_RNCNvMs_NtNtCsgibgrjNWKaG_11payjoin_cli3app2v1NtB6_3App16handle_get_bip21s_0Ba_
FNDA:0,_RNCNvMs_NtNtCsgibgrjNWKaG_11payjoin_cli3app2v1NtB6_3App17init_tls_acceptor0Ba_
FNDA:0,_RNCNvMs_NtNtCsgibgrjNWKaG_11payjoin_cli3app2v1NtB6_3App17init_tls_acceptors_0Ba_
FNDA:0,_RNCNvMs_NtNtCsgibgrjNWKaG_11payjoin_cli3app2v1NtB6_3App17start_http_server0Ba_
FNDA:0,_RNCNvMs_NtNtCsgibgrjNWKaG_11payjoin_cli3app2v1NtB6_3App18handle_web_request0Ba_
FNDA:0,_RNCNvMs_NtNtCsgibgrjNWKaG_11payjoin_cli3app2v1NtB6_3App19handle_payjoin_post0Ba_
FNDA:0,_RNCNvMs_NtNtCsgibgrjNWKaG_11payjoin_cli3app2v1NtB6_3App19process_v1_proposal0Ba_
FNDA:0,_RNCNvMs_NtNtCsgibgrjNWKaG_11payjoin_cli3app2v1NtB6_3App19process_v1_proposals0_0Ba_
FNDA:0,_RNCNvMs_NtNtCsgibgrjNWKaG_11payjoin_cli3app2v1NtB6_3App19process_v1_proposals1_0Ba_
FNDA:0,_RNCNvMs_NtNtCsgibgrjNWKaG_11payjoin_cli3app2v1NtB6_3App19process_v1_proposals2_0Ba_
FNDA:0,_RNCNvMs_NtNtCsgibgrjNWKaG_11payjoin_cli3app2v1NtB6_3App19process_v1_proposals3_0Ba_
FNDA:0,_RNCNvMs_NtNtCsgibgrjNWKaG_11payjoin_cli3app2v1NtB6_3App19process_v1_proposals4_0Ba_
FNDA:0,_RNCNvMs_NtNtCsgibgrjNWKaG_11payjoin_cli3app2v1NtB6_3App19process_v1_proposals_0Ba_
FNDA:0,_RNCNvNtNtCsgibgrjNWKaG_11payjoin_cli3app2v123try_contributing_inputs0B7_
FNDA:0,_RNCNvXNtNtCsgibgrjNWKaG_11payjoin_cli3app2v1NtB4_7HeadersNtNtNtNtCs9T6n9XKryM2_7payjoin4core7receive2v17Headers10get_header0B8_
FNDA:0,_RNvMs_NtNtCsgibgrjNWKaG_11payjoin_cli3app2v1NtB4_3App16handle_get_bip21
FNDA:0,_RNvMs_NtNtCsgibgrjNWKaG_11payjoin_cli3app2v1NtB4_3App17init_tls_acceptor
FNDA:0,_RNvMs_NtNtCsgibgrjNWKaG_11payjoin_cli3app2v1NtB4_3App17start_http_server
FNDA:0,_RNvMs_NtNtCsgibgrjNWKaG_11payjoin_cli3app2v1NtB4_3App18handle_web_request
FNDA:0,_RNvMs_NtNtCsgibgrjNWKaG_11payjoin_cli3app2v1NtB4_3App19handle_payjoin_post
FNDA:0,_RNvMs_NtNtCsgibgrjNWKaG_11payjoin_cli3app2v1NtB4_3App19process_v1_proposal
FNDA:0,_RNvNtNtCsgibgrjNWKaG_11payjoin_cli3app2v123try_contributing_inputs
FNDA:0,_RNvXNtNtCsgibgrjNWKaG_11payjoin_cli3app2v1NtB2_7HeadersNtNtNtNtCs9T6n9XKryM2_7payjoin4core7receive2v17Headers10get_header
FNDA:0,_RNvXs2_NtNtCsgibgrjNWKaG_11payjoin_cli3app2v1NtB5_3AppNtB7_3App12send_payjoin
FNDA:0,_RNvXs2_NtNtCsgibgrjNWKaG_11payjoin_cli3app2v1NtB5_3AppNtB7_3App15receive_payjoin
FNDA:0,_RNvXs2_NtNtCsgibgrjNWKaG_11payjoin_cli3app2v1NtB5_3AppNtB7_3App3new
FNDA:0,_RNvXs2_NtNtCsgibgrjNWKaG_11payjoin_cli3app2v1NtB5_3AppNtB7_3App6wallet
FNDA:0,_RNvMs_NtNtCsb4baREu157E_11payjoin_cli3app2v1NtB4_3App16handle_get_bip21
FNDA:0,_RNvMs_NtNtCsb4baREu157E_11payjoin_cli3app2v1NtB4_3App17init_tls_acceptor
FNDA:0,_RNvMs_NtNtCsb4baREu157E_11payjoin_cli3app2v1NtB4_3App17start_http_server
FNDA:0,_RNvMs_NtNtCsb4baREu157E_11payjoin_cli3app2v1NtB4_3App18handle_web_request
FNDA:0,_RNvMs_NtNtCsb4baREu157E_11payjoin_cli3app2v1NtB4_3App19handle_payjoin_post
FNDA:0,_RNvMs_NtNtCsb4baREu157E_11payjoin_cli3app2v1NtB4_3App19process_v1_proposal
FNDA:0,_RNvNtNtCsb4baREu157E_11payjoin_cli3app2v123try_contributing_inputs
FNDA:0,_RNvXNtNtCsb4baREu157E_11payjoin_cli3app2v1NtB2_7HeadersNtNtNtNtCs9T6n9XKryM2_7payjoin4core7receive2v17Headers10get_header
FNDA:0,_RNvXs2_NtNtCsb4baREu157E_11payjoin_cli3app2v1NtB5_3AppNtB7_3App12send_payjoin
FNDA:0,_RNvXs2_NtNtCsb4baREu157E_11payjoin_cli3app2v1NtB5_3AppNtB7_3App15receive_payjoin
FNDA:0,_RNvXs2_NtNtCsb4baREu157E_11payjoin_cli3app2v1NtB5_3AppNtB7_3App3new
FNDA:0,_RNvXs2_NtNtCsb4baREu157E_11payjoin_cli3app2v1NtB5_3AppNtB7_3App6wallet
FNDA:0,_RINvMs_NtNtCsb4baREu157E_11payjoin_cli3app2v1NtB5_3App21construct_payjoin_uriReEB9_
FNDA:0,_RINvNtNtCsb4baREu157E_11payjoin_cli3app2v14fullNtNtCs3JibHiv1CSv_5alloc6string6StringEB6_
FNDA:0,_RINvNtNtCsb4baREu157E_11payjoin_cli3app2v14fullReEB6_
FNDA:0,_RNCNCNCNvMs_NtNtCsb4baREu157E_11payjoin_cli3app2v1NtBa_3App17start_http_server000Be_
FNDA:0,_RNCNCNvMs_NtNtCsb4baREu157E_11payjoin_cli3app2v1NtB8_3App17start_http_server00Bc_
FNDA:0,_RNCNCNvMs_NtNtCsb4baREu157E_11payjoin_cli3app2v1NtB8_3App18handle_web_request00Bc_
FNDA:0,_RNCNCNvMs_NtNtCsb4baREu157E_11payjoin_cli3app2v1NtB8_3App18handle_web_request0s1_0Bc_
FNDA:0,_RNCNCNvMs_NtNtCsb4baREu157E_11payjoin_cli3app2v1NtB8_3App18handle_web_request0s_0Bc_
FNDA:0,_RNCNCNvMs_NtNtCsb4baREu157E_11payjoin_cli3app2v1NtB8_3App19handle_payjoin_post00Bc_
FNDA:0,_RNCNCNvMs_NtNtCsb4baREu157E_11payjoin_cli3app2v1NtB8_3App19handle_payjoin_post0s0_0Bc_
FNDA:0,_RNCNCNvMs_NtNtCsb4baREu157E_11payjoin_cli3app2v1NtB8_3App19handle_payjoin_post0s_0Bc_
FNDA:0,_RNCNCNvMs_NtNtCsb4baREu157E_11payjoin_cli3app2v1NtB8_3App19process_v1_proposal00Bc_
FNDA:0,_RNCNCNvMs_NtNtCsb4baREu157E_11payjoin_cli3app2v1NtB8_3App19process_v1_proposals1_00Bc_
FNDA:0,_RNCNCNvMs_NtNtCsb4baREu157E_11payjoin_cli3app2v1NtB8_3App19process_v1_proposals4_00Bc_
FNDA:0,_RNCNCNvMs_NtNtCsb4baREu157E_11payjoin_cli3app2v1NtB8_3App19process_v1_proposals_00Bc_
FNDA:0,_RNCNCNvXs2_NtNtCsb4baREu157E_11payjoin_cli3app2v1NtB9_3AppNtBb_3App12send_payjoin00Bd_
FNDA:0,_RNCNCNvXs2_NtNtCsb4baREu157E_11payjoin_cli3app2v1NtB9_3AppNtBb_3App12send_payjoin0s0_0Bd_
FNDA:0,_RNCNCNvXs2_NtNtCsb4baREu157E_11payjoin_cli3app2v1NtB9_3AppNtBb_3App12send_payjoin0s3_0Bd_
FNDA:0,_RNCNCNvXs2_NtNtCsb4baREu157E_11payjoin_cli3app2v1NtB9_3AppNtBb_3App12send_payjoin0s4_0Bd_
FNDA:0,_RNCNCNvXs2_NtNtCsb4baREu157E_11payjoin_cli3app2v1NtB9_3AppNtBb_3App12send_payjoin0s5_0Bd_
FNDA:0,_RNCNCNvXs2_NtNtCsb4baREu157E_11payjoin_cli3app2v1NtB9_3AppNtBb_3App12send_payjoin0s6_0Bd_
FNDA:0,_RNCNCNvXs2_NtNtCsb4baREu157E_11payjoin_cli3app2v1NtB9_3AppNtBb_3App12send_payjoin0s_0Bd_
FNDA:0,_RNCNvMs_NtNtCsb4baREu157E_11payjoin_cli3app2v1NtB6_3App16handle_get_bip210Ba_
FNDA:0,_RNCNvMs_NtNtCsb4baREu157E_11payjoin_cli3app2v1NtB6_3App16handle_get_bip21s0_0Ba_
FNDA:0,_RNCNvMs_NtNtCsb4baREu157E_11payjoin_cli3app2v1NtB6_3App16handle_get_bip21s_0Ba_
FNDA:0,_RNCNvMs_NtNtCsb4baREu157E_11payjoin_cli3app2v1NtB6_3App17init_tls_acceptor0Ba_
FNDA:0,_RNCNvMs_NtNtCsb4baREu157E_11payjoin_cli3app2v1NtB6_3App17init_tls_acceptors_0Ba_
FNDA:0,_RNCNvMs_NtNtCsb4baREu157E_11payjoin_cli3app2v1NtB6_3App17start_http_server0Ba_
FNDA:0,_RNCNvMs_NtNtCsb4baREu157E_11payjoin_cli3app2v1NtB6_3App18handle_web_request0Ba_
FNDA:0,_RNCNvMs_NtNtCsb4baREu157E_11payjoin_cli3app2v1NtB6_3App19handle_payjoin_post0Ba_
FNDA:0,_RNCNvMs_NtNtCsb4baREu157E_11payjoin_cli3app2v1NtB6_3App19process_v1_proposal0Ba_
FNDA:0,_RNCNvMs_NtNtCsb4baREu157E_11payjoin_cli3app2v1NtB6_3App19process_v1_proposals0_0Ba_
FNDA:0,_RNCNvMs_NtNtCsb4baREu157E_11payjoin_cli3app2v1NtB6_3App19process_v1_proposals1_0Ba_
FNDA:0,_RNCNvMs_NtNtCsb4baREu157E_11payjoin_cli3app2v1NtB6_3App19process_v1_proposals2_0Ba_
FNDA:0,_RNCNvMs_NtNtCsb4baREu157E_11payjoin_cli3app2v1NtB6_3App19process_v1_proposals3_0Ba_
FNDA:0,_RNCNvMs_NtNtCsb4baREu157E_11payjoin_cli3app2v1NtB6_3App19process_v1_proposals4_0Ba_
FNDA:0,_RNCNvMs_NtNtCsb4baREu157E_11payjoin_cli3app2v1NtB6_3App19process_v1_proposals_0Ba_
FNDA:0,_RNCNvNtNtCsb4baREu157E_11payjoin_cli3app2v123try_contributing_inputs0B7_
FNDA:0,_RNCNvXNtNtCsb4baREu157E_11payjoin_cli3app2v1NtB4_7HeadersNtNtNtNtCs9T6n9XKryM2_7payjoin4core7receive2v17Headers10get_header0B8_
FNDA:0,_RINvMs_NtNtCsdBQVr9DQLnV_11payjoin_cli3app2v1NtB5_3App21construct_payjoin_uripEB9_
FNDA:0,_RINvNtNtCsdBQVr9DQLnV_11payjoin_cli3app2v14fullpEB6_
FNDA:0,_RNCNCNCNvMs_NtNtCsdBQVr9DQLnV_11payjoin_cli3app2v1NtBa_3App17start_http_server000Be_
FNDA:0,_RNCNCNvMs_NtNtCsdBQVr9DQLnV_11payjoin_cli3app2v1NtB8_3App17start_http_server00Bc_
FNDA:0,_RNCNCNvMs_NtNtCsdBQVr9DQLnV_11payjoin_cli3app2v1NtB8_3App18handle_web_request00Bc_
FNDA:0,_RNCNCNvMs_NtNtCsdBQVr9DQLnV_11payjoin_cli3app2v1NtB8_3App18handle_web_request0s1_0Bc_
FNDA:0,_RNCNCNvMs_NtNtCsdBQVr9DQLnV_11payjoin_cli3app2v1NtB8_3App18handle_web_request0s_0Bc_
FNDA:0,_RNCNCNvMs_NtNtCsdBQVr9DQLnV_11payjoin_cli3app2v1NtB8_3App19handle_payjoin_post00Bc_
FNDA:0,_RNCNCNvMs_NtNtCsdBQVr9DQLnV_11payjoin_cli3app2v1NtB8_3App19handle_payjoin_post0s0_0Bc_
FNDA:0,_RNCNCNvMs_NtNtCsdBQVr9DQLnV_11payjoin_cli3app2v1NtB8_3App19handle_payjoin_post0s_0Bc_
FNDA:0,_RNCNCNvMs_NtNtCsdBQVr9DQLnV_11payjoin_cli3app2v1NtB8_3App19process_v1_proposal00Bc_
FNDA:0,_RNCNCNvMs_NtNtCsdBQVr9DQLnV_11payjoin_cli3app2v1NtB8_3App19process_v1_proposals1_00Bc_
FNDA:0,_RNCNCNvMs_NtNtCsdBQVr9DQLnV_11payjoin_cli3app2v1NtB8_3App19process_v1_proposals4_00Bc_
FNDA:0,_RNCNCNvMs_NtNtCsdBQVr9DQLnV_11payjoin_cli3app2v1NtB8_3App19process_v1_proposals_00Bc_
FNDA:0,_RNCNCNvXs2_NtNtCsdBQVr9DQLnV_11payjoin_cli3app2v1NtB9_3AppNtBb_3App12send_payjoin00Bd_
FNDA:0,_RNCNCNvXs2_NtNtCsdBQVr9DQLnV_11payjoin_cli3app2v1NtB9_3AppNtBb_3App12send_payjoin0s0_0Bd_
FNDA:0,_RNCNCNvXs2_NtNtCsdBQVr9DQLnV_11payjoin_cli3app2v1NtB9_3AppNtBb_3App12send_payjoin0s3_0Bd_
FNDA:0,_RNCNCNvXs2_NtNtCsdBQVr9DQLnV_11payjoin_cli3app2v1NtB9_3AppNtBb_3App12send_payjoin0s4_0Bd_
FNDA:0,_RNCNCNvXs2_NtNtCsdBQVr9DQLnV_11payjoin_cli3app2v1NtB9_3AppNtBb_3App12send_payjoin0s5_0Bd_
FNDA:0,_RNCNCNvXs2_NtNtCsdBQVr9DQLnV_11payjoin_cli3app2v1NtB9_3AppNtBb_3App12send_payjoin0s6_0Bd_
FNDA:0,_RNCNCNvXs2_NtNtCsdBQVr9DQLnV_11payjoin_cli3app2v1NtB9_3AppNtBb_3App12send_payjoin0s_0Bd_
FNDA:0,_RNCNvMs_NtNtCsdBQVr9DQLnV_11payjoin_cli3app2v1NtB6_3App16handle_get_bip210Ba_
FNDA:0,_RNCNvMs_NtNtCsdBQVr9DQLnV_11payjoin_cli3app2v1NtB6_3App16handle_get_bip21s0_0Ba_
FNDA:0,_RNCNvMs_NtNtCsdBQVr9DQLnV_11payjoin_cli3app2v1NtB6_3App16handle_get_bip21s_0Ba_
FNDA:0,_RNCNvMs_NtNtCsdBQVr9DQLnV_11payjoin_cli3app2v1NtB6_3App17init_tls_acceptor0Ba_
FNDA:0,_RNCNvMs_NtNtCsdBQVr9DQLnV_11payjoin_cli3app2v1NtB6_3App17init_tls_acceptors_0Ba_
FNDA:0,_RNCNvMs_NtNtCsdBQVr9DQLnV_11payjoin_cli3app2v1NtB6_3App17start_http_server0Ba_
FNDA:0,_RNCNvMs_NtNtCsdBQVr9DQLnV_11payjoin_cli3app2v1NtB6_3App18handle_web_request0Ba_
FNDA:0,_RNCNvMs_NtNtCsdBQVr9DQLnV_11payjoin_cli3app2v1NtB6_3App19handle_payjoin_post0Ba_
FNDA:0,_RNCNvMs_NtNtCsdBQVr9DQLnV_11payjoin_cli3app2v1NtB6_3App19process_v1_proposal0Ba_
FNDA:0,_RNCNvMs_NtNtCsdBQVr9DQLnV_11payjoin_cli3app2v1NtB6_3App19process_v1_proposals0_0Ba_
FNDA:0,_RNCNvMs_NtNtCsdBQVr9DQLnV_11payjoin_cli3app2v1NtB6_3App19process_v1_proposals1_0Ba_
FNDA:0,_RNCNvMs_NtNtCsdBQVr9DQLnV_11payjoin_cli3app2v1NtB6_3App19process_v1_proposals2_0Ba_
FNDA:0,_RNCNvMs_NtNtCsdBQVr9DQLnV_11payjoin_cli3app2v1NtB6_3App19process_v1_proposals3_0Ba_
FNDA:0,_RNCNvMs_NtNtCsdBQVr9DQLnV_11payjoin_cli3app2v1NtB6_3App19process_v1_proposals4_0Ba_
FNDA:0,_RNCNvMs_NtNtCsdBQVr9DQLnV_11payjoin_cli3app2v1NtB6_3App19process_v1_proposals_0Ba_
FNDA:0,_RNCNvNtNtCsdBQVr9DQLnV_11payjoin_cli3app2v123try_contributing_inputs0B7_
FNDA:0,_RNCNvXNtNtCsdBQVr9DQLnV_11payjoin_cli3app2v1NtB4_7HeadersNtNtNtNtCsgunIiAgq1He_7payjoin4core7receive2v17Headers10get_header0B8_
FNDA:0,_RNvMs_NtNtCsdBQVr9DQLnV_11payjoin_cli3app2v1NtB4_3App16handle_get_bip21
FNDA:0,_RNvMs_NtNtCsdBQVr9DQLnV_11payjoin_cli3app2v1NtB4_3App17init_tls_acceptor
FNDA:0,_RNvMs_NtNtCsdBQVr9DQLnV_11payjoin_cli3app2v1NtB4_3App17start_http_server
FNDA:0,_RNvMs_NtNtCsdBQVr9DQLnV_11payjoin_cli3app2v1NtB4_3App18handle_web_request
FNDA:0,_RNvMs_NtNtCsdBQVr9DQLnV_11payjoin_cli3app2v1NtB4_3App19handle_payjoin_post
FNDA:0,_RNvMs_NtNtCsdBQVr9DQLnV_11payjoin_cli3app2v1NtB4_3App19process_v1_proposal
FNDA:0,_RNvNtNtCsdBQVr9DQLnV_11payjoin_cli3app2v123try_contributing_inputs
FNDA:0,_RNvXNtNtCsdBQVr9DQLnV_11payjoin_cli3app2v1NtB2_7HeadersNtNtNtNtCsgunIiAgq1He_7payjoin4core7receive2v17Headers10get_header
FNDA:0,_RNvXs2_NtNtCsdBQVr9DQLnV_11payjoin_cli3app2v1NtB5_3AppNtB7_3App12send_payjoin
FNDA:0,_RNvXs2_NtNtCsdBQVr9DQLnV_11payjoin_cli3app2v1NtB5_3AppNtB7_3App15receive_payjoin
FNDA:0,_RNvXs2_NtNtCsdBQVr9DQLnV_11payjoin_cli3app2v1NtB5_3AppNtB7_3App15resume_payjoins
FNDA:0,_RNvXs2_NtNtCsdBQVr9DQLnV_11payjoin_cli3app2v1NtB5_3AppNtB7_3App3new
FNDA:0,_RNvXs2_NtNtCsdBQVr9DQLnV_11payjoin_cli3app2v1NtB5_3AppNtB7_3App6wallet
FNDA:0,_RNvXs2_NtNtCsdBQVr9DQLnV_11payjoin_cli3app2v1NtB5_3AppNtB7_3App7history
FNDA:1,_RINvMs_NtNtCscUu8AqYtVTR_11payjoin_cli3app2v1NtB5_3App21construct_payjoin_uriReEB9_
FNDA:1,_RINvNtNtCscUu8AqYtVTR_11payjoin_cli3app2v14fullNtNtCs3JibHiv1CSv_5alloc6string6StringEB6_
FNDA:0,_RINvNtNtCscUu8AqYtVTR_11payjoin_cli3app2v14fullReEB6_
FNDA:1,_RNCNCNCNvMs_NtNtCscUu8AqYtVTR_11payjoin_cli3app2v1NtBa_3App17start_http_server000Be_
FNDA:1,_RNCNCNvMs_NtNtCscUu8AqYtVTR_11payjoin_cli3app2v1NtB8_3App17start_http_server00Bc_
FNDA:0,_RNCNCNvMs_NtNtCscUu8AqYtVTR_11payjoin_cli3app2v1NtB8_3App18handle_web_request00Bc_
FNDA:0,_RNCNCNvMs_NtNtCscUu8AqYtVTR_11payjoin_cli3app2v1NtB8_3App18handle_web_request0s1_0Bc_
FNDA:0,_RNCNCNvMs_NtNtCscUu8AqYtVTR_11payjoin_cli3app2v1NtB8_3App18handle_web_request0s_0Bc_
FNDA:1,_RNCNCNvMs_NtNtCscUu8AqYtVTR_11payjoin_cli3app2v1NtB8_3App19handle_payjoin_post00Bc_
FNDA:0,_RNCNCNvMs_NtNtCscUu8AqYtVTR_11payjoin_cli3app2v1NtB8_3App19handle_payjoin_post0s0_0Bc_
FNDA:1,_RNCNCNvMs_NtNtCscUu8AqYtVTR_11payjoin_cli3app2v1NtB8_3App19handle_payjoin_post0s_0Bc_
FNDA:0,_RNCNCNvMs_NtNtCscUu8AqYtVTR_11payjoin_cli3app2v1NtB8_3App19process_v1_proposal00Bc_
FNDA:0,_RNCNCNvMs_NtNtCscUu8AqYtVTR_11payjoin_cli3app2v1NtB8_3App19process_v1_proposals1_00Bc_
FNDA:0,_RNCNCNvMs_NtNtCscUu8AqYtVTR_11payjoin_cli3app2v1NtB8_3App19process_v1_proposals4_00Bc_
FNDA:0,_RNCNCNvMs_NtNtCscUu8AqYtVTR_11payjoin_cli3app2v1NtB8_3App19process_v1_proposals_00Bc_
FNDA:0,_RNCNCNvXs2_NtNtCscUu8AqYtVTR_11payjoin_cli3app2v1NtB9_3AppNtBb_3App12send_payjoin00Bd_
FNDA:0,_RNCNCNvXs2_NtNtCscUu8AqYtVTR_11payjoin_cli3app2v1NtB9_3AppNtBb_3App12send_payjoin0s0_0Bd_
FNDA:0,_RNCNCNvXs2_NtNtCscUu8AqYtVTR_11payjoin_cli3app2v1NtB9_3AppNtBb_3App12send_payjoin0s3_0Bd_
FNDA:1,_RNCNCNvXs2_NtNtCscUu8AqYtVTR_11payjoin_cli3app2v1NtB9_3AppNtBb_3App12send_payjoin0s4_0Bd_
FNDA:1,_RNCNCNvXs2_NtNtCscUu8AqYtVTR_11payjoin_cli3app2v1NtB9_3AppNtBb_3App12send_payjoin0s5_0Bd_
FNDA:0,_RNCNCNvXs2_NtNtCscUu8AqYtVTR_11payjoin_cli3app2v1NtB9_3AppNtBb_3App12send_payjoin0s6_0Bd_
FNDA:0,_RNCNCNvXs2_NtNtCscUu8AqYtVTR_11payjoin_cli3app2v1NtB9_3AppNtBb_3App12send_payjoin0s_0Bd_
FNDA:0,_RNCNvMs_NtNtCscUu8AqYtVTR_11payjoin_cli3app2v1NtB6_3App16handle_get_bip210Ba_
FNDA:0,_RNCNvMs_NtNtCscUu8AqYtVTR_11payjoin_cli3app2v1NtB6_3App16handle_get_bip21s0_0Ba_
FNDA:0,_RNCNvMs_NtNtCscUu8AqYtVTR_11payjoin_cli3app2v1NtB6_3App16handle_get_bip21s_0Ba_
FNDA:0,_RNCNvMs_NtNtCscUu8AqYtVTR_11payjoin_cli3app2v1NtB6_3App17init_tls_acceptor0Ba_
FNDA:0,_RNCNvMs_NtNtCscUu8AqYtVTR_11payjoin_cli3app2v1NtB6_3App17init_tls_acceptors_0Ba_
FNDA:1,_RNCNvMs_NtNtCscUu8AqYtVTR_11payjoin_cli3app2v1NtB6_3App17start_http_server0Ba_
FNDA:1,_RNCNvMs_NtNtCscUu8AqYtVTR_11payjoin_cli3app2v1NtB6_3App18handle_web_request0Ba_
FNDA:1,_RNCNvMs_NtNtCscUu8AqYtVTR_11payjoin_cli3app2v1NtB6_3App19handle_payjoin_post0Ba_
FNDA:1,_RNCNvMs_NtNtCscUu8AqYtVTR_11payjoin_cli3app2v1NtB6_3App19process_v1_proposal0Ba_
FNDA:1,_RNCNvMs_NtNtCscUu8AqYtVTR_11payjoin_cli3app2v1NtB6_3App19process_v1_proposals0_0Ba_
FNDA:2,_RNCNvMs_NtNtCscUu8AqYtVTR_11payjoin_cli3app2v1NtB6_3App19process_v1_proposals1_0Ba_
FNDA:0,_RNCNvMs_NtNtCscUu8AqYtVTR_11payjoin_cli3app2v1NtB6_3App19process_v1_proposals2_0Ba_
FNDA:0,_RNCNvMs_NtNtCscUu8AqYtVTR_11payjoin_cli3app2v1NtB6_3App19process_v1_proposals3_0Ba_
FNDA:1,_RNCNvMs_NtNtCscUu8AqYtVTR_11payjoin_cli3app2v1NtB6_3App19process_v1_proposals4_0Ba_
FNDA:1,_RNCNvMs_NtNtCscUu8AqYtVTR_11payjoin_cli3app2v1NtB6_3App19process_v1_proposals_0Ba_
FNDA:0,_RNCNvNtNtCscUu8AqYtVTR_11payjoin_cli3app2v123try_contributing_inputs0B7_
FNDA:2,_RNCNvXNtNtCscUu8AqYtVTR_11payjoin_cli3app2v1NtB4_7HeadersNtNtNtNtCs9T6n9XKryM2_7payjoin4core7receive2v17Headers10get_header0B8_
FNDA:0,_RNvMs_NtNtCscUu8AqYtVTR_11payjoin_cli3app2v1NtB4_3App16handle_get_bip21
FNDA:1,_RNvMs_NtNtCscUu8AqYtVTR_11payjoin_cli3app2v1NtB4_3App17init_tls_acceptor
FNDA:1,_RNvMs_NtNtCscUu8AqYtVTR_11payjoin_cli3app2v1NtB4_3App17start_http_server
FNDA:1,_RNvMs_NtNtCscUu8AqYtVTR_11payjoin_cli3app2v1NtB4_3App18handle_web_request
FNDA:1,_RNvMs_NtNtCscUu8AqYtVTR_11payjoin_cli3app2v1NtB4_3App19handle_payjoin_post
FNDA:1,_RNvMs_NtNtCscUu8AqYtVTR_11payjoin_cli3app2v1NtB4_3App19process_v1_proposal
FNDA:1,_RNvNtNtCscUu8AqYtVTR_11payjoin_cli3app2v123try_contributing_inputs
FNDA:2,_RNvXNtNtCscUu8AqYtVTR_11payjoin_cli3app2v1NtB2_7HeadersNtNtNtNtCs9T6n9XKryM2_7payjoin4core7receive2v17Headers10get_header
FNDA:1,_RNvXs2_NtNtCscUu8AqYtVTR_11payjoin_cli3app2v1NtB5_3AppNtB7_3App12send_payjoin
FNDA:1,_RNvXs2_NtNtCscUu8AqYtVTR_11payjoin_cli3app2v1NtB5_3AppNtB7_3App15receive_payjoin
FNDA:2,_RNvXs2_NtNtCscUu8AqYtVTR_11payjoin_cli3app2v1NtB5_3AppNtB7_3App3new
FNDA:7,_RNvXs2_NtNtCscUu8AqYtVTR_11payjoin_cli3app2v1NtB5_3AppNtB7_3App6wallet
FNDA:2,_RINvMs_NtNtCs6sB0kYsNxnG_11payjoin_cli3app2v1NtB5_3App21construct_payjoin_uriReEB9_
FNDA:2,_RINvNtNtCs6sB0kYsNxnG_11payjoin_cli3app2v14fullNtNtCs3JibHiv1CSv_5alloc6string6StringEB6_
FNDA:0,_RINvNtNtCs6sB0kYsNxnG_11payjoin_cli3app2v14fullReEB6_
FNDA:2,_RNCNCNCNvMs_NtNtCs6sB0kYsNxnG_11payjoin_cli3app2v1NtBa_3App17start_http_server000Be_
FNDA:2,_RNCNCNvMs_NtNtCs6sB0kYsNxnG_11payjoin_cli3app2v1NtB8_3App17start_http_server00Bc_
FNDA:0,_RNCNCNvMs_NtNtCs6sB0kYsNxnG_11payjoin_cli3app2v1NtB8_3App18handle_web_request00Bc_
FNDA:0,_RNCNCNvMs_NtNtCs6sB0kYsNxnG_11payjoin_cli3app2v1NtB8_3App18handle_web_request0s1_0Bc_
FNDA:0,_RNCNCNvMs_NtNtCs6sB0kYsNxnG_11payjoin_cli3app2v1NtB8_3App18handle_web_request0s_0Bc_
FNDA:2,_RNCNCNvMs_NtNtCs6sB0kYsNxnG_11payjoin_cli3app2v1NtB8_3App19handle_payjoin_post00Bc_
FNDA:0,_RNCNCNvMs_NtNtCs6sB0kYsNxnG_11payjoin_cli3app2v1NtB8_3App19handle_payjoin_post0s0_0Bc_
FNDA:2,_RNCNCNvMs_NtNtCs6sB0kYsNxnG_11payjoin_cli3app2v1NtB8_3App19handle_payjoin_post0s_0Bc_
FNDA:0,_RNCNCNvMs_NtNtCs6sB0kYsNxnG_11payjoin_cli3app2v1NtB8_3App19process_v1_proposal00Bc_
FNDA:0,_RNCNCNvMs_NtNtCs6sB0kYsNxnG_11payjoin_cli3app2v1NtB8_3App19process_v1_proposals1_00Bc_
FNDA:0,_RNCNCNvMs_NtNtCs6sB0kYsNxnG_11payjoin_cli3app2v1NtB8_3App19process_v1_proposals4_00Bc_
FNDA:0,_RNCNCNvMs_NtNtCs6sB0kYsNxnG_11payjoin_cli3app2v1NtB8_3App19process_v1_proposals_00Bc_
FNDA:0,_RNCNCNvXs2_NtNtCs6sB0kYsNxnG_11payjoin_cli3app2v1NtB9_3AppNtBb_3App12send_payjoin00Bd_
FNDA:0,_RNCNCNvXs2_NtNtCs6sB0kYsNxnG_11payjoin_cli3app2v1NtB9_3AppNtBb_3App12send_payjoin0s0_0Bd_
FNDA:0,_RNCNCNvXs2_NtNtCs6sB0kYsNxnG_11payjoin_cli3app2v1NtB9_3AppNtBb_3App12send_payjoin0s3_0Bd_
FNDA:1,_RNCNCNvXs2_NtNtCs6sB0kYsNxnG_11payjoin_cli3app2v1NtB9_3AppNtBb_3App12send_payjoin0s4_0Bd_
FNDA:1,_RNCNCNvXs2_NtNtCs6sB0kYsNxnG_11payjoin_cli3app2v1NtB9_3AppNtBb_3App12send_payjoin0s5_0Bd_
FNDA:0,_RNCNCNvXs2_NtNtCs6sB0kYsNxnG_11payjoin_cli3app2v1NtB9_3AppNtBb_3App12send_payjoin0s6_0Bd_
FNDA:0,_RNCNCNvXs2_NtNtCs6sB0kYsNxnG_11payjoin_cli3app2v1NtB9_3AppNtBb_3App12send_payjoin0s_0Bd_
FNDA:0,_RNCNvMs_NtNtCs6sB0kYsNxnG_11payjoin_cli3app2v1NtB6_3App16handle_get_bip210Ba_
FNDA:0,_RNCNvMs_NtNtCs6sB0kYsNxnG_11payjoin_cli3app2v1NtB6_3App16handle_get_bip21s0_0Ba_
FNDA:0,_RNCNvMs_NtNtCs6sB0kYsNxnG_11payjoin_cli3app2v1NtB6_3App16handle_get_bip21s_0Ba_
FNDA:0,_RNCNvMs_NtNtCs6sB0kYsNxnG_11payjoin_cli3app2v1NtB6_3App17init_tls_acceptor0Ba_
FNDA:0,_RNCNvMs_NtNtCs6sB0kYsNxnG_11payjoin_cli3app2v1NtB6_3App17init_tls_acceptors_0Ba_
FNDA:2,_RNCNvMs_NtNtCs6sB0kYsNxnG_11payjoin_cli3app2v1NtB6_3App17start_http_server0Ba_
FNDA:2,_RNCNvMs_NtNtCs6sB0kYsNxnG_11payjoin_cli3app2v1NtB6_3App18handle_web_request0Ba_
FNDA:2,_RNCNvMs_NtNtCs6sB0kYsNxnG_11payjoin_cli3app2v1NtB6_3App19handle_payjoin_post0Ba_
FNDA:2,_RNCNvMs_NtNtCs6sB0kYsNxnG_11payjoin_cli3app2v1NtB6_3App19process_v1_proposal0Ba_
FNDA:2,_RNCNvMs_NtNtCs6sB0kYsNxnG_11payjoin_cli3app2v1NtB6_3App19process_v1_proposals0_0Ba_
FNDA:4,_RNCNvMs_NtNtCs6sB0kYsNxnG_11payjoin_cli3app2v1NtB6_3App19process_v1_proposals1_0Ba_
FNDA:0,_RNCNvMs_NtNtCs6sB0kYsNxnG_11payjoin_cli3app2v1NtB6_3App19process_v1_proposals2_0Ba_
FNDA:0,_RNCNvMs_NtNtCs6sB0kYsNxnG_11payjoin_cli3app2v1NtB6_3App19process_v1_proposals3_0Ba_
FNDA:2,_RNCNvMs_NtNtCs6sB0kYsNxnG_11payjoin_cli3app2v1NtB6_3App19process_v1_proposals4_0Ba_
FNDA:2,_RNCNvMs_NtNtCs6sB0kYsNxnG_11payjoin_cli3app2v1NtB6_3App19process_v1_proposals_0Ba_
FNDA:0,_RNCNvNtNtCs6sB0kYsNxnG_11payjoin_cli3app2v123try_contributing_inputs0B7_
FNDA:4,_RNCNvXNtNtCs6sB0kYsNxnG_11payjoin_cli3app2v1NtB4_7HeadersNtNtNtNtCsgunIiAgq1He_7payjoin4core7receive2v17Headers10get_header0B8_
FNDA:0,_RNvMs_NtNtCs6sB0kYsNxnG_11payjoin_cli3app2v1NtB4_3App16handle_get_bip21
FNDA:2,_RNvMs_NtNtCs6sB0kYsNxnG_11payjoin_cli3app2v1NtB4_3App17init_tls_acceptor
FNDA:2,_RNvMs_NtNtCs6sB0kYsNxnG_11payjoin_cli3app2v1NtB4_3App17start_http_server
FNDA:2,_RNvMs_NtNtCs6sB0kYsNxnG_11payjoin_cli3app2v1NtB4_3App18handle_web_request
FNDA:2,_RNvMs_NtNtCs6sB0kYsNxnG_11payjoin_cli3app2v1NtB4_3App19handle_payjoin_post
FNDA:2,_RNvMs_NtNtCs6sB0kYsNxnG_11payjoin_cli3app2v1NtB4_3App19process_v1_proposal
FNDA:2,_RNvNtNtCs6sB0kYsNxnG_11payjoin_cli3app2v123try_contributing_inputs
FNDA:4,_RNvXNtNtCs6sB0kYsNxnG_11payjoin_cli3app2v1NtB2_7HeadersNtNtNtNtCsgunIiAgq1He_7payjoin4core7receive2v17Headers10get_header
FNDA:1,_RNvXs2_NtNtCs6sB0kYsNxnG_11payjoin_cli3app2v1NtB5_3AppNtB7_3App12send_payjoin
FNDA:2,_RNvXs2_NtNtCs6sB0kYsNxnG_11payjoin_cli3app2v1NtB5_3AppNtB7_3App15receive_payjoin
FNDA:0,_RNvXs2_NtNtCs6sB0kYsNxnG_11payjoin_cli3app2v1NtB5_3AppNtB7_3App15resume_payjoins
FNDA:3,_RNvXs2_NtNtCs6sB0kYsNxnG_11payjoin_cli3app2v1NtB5_3AppNtB7_3App3new
FNDA:9,_RNvXs2_NtNtCs6sB0kYsNxnG_11payjoin_cli3app2v1NtB5_3AppNtB7_3App6wallet
FNDA:0,_RNvXs2_NtNtCs6sB0kYsNxnG_11payjoin_cli3app2v1NtB5_3AppNtB7_3App7history
FNF:52
FNH:28
DA:36,6
DA:37,6
DA:38,6
DA:51,5
DA:61,5
DA:63,16
DA:65,2
DA:67,0
DA:69,0
DA:70,0
DA:87,0
DA:98,2
DA:99,2
DA:108,0
DA:109,0
DA:110,0
DA:111,0
DA:115,2
DA:118,3
DA:127,3
DA:130,0
DA:132,0
DA:135,0
DA:137,0
DA:141,3
DA:142,3
DA:144,3
DA:145,3
DA:146,3
DA:147,3
DA:148,0
DA:149,3
DA:151,3
DA:152,3
DA:154,3
DA:155,3
DA:156,3
DA:157,3
DA:159,3
DA:163,3
DA:164,3
DA:165,0
DA:167,3
DA:168,3
DA:170,3
DA:178,3
DA:180,3
DA:183,3
DA:184,6
DA:185,3
DA:187,3
DA:188,3
DA:190,3
DA:191,3
DA:192,0
DA:193,0
DA:194,0
DA:198,3
DA:199,3
DA:200,3
DA:201,3
DA:203,3
DA:204,3
DA:206,0
DA:207,0
DA:210,3
DA:217,3
DA:218,3
DA:219,3
DA:220,3
DA:221,3
DA:222,0
DA:223,3
DA:224,3
DA:226,3
DA:227,3
DA:228,3
DA:229,3
DA:230,3
DA:231,0
DA:232,3
DA:234,3
DA:235,3
DA:236,3
DA:237,3
DA:239,3
DA:240,3
DA:242,3
DA:243,3
DA:245,3
DA:246,3
DA:247,3
DA:248,3
DA:249,3
DA:250,3
DA:251,0
DA:252,0
DA:253,0
DA:254,0
DA:255,0
DA:256,0
DA:257,0
DA:258,0
DA:259,0
DA:260,0
DA:261,0
DA:262,0
DA:263,0
DA:264,0
DA:265,0
DA:266,0
DA:268,3
DA:269,3
DA:270,3
DA:271,3
DA:272,0
DA:273,0
DA:274,0
DA:275,0
DA:276,0
DA:277,0
DA:278,0
DA:279,3
DA:280,0
DA:282,3
DA:283,3
DA:284,3
DA:285,3
DA:286,3
DA:288,0
DA:289,0
DA:290,0
DA:291,0
DA:292,0
DA:293,0
DA:294,0
DA:295,0
DA:296,0
DA:297,0
DA:298,0
DA:299,0
DA:301,0
DA:302,0
DA:306,0
DA:308,0
DA:309,0
DA:310,0
DA:311,0
DA:312,0
DA:313,0
DA:315,0
DA:316,0
DA:318,3
DA:319,3
DA:320,3
DA:321,3
DA:322,3
DA:323,3
DA:325,3
DA:326,3
DA:327,3
DA:328,3
DA:329,3
DA:330,3
DA:332,3
DA:333,0
DA:334,0
DA:335,0
DA:336,0
DA:337,3
DA:339,3
DA:340,3
DA:341,0
DA:342,0
DA:344,3
DA:345,3
DA:347,3
DA:348,3
DA:349,3
DA:350,3
DA:352,3
DA:354,3
DA:355,3
DA:357,3
DA:358,3
DA:359,3
DA:360,3
DA:361,3
DA:364,3
DA:365,3
DA:366,3
DA:367,3
DA:368,3
DA:369,3
DA:372,3
DA:375,3
DA:376,3
DA:377,3
DA:378,3
DA:381,3
DA:382,3
DA:383,3
DA:384,3
DA:386,6
DA:387,6
DA:388,6
DA:389,6
DA:390,6
DA:392,3
DA:393,3
DA:394,3
DA:395,3
DA:396,3
DA:397,3
DA:398,0
DA:399,0
DA:400,3
DA:402,3
DA:403,3
DA:405,3
DA:406,3
DA:407,3
DA:408,3
DA:410,3
DA:411,3
DA:412,3
DA:413,3
DA:414,3
DA:415,3
DA:416,3
DA:419,3
DA:420,3
DA:421,3
DA:422,3
DA:423,3
DA:424,3
DA:426,3
DA:427,0
DA:428,0
DA:429,0
DA:430,0
DA:431,0
DA:432,0
DA:433,3
DA:435,3
DA:436,3
DA:438,3
DA:439,3
DA:440,3
DA:441,3
DA:442,3
DA:444,3
DA:445,3
DA:446,3
BRF:0
BRH:0
LF:293
LH:185
end_of_record
SF:/Users/bene/bitcoin/rust-payjoin/payjoin-cli/src/app/v2/mod.rs
FN:467,_RINvMs2_NtNtCsdBQVr9DQLnV_11payjoin_cli3app2v2NtB6_3App20close_failed_sessionpEBa_
FN:813,_RINvMs2_NtNtCsdBQVr9DQLnV_11payjoin_cli3app2v2NtB6_3App26unwrap_relay_or_else_fetchpEBa_
FN:816,_RNCINvMs2_NtNtCsdBQVr9DQLnV_11payjoin_cli3app2v2NtB8_3App26unwrap_relay_or_else_fetchpE0Bc_
FN:817,_RNCNCINvMs2_NtNtCsdBQVr9DQLnV_11payjoin_cli3app2v2NtBa_3App26unwrap_relay_or_else_fetchpE00Be_
FN:785,_RNCNCNCNCNvMs2_NtNtCsdBQVr9DQLnV_11payjoin_cli3app2v2NtBd_3App24monitor_payjoin_proposal0000Bh_
FN:637,_RNCNCNCNvMs2_NtNtCsdBQVr9DQLnV_11payjoin_cli3app2v2NtBb_3App14check_proposal000Bf_
FN:739,_RNCNCNCNvMs2_NtNtCsdBQVr9DQLnV_11payjoin_cli3app2v2NtBb_3App17finalize_proposal000Bf_
FN:656,_RNCNCNCNvMs2_NtNtCsdBQVr9DQLnV_11payjoin_cli3app2v2NtBb_3App22check_inputs_not_owned000Bf_
FN:782,_RNCNCNCNvMs2_NtNtCsdBQVr9DQLnV_11payjoin_cli3app2v2NtBb_3App24monitor_payjoin_proposal000Bf_
FN:685,_RNCNCNCNvMs2_NtNtCsdBQVr9DQLnV_11payjoin_cli3app2v2NtBb_3App25identify_receiver_outputs000Bf_
FN:219,_RNCNCNCNvXs4_NtNtCsdBQVr9DQLnV_11payjoin_cli3app2v2NtBb_3AppNtBd_3App12send_payjoin0s5_00Bf_
FN:863,_RNCNCNvMs2_NtNtCsdBQVr9DQLnV_11payjoin_cli3app2v2NtB9_3App12post_request00Bd_
FN:634,_RNCNCNvMs2_NtNtCsdBQVr9DQLnV_11payjoin_cli3app2v2NtB9_3App14check_proposal00Bd_
FN:736,_RNCNCNvMs2_NtNtCsdBQVr9DQLnV_11payjoin_cli3app2v2NtB9_3App17finalize_proposal00Bd_
FN:752,_RNCNCNvMs2_NtNtCsdBQVr9DQLnV_11payjoin_cli3app2v2NtB9_3App21send_payjoin_proposal00Bd_
FN:653,_RNCNCNvMs2_NtNtCsdBQVr9DQLnV_11payjoin_cli3app2v2NtB9_3App22check_inputs_not_owned00Bd_
FN:778,_RNCNCNvMs2_NtNtCsdBQVr9DQLnV_11payjoin_cli3app2v2NtB9_3App24monitor_payjoin_proposal00Bd_
FN:682,_RNCNCNvMs2_NtNtCsdBQVr9DQLnV_11payjoin_cli3app2v2NtB9_3App25identify_receiver_outputs00Bd_
FN:668,_RNCNCNvMs2_NtNtCsdBQVr9DQLnV_11payjoin_cli3app2v2NtB9_3App27check_no_inputs_seen_before00Bd_
FN:160,_RNCNCNvXs4_NtNtCsdBQVr9DQLnV_11payjoin_cli3app2v2NtB9_3AppNtBb_3App12send_payjoin00Bd_
FN:165,_RNCNCNvXs4_NtNtCsdBQVr9DQLnV_11payjoin_cli3app2v2NtB9_3AppNtBb_3App12send_payjoin0s0_0Bd_
FN:192,_RNCNCNvXs4_NtNtCsdBQVr9DQLnV_11payjoin_cli3app2v2NtB9_3AppNtBb_3App12send_payjoin0s3_0Bd_
FN:199,_RNCNCNvXs4_NtNtCsdBQVr9DQLnV_11payjoin_cli3app2v2NtB9_3AppNtBb_3App12send_payjoin0s4_0Bd_
FN:210,_RNCNCNvXs4_NtNtCsdBQVr9DQLnV_11payjoin_cli3app2v2NtB9_3AppNtBb_3App12send_payjoin0s5_0Bd_
FN:163,_RNCNCNvXs4_NtNtCsdBQVr9DQLnV_11payjoin_cli3app2v2NtB9_3AppNtBb_3App12send_payjoin0s_0Bd_
FN:297,_RNCNCNvXs4_NtNtCsdBQVr9DQLnV_11payjoin_cli3app2v2NtB9_3AppNtBb_3App15resume_payjoins00Bd_
FN:327,_RNCNCNvXs4_NtNtCsdBQVr9DQLnV_11payjoin_cli3app2v2NtB9_3AppNtBb_3App15resume_payjoins0s2_0Bd_
FN:314,_RNCNCNvXs4_NtNtCsdBQVr9DQLnV_11payjoin_cli3app2v2NtB9_3AppNtBb_3App15resume_payjoins0s_0Bd_
FN:346,_RNCNCNvXs4_NtNtCsdBQVr9DQLnV_11payjoin_cli3app2v2NtB9_3AppNtBb_3App7history00Bd_
FN:399,_RNCNCNvXs4_NtNtCsdBQVr9DQLnV_11payjoin_cli3app2v2NtB9_3AppNtBb_3App7history0s0_0Bd_
FN:427,_RNCNCNvXs4_NtNtCsdBQVr9DQLnV_11payjoin_cli3app2v2NtB9_3AppNtBb_3App7history0s1_0Bd_
FN:372,_RNCNCNvXs4_NtNtCsdBQVr9DQLnV_11payjoin_cli3app2v2NtB9_3AppNtBb_3App7history0s_0Bd_
FN:835,_RNCNvMs2_NtNtCsdBQVr9DQLnV_11payjoin_cli3app2v2NtB7_3App12handle_error0Bb_
FN:856,_RNCNvMs2_NtNtCsdBQVr9DQLnV_11payjoin_cli3app2v2NtB7_3App12post_request0Bb_
FN:631,_RNCNvMs2_NtNtCsdBQVr9DQLnV_11payjoin_cli3app2v2NtB7_3App14check_proposal0Bb_
FN:695,_RNCNvMs2_NtNtCsdBQVr9DQLnV_11payjoin_cli3app2v2NtB7_3App14commit_outputs0Bb_
FN:724,_RNCNvMs2_NtNtCsdBQVr9DQLnV_11payjoin_cli3app2v2NtB7_3App15apply_fee_range0Bb_
FN:704,_RNCNvMs2_NtNtCsdBQVr9DQLnV_11payjoin_cli3app2v2NtB7_3App17contribute_inputs0Bb_
FN:733,_RNCNvMs2_NtNtCsdBQVr9DQLnV_11payjoin_cli3app2v2NtB7_3App17finalize_proposal0Bb_
FN:547,_RNCNvMs2_NtNtCsdBQVr9DQLnV_11payjoin_cli3app2v2NtB7_3App18long_poll_fallback0Bb_
FN:615,_RNCNvMs2_NtNtCsdBQVr9DQLnV_11payjoin_cli3app2v2NtB7_3App19read_from_directory0Bb_
FN:749,_RNCNvMs2_NtNtCsdBQVr9DQLnV_11payjoin_cli3app2v2NtB7_3App21send_payjoin_proposal0Bb_
FN:650,_RNCNvMs2_NtNtCsdBQVr9DQLnV_11payjoin_cli3app2v2NtB7_3App22check_inputs_not_owned0Bb_
FN:501,_RNCNvMs2_NtNtCsdBQVr9DQLnV_11payjoin_cli3app2v2NtB7_3App22post_original_proposal0Bb_
FN:482,_RNCNvMs2_NtNtCsdBQVr9DQLnV_11payjoin_cli3app2v2NtB7_3App22process_sender_session0Bb_
FN:768,_RNCNvMs2_NtNtCsdBQVr9DQLnV_11payjoin_cli3app2v2NtB7_3App24monitor_payjoin_proposal0Bb_
FN:577,_RNCNvMs2_NtNtCsdBQVr9DQLnV_11payjoin_cli3app2v2NtB7_3App24process_receiver_session0Bb_
FN:515,_RNCNvMs2_NtNtCsdBQVr9DQLnV_11payjoin_cli3app2v2NtB7_3App25get_proposed_payjoin_psbt0Bb_
FN:679,_RNCNvMs2_NtNtCsdBQVr9DQLnV_11payjoin_cli3app2v2NtB7_3App25identify_receiver_outputs0Bb_
FN:666,_RNCNvMs2_NtNtCsdBQVr9DQLnV_11payjoin_cli3app2v2NtB7_3App27check_no_inputs_seen_before0Bb_
FN:104,_RNvMs0_NtNtCsdBQVr9DQLnV_11payjoin_cli3app2v2NtB5_4Role6as_str
FN:831,_RNvMs2_NtNtCsdBQVr9DQLnV_11payjoin_cli3app2v2NtB5_3App12handle_error
FN:856,_RNvMs2_NtNtCsdBQVr9DQLnV_11payjoin_cli3app2v2NtB5_3App12post_request
FN:627,_RNvMs2_NtNtCsdBQVr9DQLnV_11payjoin_cli3app2v2NtB5_3App14check_proposal
FN:691,_RNvMs2_NtNtCsdBQVr9DQLnV_11payjoin_cli3app2v2NtB5_3App14commit_outputs
FN:720,_RNvMs2_NtNtCsdBQVr9DQLnV_11payjoin_cli3app2v2NtB5_3App15apply_fee_range
FN:700,_RNvMs2_NtNtCsdBQVr9DQLnV_11payjoin_cli3app2v2NtB5_3App17contribute_inputs
FN:729,_RNvMs2_NtNtCsdBQVr9DQLnV_11payjoin_cli3app2v2NtB5_3App17finalize_proposal
FN:543,_RNvMs2_NtNtCsdBQVr9DQLnV_11payjoin_cli3app2v2NtB5_3App18long_poll_fallback
FN:611,_RNvMs2_NtNtCsdBQVr9DQLnV_11payjoin_cli3app2v2NtB5_3App19read_from_directory
FN:745,_RNvMs2_NtNtCsdBQVr9DQLnV_11payjoin_cli3app2v2NtB5_3App21send_payjoin_proposal
FN:646,_RNvMs2_NtNtCsdBQVr9DQLnV_11payjoin_cli3app2v2NtB5_3App22check_inputs_not_owned
FN:497,_RNvMs2_NtNtCsdBQVr9DQLnV_11payjoin_cli3app2v2NtB5_3App22post_original_proposal
FN:478,_RNvMs2_NtNtCsdBQVr9DQLnV_11payjoin_cli3app2v2NtB5_3App22process_sender_session
FN:764,_RNvMs2_NtNtCsdBQVr9DQLnV_11payjoin_cli3app2v2NtB5_3App24monitor_payjoin_proposal
FN:573,_RNvMs2_NtNtCsdBQVr9DQLnV_11payjoin_cli3app2v2NtB5_3App24process_receiver_session
FN:511,_RNvMs2_NtNtCsdBQVr9DQLnV_11payjoin_cli3app2v2NtB5_3App25get_proposed_payjoin_psbt
FN:675,_RNvMs2_NtNtCsdBQVr9DQLnV_11payjoin_cli3app2v2NtB5_3App25identify_receiver_outputs
FN:662,_RNvMs2_NtNtCsdBQVr9DQLnV_11payjoin_cli3app2v2NtB5_3App27check_no_inputs_seen_before
FN:92,_RNvNtNtCsdBQVr9DQLnV_11payjoin_cli3app2v212print_header
FN:121,_RNvXININtNtCsdBQVr9DQLnV_11payjoin_cli3app2v2s1_0pEINtB5_17SessionHistoryRowpENtNtCs2hl1TO11rA7_4core3fmt7Display3fmtB9_
FN:51,_RNvXNtNtCsdBQVr9DQLnV_11payjoin_cli3app2v2NtNtNtNtCsgunIiAgq1He_7payjoin4core4send2v211SendSessionNtB2_10StatusText11status_text
FN:157,_RNvXs4_NtNtCsdBQVr9DQLnV_11payjoin_cli3app2v2NtB5_3AppNtB7_3App12send_payjoin
FN:255,_RNvXs4_NtNtCsdBQVr9DQLnV_11payjoin_cli3app2v2NtB5_3AppNtB7_3App15receive_payjoin
FN:280,_RNvXs4_NtNtCsdBQVr9DQLnV_11payjoin_cli3app2v2NtB5_3AppNtB7_3App15resume_payjoins
FN:141,_RNvXs4_NtNtCsdBQVr9DQLnV_11payjoin_cli3app2v2NtB5_3AppNtB7_3App3new
FN:154,_RNvXs4_NtNtCsdBQVr9DQLnV_11payjoin_cli3app2v2NtB5_3AppNtB7_3App6wallet
FN:342,_RNvXs4_NtNtCsdBQVr9DQLnV_11payjoin_cli3app2v2NtB5_3AppNtB7_3App7history
FN:65,_RNvXs_NtNtCsdBQVr9DQLnV_11payjoin_cli3app2v2NtNtNtNtCsgunIiAgq1He_7payjoin4core7receive2v214ReceiveSessionNtB4_10StatusText11status_text
FN:65,_RNvXs_NtNtCs6sB0kYsNxnG_11payjoin_cli3app2v2NtNtNtNtCsgunIiAgq1He_7payjoin4core7receive2v214ReceiveSessionNtB4_10StatusText11status_text
FN:104,_RNvMs0_NtNtCs6sB0kYsNxnG_11payjoin_cli3app2v2NtB5_4Role6as_str
FN:831,_RNvMs2_NtNtCs6sB0kYsNxnG_11payjoin_cli3app2v2NtB5_3App12handle_error
FN:856,_RNvMs2_NtNtCs6sB0kYsNxnG_11payjoin_cli3app2v2NtB5_3App12post_request
FN:627,_RNvMs2_NtNtCs6sB0kYsNxnG_11payjoin_cli3app2v2NtB5_3App14check_proposal
FN:691,_RNvMs2_NtNtCs6sB0kYsNxnG_11payjoin_cli3app2v2NtB5_3App14commit_outputs
FN:720,_RNvMs2_NtNtCs6sB0kYsNxnG_11payjoin_cli3app2v2NtB5_3App15apply_fee_range
FN:700,_RNvMs2_NtNtCs6sB0kYsNxnG_11payjoin_cli3app2v2NtB5_3App17contribute_inputs
FN:729,_RNvMs2_NtNtCs6sB0kYsNxnG_11payjoin_cli3app2v2NtB5_3App17finalize_proposal
FN:543,_RNvMs2_NtNtCs6sB0kYsNxnG_11payjoin_cli3app2v2NtB5_3App18long_poll_fallback
FN:611,_RNvMs2_NtNtCs6sB0kYsNxnG_11payjoin_cli3app2v2NtB5_3App19read_from_directory
FN:745,_RNvMs2_NtNtCs6sB0kYsNxnG_11payjoin_cli3app2v2NtB5_3App21send_payjoin_proposal
FN:646,_RNvMs2_NtNtCs6sB0kYsNxnG_11payjoin_cli3app2v2NtB5_3App22check_inputs_not_owned
FN:497,_RNvMs2_NtNtCs6sB0kYsNxnG_11payjoin_cli3app2v2NtB5_3App22post_original_proposal
FN:478,_RNvMs2_NtNtCs6sB0kYsNxnG_11payjoin_cli3app2v2NtB5_3App22process_sender_session
FN:764,_RNvMs2_NtNtCs6sB0kYsNxnG_11payjoin_cli3app2v2NtB5_3App24monitor_payjoin_proposal
FN:573,_RNvMs2_NtNtCs6sB0kYsNxnG_11payjoin_cli3app2v2NtB5_3App24process_receiver_session
FN:511,_RNvMs2_NtNtCs6sB0kYsNxnG_11payjoin_cli3app2v2NtB5_3App25get_proposed_payjoin_psbt
FN:675,_RNvMs2_NtNtCs6sB0kYsNxnG_11payjoin_cli3app2v2NtB5_3App25identify_receiver_outputs
FN:662,_RNvMs2_NtNtCs6sB0kYsNxnG_11payjoin_cli3app2v2NtB5_3App27check_no_inputs_seen_before
FN:92,_RNvNtNtCs6sB0kYsNxnG_11payjoin_cli3app2v212print_header
FN:157,_RNvXs4_NtNtCs6sB0kYsNxnG_11payjoin_cli3app2v2NtB5_3AppNtB7_3App12send_payjoin
FN:255,_RNvXs4_NtNtCs6sB0kYsNxnG_11payjoin_cli3app2v2NtB5_3AppNtB7_3App15receive_payjoin
FN:280,_RNvXs4_NtNtCs6sB0kYsNxnG_11payjoin_cli3app2v2NtB5_3AppNtB7_3App15resume_payjoins
FN:141,_RNvXs4_NtNtCs6sB0kYsNxnG_11payjoin_cli3app2v2NtB5_3AppNtB7_3App3new
FN:154,_RNvXs4_NtNtCs6sB0kYsNxnG_11payjoin_cli3app2v2NtB5_3AppNtB7_3App6wallet
FN:342,_RNvXs4_NtNtCs6sB0kYsNxnG_11payjoin_cli3app2v2NtB5_3AppNtB7_3App7history
FN:51,_RNvXNtNtCs6sB0kYsNxnG_11payjoin_cli3app2v2NtNtNtNtCsgunIiAgq1He_7payjoin4core4send2v211SendSessionNtB2_10StatusText11status_text
FN:467,_RINvMs2_NtNtCs6sB0kYsNxnG_11payjoin_cli3app2v2NtB6_3App20close_failed_sessionNtNtNtBa_2db2v215SenderPersisterEBa_
FN:467,_RINvMs2_NtNtCs6sB0kYsNxnG_11payjoin_cli3app2v2NtB6_3App20close_failed_sessionNtNtNtBa_2db2v217ReceiverPersisterEBa_
FN:813,_RINvMs2_NtNtCs6sB0kYsNxnG_11payjoin_cli3app2v2NtB6_3App26unwrap_relay_or_else_fetchRNtNtCs3JibHiv1CSv_5alloc6string6StringEBa_
FN:813,_RINvMs2_NtNtCs6sB0kYsNxnG_11payjoin_cli3app2v2NtB6_3App26unwrap_relay_or_else_fetchReEBa_
FN:816,_RNCINvMs2_NtNtCs6sB0kYsNxnG_11payjoin_cli3app2v2NtB8_3App26unwrap_relay_or_else_fetchRNtNtCs3JibHiv1CSv_5alloc6string6StringE0Bc_
FN:816,_RNCINvMs2_NtNtCs6sB0kYsNxnG_11payjoin_cli3app2v2NtB8_3App26unwrap_relay_or_else_fetchReE0Bc_
FN:817,_RNCNCINvMs2_NtNtCs6sB0kYsNxnG_11payjoin_cli3app2v2NtBa_3App26unwrap_relay_or_else_fetchRNtNtCs3JibHiv1CSv_5alloc6string6StringE00Be_
FN:817,_RNCNCINvMs2_NtNtCs6sB0kYsNxnG_11payjoin_cli3app2v2NtBa_3App26unwrap_relay_or_else_fetchReE00Be_
FN:785,_RNCNCNCNCNvMs2_NtNtCs6sB0kYsNxnG_11payjoin_cli3app2v2NtBd_3App24monitor_payjoin_proposal0000Bh_
FN:637,_RNCNCNCNvMs2_NtNtCs6sB0kYsNxnG_11payjoin_cli3app2v2NtBb_3App14check_proposal000Bf_
FN:739,_RNCNCNCNvMs2_NtNtCs6sB0kYsNxnG_11payjoin_cli3app2v2NtBb_3App17finalize_proposal000Bf_
FN:656,_RNCNCNCNvMs2_NtNtCs6sB0kYsNxnG_11payjoin_cli3app2v2NtBb_3App22check_inputs_not_owned000Bf_
FN:782,_RNCNCNCNvMs2_NtNtCs6sB0kYsNxnG_11payjoin_cli3app2v2NtBb_3App24monitor_payjoin_proposal000Bf_
FN:685,_RNCNCNCNvMs2_NtNtCs6sB0kYsNxnG_11payjoin_cli3app2v2NtBb_3App25identify_receiver_outputs000Bf_
FN:219,_RNCNCNCNvXs4_NtNtCs6sB0kYsNxnG_11payjoin_cli3app2v2NtBb_3AppNtBd_3App12send_payjoin0s5_00Bf_
FN:863,_RNCNCNvMs2_NtNtCs6sB0kYsNxnG_11payjoin_cli3app2v2NtB9_3App12post_request00Bd_
FN:634,_RNCNCNvMs2_NtNtCs6sB0kYsNxnG_11payjoin_cli3app2v2NtB9_3App14check_proposal00Bd_
FN:736,_RNCNCNvMs2_NtNtCs6sB0kYsNxnG_11payjoin_cli3app2v2NtB9_3App17finalize_proposal00Bd_
FN:752,_RNCNCNvMs2_NtNtCs6sB0kYsNxnG_11payjoin_cli3app2v2NtB9_3App21send_payjoin_proposal00Bd_
FN:653,_RNCNCNvMs2_NtNtCs6sB0kYsNxnG_11payjoin_cli3app2v2NtB9_3App22check_inputs_not_owned00Bd_
FN:778,_RNCNCNvMs2_NtNtCs6sB0kYsNxnG_11payjoin_cli3app2v2NtB9_3App24monitor_payjoin_proposal00Bd_
FN:682,_RNCNCNvMs2_NtNtCs6sB0kYsNxnG_11payjoin_cli3app2v2NtB9_3App25identify_receiver_outputs00Bd_
FN:668,_RNCNCNvMs2_NtNtCs6sB0kYsNxnG_11payjoin_cli3app2v2NtB9_3App27check_no_inputs_seen_before00Bd_
FN:160,_RNCNCNvXs4_NtNtCs6sB0kYsNxnG_11payjoin_cli3app2v2NtB9_3AppNtBb_3App12send_payjoin00Bd_
FN:165,_RNCNCNvXs4_NtNtCs6sB0kYsNxnG_11payjoin_cli3app2v2NtB9_3AppNtBb_3App12send_payjoin0s0_0Bd_
FN:192,_RNCNCNvXs4_NtNtCs6sB0kYsNxnG_11payjoin_cli3app2v2NtB9_3AppNtBb_3App12send_payjoin0s3_0Bd_
FN:199,_RNCNCNvXs4_NtNtCs6sB0kYsNxnG_11payjoin_cli3app2v2NtB9_3AppNtBb_3App12send_payjoin0s4_0Bd_
FN:210,_RNCNCNvXs4_NtNtCs6sB0kYsNxnG_11payjoin_cli3app2v2NtB9_3AppNtBb_3App12send_payjoin0s5_0Bd_
FN:163,_RNCNCNvXs4_NtNtCs6sB0kYsNxnG_11payjoin_cli3app2v2NtB9_3AppNtBb_3App12send_payjoin0s_0Bd_
FN:297,_RNCNCNvXs4_NtNtCs6sB0kYsNxnG_11payjoin_cli3app2v2NtB9_3AppNtBb_3App15resume_payjoins00Bd_
FN:327,_RNCNCNvXs4_NtNtCs6sB0kYsNxnG_11payjoin_cli3app2v2NtB9_3AppNtBb_3App15resume_payjoins0s2_0Bd_
FN:314,_RNCNCNvXs4_NtNtCs6sB0kYsNxnG_11payjoin_cli3app2v2NtB9_3AppNtBb_3App15resume_payjoins0s_0Bd_
FN:346,_RNCNCNvXs4_NtNtCs6sB0kYsNxnG_11payjoin_cli3app2v2NtB9_3AppNtBb_3App7history00Bd_
FN:399,_RNCNCNvXs4_NtNtCs6sB0kYsNxnG_11payjoin_cli3app2v2NtB9_3AppNtBb_3App7history0s0_0Bd_
FN:427,_RNCNCNvXs4_NtNtCs6sB0kYsNxnG_11payjoin_cli3app2v2NtB9_3AppNtBb_3App7history0s1_0Bd_
FN:372,_RNCNCNvXs4_NtNtCs6sB0kYsNxnG_11payjoin_cli3app2v2NtB9_3AppNtBb_3App7history0s_0Bd_
FN:835,_RNCNvMs2_NtNtCs6sB0kYsNxnG_11payjoin_cli3app2v2NtB7_3App12handle_error0Bb_
FN:856,_RNCNvMs2_NtNtCs6sB0kYsNxnG_11payjoin_cli3app2v2NtB7_3App12post_request0Bb_
FN:631,_RNCNvMs2_NtNtCs6sB0kYsNxnG_11payjoin_cli3app2v2NtB7_3App14check_proposal0Bb_
FN:695,_RNCNvMs2_NtNtCs6sB0kYsNxnG_11payjoin_cli3app2v2NtB7_3App14commit_outputs0Bb_
FN:724,_RNCNvMs2_NtNtCs6sB0kYsNxnG_11payjoin_cli3app2v2NtB7_3App15apply_fee_range0Bb_
FN:704,_RNCNvMs2_NtNtCs6sB0kYsNxnG_11payjoin_cli3app2v2NtB7_3App17contribute_inputs0Bb_
FN:733,_RNCNvMs2_NtNtCs6sB0kYsNxnG_11payjoin_cli3app2v2NtB7_3App17finalize_proposal0Bb_
FN:547,_RNCNvMs2_NtNtCs6sB0kYsNxnG_11payjoin_cli3app2v2NtB7_3App18long_poll_fallback0Bb_
FN:615,_RNCNvMs2_NtNtCs6sB0kYsNxnG_11payjoin_cli3app2v2NtB7_3App19read_from_directory0Bb_
FN:749,_RNCNvMs2_NtNtCs6sB0kYsNxnG_11payjoin_cli3app2v2NtB7_3App21send_payjoin_proposal0Bb_
FN:650,_RNCNvMs2_NtNtCs6sB0kYsNxnG_11payjoin_cli3app2v2NtB7_3App22check_inputs_not_owned0Bb_
FN:501,_RNCNvMs2_NtNtCs6sB0kYsNxnG_11payjoin_cli3app2v2NtB7_3App22post_original_proposal0Bb_
FN:482,_RNCNvMs2_NtNtCs6sB0kYsNxnG_11payjoin_cli3app2v2NtB7_3App22process_sender_session0Bb_
FN:768,_RNCNvMs2_NtNtCs6sB0kYsNxnG_11payjoin_cli3app2v2NtB7_3App24monitor_payjoin_proposal0Bb_
FN:577,_RNCNvMs2_NtNtCs6sB0kYsNxnG_11payjoin_cli3app2v2NtB7_3App24process_receiver_session0Bb_
FN:515,_RNCNvMs2_NtNtCs6sB0kYsNxnG_11payjoin_cli3app2v2NtB7_3App25get_proposed_payjoin_psbt0Bb_
FN:679,_RNCNvMs2_NtNtCs6sB0kYsNxnG_11payjoin_cli3app2v2NtB7_3App25identify_receiver_outputs0Bb_
FN:666,_RNCNvMs2_NtNtCs6sB0kYsNxnG_11payjoin_cli3app2v2NtB7_3App27check_no_inputs_seen_before0Bb_
FN:121,_RNvXs1_NtNtCs6sB0kYsNxnG_11payjoin_cli3app2v2INtB5_17SessionHistoryRowNtNtNtNtCsgunIiAgq1He_7payjoin4core4send2v211SendSessionENtNtCs2hl1TO11rA7_4core3fmt7Display3fmtB9_
FN:121,_RNvXs1_NtNtCs6sB0kYsNxnG_11payjoin_cli3app2v2INtB5_17SessionHistoryRowNtNtNtNtCsgunIiAgq1He_7payjoin4core7receive2v214ReceiveSessionENtNtCs2hl1TO11rA7_4core3fmt7Display3fmtB9_
FNDA:0,_RINvMs2_NtNtCsdBQVr9DQLnV_11payjoin_cli3app2v2NtB6_3App20close_failed_sessionpEBa_
FNDA:0,_RINvMs2_NtNtCsdBQVr9DQLnV_11payjoin_cli3app2v2NtB6_3App26unwrap_relay_or_else_fetchpEBa_
FNDA:0,_RNCINvMs2_NtNtCsdBQVr9DQLnV_11payjoin_cli3app2v2NtB8_3App26unwrap_relay_or_else_fetchpE0Bc_
FNDA:0,_RNCNCINvMs2_NtNtCsdBQVr9DQLnV_11payjoin_cli3app2v2NtBa_3App26unwrap_relay_or_else_fetchpE00Be_
FNDA:0,_RNCNCNCNCNvMs2_NtNtCsdBQVr9DQLnV_11payjoin_cli3app2v2NtBd_3App24monitor_payjoin_proposal0000Bh_
FNDA:0,_RNCNCNCNvMs2_NtNtCsdBQVr9DQLnV_11payjoin_cli3app2v2NtBb_3App14check_proposal000Bf_
FNDA:0,_RNCNCNCNvMs2_NtNtCsdBQVr9DQLnV_11payjoin_cli3app2v2NtBb_3App17finalize_proposal000Bf_
FNDA:0,_RNCNCNCNvMs2_NtNtCsdBQVr9DQLnV_11payjoin_cli3app2v2NtBb_3App22check_inputs_not_owned000Bf_
FNDA:0,_RNCNCNCNvMs2_NtNtCsdBQVr9DQLnV_11payjoin_cli3app2v2NtBb_3App24monitor_payjoin_proposal000Bf_
FNDA:0,_RNCNCNCNvMs2_NtNtCsdBQVr9DQLnV_11payjoin_cli3app2v2NtBb_3App25identify_receiver_outputs000Bf_
FNDA:0,_RNCNCNCNvXs4_NtNtCsdBQVr9DQLnV_11payjoin_cli3app2v2NtBb_3AppNtBd_3App12send_payjoin0s5_00Bf_
FNDA:0,_RNCNCNvMs2_NtNtCsdBQVr9DQLnV_11payjoin_cli3app2v2NtB9_3App12post_request00Bd_
FNDA:0,_RNCNCNvMs2_NtNtCsdBQVr9DQLnV_11payjoin_cli3app2v2NtB9_3App14check_proposal00Bd_
FNDA:0,_RNCNCNvMs2_NtNtCsdBQVr9DQLnV_11payjoin_cli3app2v2NtB9_3App17finalize_proposal00Bd_
FNDA:0,_RNCNCNvMs2_NtNtCsdBQVr9DQLnV_11payjoin_cli3app2v2NtB9_3App21send_payjoin_proposal00Bd_
FNDA:0,_RNCNCNvMs2_NtNtCsdBQVr9DQLnV_11payjoin_cli3app2v2NtB9_3App22check_inputs_not_owned00Bd_
FNDA:0,_RNCNCNvMs2_NtNtCsdBQVr9DQLnV_11payjoin_cli3app2v2NtB9_3App24monitor_payjoin_proposal00Bd_
FNDA:0,_RNCNCNvMs2_NtNtCsdBQVr9DQLnV_11payjoin_cli3app2v2NtB9_3App25identify_receiver_outputs00Bd_
FNDA:0,_RNCNCNvMs2_NtNtCsdBQVr9DQLnV_11payjoin_cli3app2v2NtB9_3App27check_no_inputs_seen_before00Bd_
FNDA:0,_RNCNCNvXs4_NtNtCsdBQVr9DQLnV_11payjoin_cli3app2v2NtB9_3AppNtBb_3App12send_payjoin00Bd_
FNDA:0,_RNCNCNvXs4_NtNtCsdBQVr9DQLnV_11payjoin_cli3app2v2NtB9_3AppNtBb_3App12send_payjoin0s0_0Bd_
FNDA:0,_RNCNCNvXs4_NtNtCsdBQVr9DQLnV_11payjoin_cli3app2v2NtB9_3AppNtBb_3App12send_payjoin0s3_0Bd_
FNDA:0,_RNCNCNvXs4_NtNtCsdBQVr9DQLnV_11payjoin_cli3app2v2NtB9_3AppNtBb_3App12send_payjoin0s4_0Bd_
FNDA:0,_RNCNCNvXs4_NtNtCsdBQVr9DQLnV_11payjoin_cli3app2v2NtB9_3AppNtBb_3App12send_payjoin0s5_0Bd_
FNDA:0,_RNCNCNvXs4_NtNtCsdBQVr9DQLnV_11payjoin_cli3app2v2NtB9_3AppNtBb_3App12send_payjoin0s_0Bd_
FNDA:0,_RNCNCNvXs4_NtNtCsdBQVr9DQLnV_11payjoin_cli3app2v2NtB9_3AppNtBb_3App15resume_payjoins00Bd_
FNDA:0,_RNCNCNvXs4_NtNtCsdBQVr9DQLnV_11payjoin_cli3app2v2NtB9_3AppNtBb_3App15resume_payjoins0s2_0Bd_
FNDA:0,_RNCNCNvXs4_NtNtCsdBQVr9DQLnV_11payjoin_cli3app2v2NtB9_3AppNtBb_3App15resume_payjoins0s_0Bd_
FNDA:0,_RNCNCNvXs4_NtNtCsdBQVr9DQLnV_11payjoin_cli3app2v2NtB9_3AppNtBb_3App7history00Bd_
FNDA:0,_RNCNCNvXs4_NtNtCsdBQVr9DQLnV_11payjoin_cli3app2v2NtB9_3AppNtBb_3App7history0s0_0Bd_
FNDA:0,_RNCNCNvXs4_NtNtCsdBQVr9DQLnV_11payjoin_cli3app2v2NtB9_3AppNtBb_3App7history0s1_0Bd_
FNDA:0,_RNCNCNvXs4_NtNtCsdBQVr9DQLnV_11payjoin_cli3app2v2NtB9_3AppNtBb_3App7history0s_0Bd_
FNDA:0,_RNCNvMs2_NtNtCsdBQVr9DQLnV_11payjoin_cli3app2v2NtB7_3App12handle_error0Bb_
FNDA:0,_RNCNvMs2_NtNtCsdBQVr9DQLnV_11payjoin_cli3app2v2NtB7_3App12post_request0Bb_
FNDA:0,_RNCNvMs2_NtNtCsdBQVr9DQLnV_11payjoin_cli3app2v2NtB7_3App14check_proposal0Bb_
FNDA:0,_RNCNvMs2_NtNtCsdBQVr9DQLnV_11payjoin_cli3app2v2NtB7_3App14commit_outputs0Bb_
FNDA:0,_RNCNvMs2_NtNtCsdBQVr9DQLnV_11payjoin_cli3app2v2NtB7_3App15apply_fee_range0Bb_
FNDA:0,_RNCNvMs2_NtNtCsdBQVr9DQLnV_11payjoin_cli3app2v2NtB7_3App17contribute_inputs0Bb_
FNDA:0,_RNCNvMs2_NtNtCsdBQVr9DQLnV_11payjoin_cli3app2v2NtB7_3App17finalize_proposal0Bb_
FNDA:0,_RNCNvMs2_NtNtCsdBQVr9DQLnV_11payjoin_cli3app2v2NtB7_3App18long_poll_fallback0Bb_
FNDA:0,_RNCNvMs2_NtNtCsdBQVr9DQLnV_11payjoin_cli3app2v2NtB7_3App19read_from_directory0Bb_
FNDA:0,_RNCNvMs2_NtNtCsdBQVr9DQLnV_11payjoin_cli3app2v2NtB7_3App21send_payjoin_proposal0Bb_
FNDA:0,_RNCNvMs2_NtNtCsdBQVr9DQLnV_11payjoin_cli3app2v2NtB7_3App22check_inputs_not_owned0Bb_
FNDA:0,_RNCNvMs2_NtNtCsdBQVr9DQLnV_11payjoin_cli3app2v2NtB7_3App22post_original_proposal0Bb_
FNDA:0,_RNCNvMs2_NtNtCsdBQVr9DQLnV_11payjoin_cli3app2v2NtB7_3App22process_sender_session0Bb_
FNDA:0,_RNCNvMs2_NtNtCsdBQVr9DQLnV_11payjoin_cli3app2v2NtB7_3App24monitor_payjoin_proposal0Bb_
FNDA:0,_RNCNvMs2_NtNtCsdBQVr9DQLnV_11payjoin_cli3app2v2NtB7_3App24process_receiver_session0Bb_
FNDA:0,_RNCNvMs2_NtNtCsdBQVr9DQLnV_11payjoin_cli3app2v2NtB7_3App25get_proposed_payjoin_psbt0Bb_
FNDA:0,_RNCNvMs2_NtNtCsdBQVr9DQLnV_11payjoin_cli3app2v2NtB7_3App25identify_receiver_outputs0Bb_
FNDA:0,_RNCNvMs2_NtNtCsdBQVr9DQLnV_11payjoin_cli3app2v2NtB7_3App27check_no_inputs_seen_before0Bb_
FNDA:0,_RNvMs0_NtNtCsdBQVr9DQLnV_11payjoin_cli3app2v2NtB5_4Role6as_str
FNDA:0,_RNvMs2_NtNtCsdBQVr9DQLnV_11payjoin_cli3app2v2NtB5_3App12handle_error
FNDA:0,_RNvMs2_NtNtCsdBQVr9DQLnV_11payjoin_cli3app2v2NtB5_3App12post_request
FNDA:0,_RNvMs2_NtNtCsdBQVr9DQLnV_11payjoin_cli3app2v2NtB5_3App14check_proposal
FNDA:0,_RNvMs2_NtNtCsdBQVr9DQLnV_11payjoin_cli3app2v2NtB5_3App14commit_outputs
FNDA:0,_RNvMs2_NtNtCsdBQVr9DQLnV_11payjoin_cli3app2v2NtB5_3App15apply_fee_range
FNDA:0,_RNvMs2_NtNtCsdBQVr9DQLnV_11payjoin_cli3app2v2NtB5_3App17contribute_inputs
FNDA:0,_RNvMs2_NtNtCsdBQVr9DQLnV_11payjoin_cli3app2v2NtB5_3App17finalize_proposal
FNDA:0,_RNvMs2_NtNtCsdBQVr9DQLnV_11payjoin_cli3app2v2NtB5_3App18long_poll_fallback
FNDA:0,_RNvMs2_NtNtCsdBQVr9DQLnV_11payjoin_cli3app2v2NtB5_3App19read_from_directory
FNDA:0,_RNvMs2_NtNtCsdBQVr9DQLnV_11payjoin_cli3app2v2NtB5_3App21send_payjoin_proposal
FNDA:0,_RNvMs2_NtNtCsdBQVr9DQLnV_11payjoin_cli3app2v2NtB5_3App22check_inputs_not_owned
FNDA:0,_RNvMs2_NtNtCsdBQVr9DQLnV_11payjoin_cli3app2v2NtB5_3App22post_original_proposal
FNDA:0,_RNvMs2_NtNtCsdBQVr9DQLnV_11payjoin_cli3app2v2NtB5_3App22process_sender_session
FNDA:0,_RNvMs2_NtNtCsdBQVr9DQLnV_11payjoin_cli3app2v2NtB5_3App24monitor_payjoin_proposal
FNDA:0,_RNvMs2_NtNtCsdBQVr9DQLnV_11payjoin_cli3app2v2NtB5_3App24process_receiver_session
FNDA:0,_RNvMs2_NtNtCsdBQVr9DQLnV_11payjoin_cli3app2v2NtB5_3App25get_proposed_payjoin_psbt
FNDA:0,_RNvMs2_NtNtCsdBQVr9DQLnV_11payjoin_cli3app2v2NtB5_3App25identify_receiver_outputs
FNDA:0,_RNvMs2_NtNtCsdBQVr9DQLnV_11payjoin_cli3app2v2NtB5_3App27check_no_inputs_seen_before
FNDA:0,_RNvNtNtCsdBQVr9DQLnV_11payjoin_cli3app2v212print_header
FNDA:0,_RNvXININtNtCsdBQVr9DQLnV_11payjoin_cli3app2v2s1_0pEINtB5_17SessionHistoryRowpENtNtCs2hl1TO11rA7_4core3fmt7Display3fmtB9_
FNDA:0,_RNvXNtNtCsdBQVr9DQLnV_11payjoin_cli3app2v2NtNtNtNtCsgunIiAgq1He_7payjoin4core4send2v211SendSessionNtB2_10StatusText11status_text
FNDA:0,_RNvXs4_NtNtCsdBQVr9DQLnV_11payjoin_cli3app2v2NtB5_3AppNtB7_3App12send_payjoin
FNDA:0,_RNvXs4_NtNtCsdBQVr9DQLnV_11payjoin_cli3app2v2NtB5_3AppNtB7_3App15receive_payjoin
FNDA:0,_RNvXs4_NtNtCsdBQVr9DQLnV_11payjoin_cli3app2v2NtB5_3AppNtB7_3App15resume_payjoins
FNDA:0,_RNvXs4_NtNtCsdBQVr9DQLnV_11payjoin_cli3app2v2NtB5_3AppNtB7_3App3new
FNDA:0,_RNvXs4_NtNtCsdBQVr9DQLnV_11payjoin_cli3app2v2NtB5_3AppNtB7_3App6wallet
FNDA:0,_RNvXs4_NtNtCsdBQVr9DQLnV_11payjoin_cli3app2v2NtB5_3AppNtB7_3App7history
FNDA:0,_RNvXs_NtNtCsdBQVr9DQLnV_11payjoin_cli3app2v2NtNtNtNtCsgunIiAgq1He_7payjoin4core7receive2v214ReceiveSessionNtB4_10StatusText11status_text
FNDA:0,_RNvXs_NtNtCs6sB0kYsNxnG_11payjoin_cli3app2v2NtNtNtNtCsgunIiAgq1He_7payjoin4core7receive2v214ReceiveSessionNtB4_10StatusText11status_text
FNDA:0,_RNvMs0_NtNtCs6sB0kYsNxnG_11payjoin_cli3app2v2NtB5_4Role6as_str
FNDA:0,_RNvMs2_NtNtCs6sB0kYsNxnG_11payjoin_cli3app2v2NtB5_3App12handle_error
FNDA:7,_RNvMs2_NtNtCs6sB0kYsNxnG_11payjoin_cli3app2v2NtB5_3App12post_request
FNDA:1,_RNvMs2_NtNtCs6sB0kYsNxnG_11payjoin_cli3app2v2NtB5_3App14check_proposal
FNDA:1,_RNvMs2_NtNtCs6sB0kYsNxnG_11payjoin_cli3app2v2NtB5_3App14commit_outputs
FNDA:1,_RNvMs2_NtNtCs6sB0kYsNxnG_11payjoin_cli3app2v2NtB5_3App15apply_fee_range
FNDA:1,_RNvMs2_NtNtCs6sB0kYsNxnG_11payjoin_cli3app2v2NtB5_3App17contribute_inputs
FNDA:1,_RNvMs2_NtNtCs6sB0kYsNxnG_11payjoin_cli3app2v2NtB5_3App17finalize_proposal
FNDA:2,_RNvMs2_NtNtCs6sB0kYsNxnG_11payjoin_cli3app2v2NtB5_3App18long_poll_fallback
FNDA:2,_RNvMs2_NtNtCs6sB0kYsNxnG_11payjoin_cli3app2v2NtB5_3App19read_from_directory
FNDA:1,_RNvMs2_NtNtCs6sB0kYsNxnG_11payjoin_cli3app2v2NtB5_3App21send_payjoin_proposal
FNDA:1,_RNvMs2_NtNtCs6sB0kYsNxnG_11payjoin_cli3app2v2NtB5_3App22check_inputs_not_owned
FNDA:1,_RNvMs2_NtNtCs6sB0kYsNxnG_11payjoin_cli3app2v2NtB5_3App22post_original_proposal
FNDA:2,_RNvMs2_NtNtCs6sB0kYsNxnG_11payjoin_cli3app2v2NtB5_3App22process_sender_session
FNDA:2,_RNvMs2_NtNtCs6sB0kYsNxnG_11payjoin_cli3app2v2NtB5_3App24monitor_payjoin_proposal
FNDA:3,_RNvMs2_NtNtCs6sB0kYsNxnG_11payjoin_cli3app2v2NtB5_3App24process_receiver_session
FNDA:2,_RNvMs2_NtNtCs6sB0kYsNxnG_11payjoin_cli3app2v2NtB5_3App25get_proposed_payjoin_psbt
FNDA:1,_RNvMs2_NtNtCs6sB0kYsNxnG_11payjoin_cli3app2v2NtB5_3App25identify_receiver_outputs
FNDA:1,_RNvMs2_NtNtCs6sB0kYsNxnG_11payjoin_cli3app2v2NtB5_3App27check_no_inputs_seen_before
FNDA:0,_RNvNtNtCs6sB0kYsNxnG_11payjoin_cli3app2v212print_header
FNDA:3,_RNvXs4_NtNtCs6sB0kYsNxnG_11payjoin_cli3app2v2NtB5_3AppNtB7_3App12send_payjoin
FNDA:1,_RNvXs4_NtNtCs6sB0kYsNxnG_11payjoin_cli3app2v2NtB5_3AppNtB7_3App15receive_payjoin
FNDA:4,_RNvXs4_NtNtCs6sB0kYsNxnG_11payjoin_cli3app2v2NtB5_3AppNtB7_3App15resume_payjoins
FNDA:8,_RNvXs4_NtNtCs6sB0kYsNxnG_11payjoin_cli3app2v2NtB5_3AppNtB7_3App3new
FNDA:23,_RNvXs4_NtNtCs6sB0kYsNxnG_11payjoin_cli3app2v2NtB5_3AppNtB7_3App6wallet
FNDA:0,_RNvXs4_NtNtCs6sB0kYsNxnG_11payjoin_cli3app2v2NtB5_3AppNtB7_3App7history
FNDA:0,_RNvXNtNtCs6sB0kYsNxnG_11payjoin_cli3app2v2NtNtNtNtCsgunIiAgq1He_7payjoin4core4send2v211SendSessionNtB2_10StatusText11status_text
FNDA:0,_RINvMs2_NtNtCs6sB0kYsNxnG_11payjoin_cli3app2v2NtB6_3App20close_failed_sessionNtNtNtBa_2db2v215SenderPersisterEBa_
FNDA:0,_RINvMs2_NtNtCs6sB0kYsNxnG_11payjoin_cli3app2v2NtB6_3App20close_failed_sessionNtNtNtBa_2db2v217ReceiverPersisterEBa_
FNDA:5,_RINvMs2_NtNtCs6sB0kYsNxnG_11payjoin_cli3app2v2NtB6_3App26unwrap_relay_or_else_fetchRNtNtCs3JibHiv1CSv_5alloc6string6StringEBa_
FNDA:1,_RINvMs2_NtNtCs6sB0kYsNxnG_11payjoin_cli3app2v2NtB6_3App26unwrap_relay_or_else_fetchReEBa_
FNDA:5,_RNCINvMs2_NtNtCs6sB0kYsNxnG_11payjoin_cli3app2v2NtB8_3App26unwrap_relay_or_else_fetchRNtNtCs3JibHiv1CSv_5alloc6string6StringE0Bc_
FNDA:1,_RNCINvMs2_NtNtCs6sB0kYsNxnG_11payjoin_cli3app2v2NtB8_3App26unwrap_relay_or_else_fetchReE0Bc_
FNDA:5,_RNCNCINvMs2_NtNtCs6sB0kYsNxnG_11payjoin_cli3app2v2NtBa_3App26unwrap_relay_or_else_fetchRNtNtCs3JibHiv1CSv_5alloc6string6StringE00Be_
FNDA:0,_RNCNCINvMs2_NtNtCs6sB0kYsNxnG_11payjoin_cli3app2v2NtBa_3App26unwrap_relay_or_else_fetchReE00Be_
FNDA:0,_RNCNCNCNCNvMs2_NtNtCs6sB0kYsNxnG_11payjoin_cli3app2v2NtBd_3App24monitor_payjoin_proposal0000Bh_
FNDA:0,_RNCNCNCNvMs2_NtNtCs6sB0kYsNxnG_11payjoin_cli3app2v2NtBb_3App14check_proposal000Bf_
FNDA:0,_RNCNCNCNvMs2_NtNtCs6sB0kYsNxnG_11payjoin_cli3app2v2NtBb_3App17finalize_proposal000Bf_
FNDA:0,_RNCNCNCNvMs2_NtNtCs6sB0kYsNxnG_11payjoin_cli3app2v2NtBb_3App22check_inputs_not_owned000Bf_
FNDA:1,_RNCNCNCNvMs2_NtNtCs6sB0kYsNxnG_11payjoin_cli3app2v2NtBb_3App24monitor_payjoin_proposal000Bf_
FNDA:0,_RNCNCNCNvMs2_NtNtCs6sB0kYsNxnG_11payjoin_cli3app2v2NtBb_3App25identify_receiver_outputs000Bf_
FNDA:0,_RNCNCNCNvXs4_NtNtCs6sB0kYsNxnG_11payjoin_cli3app2v2NtBb_3AppNtBd_3App12send_payjoin0s5_00Bf_
FNDA:5,_RNCNCNvMs2_NtNtCs6sB0kYsNxnG_11payjoin_cli3app2v2NtB9_3App12post_request00Bd_
FNDA:1,_RNCNCNvMs2_NtNtCs6sB0kYsNxnG_11payjoin_cli3app2v2NtB9_3App14check_proposal00Bd_
FNDA:1,_RNCNCNvMs2_NtNtCs6sB0kYsNxnG_11payjoin_cli3app2v2NtB9_3App17finalize_proposal00Bd_
FNDA:0,_RNCNCNvMs2_NtNtCs6sB0kYsNxnG_11payjoin_cli3app2v2NtB9_3App21send_payjoin_proposal00Bd_
FNDA:1,_RNCNCNvMs2_NtNtCs6sB0kYsNxnG_11payjoin_cli3app2v2NtB9_3App22check_inputs_not_owned00Bd_
FNDA:1,_RNCNCNvMs2_NtNtCs6sB0kYsNxnG_11payjoin_cli3app2v2NtB9_3App24monitor_payjoin_proposal00Bd_
FNDA:2,_RNCNCNvMs2_NtNtCs6sB0kYsNxnG_11payjoin_cli3app2v2NtB9_3App25identify_receiver_outputs00Bd_
FNDA:1,_RNCNCNvMs2_NtNtCs6sB0kYsNxnG_11payjoin_cli3app2v2NtB9_3App27check_no_inputs_seen_before00Bd_
FNDA:0,_RNCNCNvXs4_NtNtCs6sB0kYsNxnG_11payjoin_cli3app2v2NtB9_3AppNtBb_3App12send_payjoin00Bd_
FNDA:0,_RNCNCNvXs4_NtNtCs6sB0kYsNxnG_11payjoin_cli3app2v2NtB9_3AppNtBb_3App12send_payjoin0s0_0Bd_
FNDA:0,_RNCNCNvXs4_NtNtCs6sB0kYsNxnG_11payjoin_cli3app2v2NtB9_3AppNtBb_3App12send_payjoin0s3_0Bd_
FNDA:0,_RNCNCNvXs4_NtNtCs6sB0kYsNxnG_11payjoin_cli3app2v2NtB9_3AppNtBb_3App12send_payjoin0s4_0Bd_
FNDA:1,_RNCNCNvXs4_NtNtCs6sB0kYsNxnG_11payjoin_cli3app2v2NtB9_3AppNtBb_3App12send_payjoin0s5_0Bd_
FNDA:0,_RNCNCNvXs4_NtNtCs6sB0kYsNxnG_11payjoin_cli3app2v2NtB9_3AppNtBb_3App12send_payjoin0s_0Bd_
FNDA:2,_RNCNCNvXs4_NtNtCs6sB0kYsNxnG_11payjoin_cli3app2v2NtB9_3AppNtBb_3App15resume_payjoins00Bd_
FNDA:2,_RNCNCNvXs4_NtNtCs6sB0kYsNxnG_11payjoin_cli3app2v2NtB9_3AppNtBb_3App15resume_payjoins0s2_0Bd_
FNDA:0,_RNCNCNvXs4_NtNtCs6sB0kYsNxnG_11payjoin_cli3app2v2NtB9_3AppNtBb_3App15resume_payjoins0s_0Bd_
FNDA:0,_RNCNCNvXs4_NtNtCs6sB0kYsNxnG_11payjoin_cli3app2v2NtB9_3AppNtBb_3App7history00Bd_
FNDA:0,_RNCNCNvXs4_NtNtCs6sB0kYsNxnG_11payjoin_cli3app2v2NtB9_3AppNtBb_3App7history0s0_0Bd_
FNDA:0,_RNCNCNvXs4_NtNtCs6sB0kYsNxnG_11payjoin_cli3app2v2NtB9_3AppNtBb_3App7history0s1_0Bd_
FNDA:0,_RNCNCNvXs4_NtNtCs6sB0kYsNxnG_11payjoin_cli3app2v2NtB9_3AppNtBb_3App7history0s_0Bd_
FNDA:0,_RNCNvMs2_NtNtCs6sB0kYsNxnG_11payjoin_cli3app2v2NtB7_3App12handle_error0Bb_
FNDA:7,_RNCNvMs2_NtNtCs6sB0kYsNxnG_11payjoin_cli3app2v2NtB7_3App12post_request0Bb_
FNDA:1,_RNCNvMs2_NtNtCs6sB0kYsNxnG_11payjoin_cli3app2v2NtB7_3App14check_proposal0Bb_
FNDA:1,_RNCNvMs2_NtNtCs6sB0kYsNxnG_11payjoin_cli3app2v2NtB7_3App14commit_outputs0Bb_
FNDA:1,_RNCNvMs2_NtNtCs6sB0kYsNxnG_11payjoin_cli3app2v2NtB7_3App15apply_fee_range0Bb_
FNDA:1,_RNCNvMs2_NtNtCs6sB0kYsNxnG_11payjoin_cli3app2v2NtB7_3App17contribute_inputs0Bb_
FNDA:1,_RNCNvMs2_NtNtCs6sB0kYsNxnG_11payjoin_cli3app2v2NtB7_3App17finalize_proposal0Bb_
FNDA:2,_RNCNvMs2_NtNtCs6sB0kYsNxnG_11payjoin_cli3app2v2NtB7_3App18long_poll_fallback0Bb_
FNDA:2,_RNCNvMs2_NtNtCs6sB0kYsNxnG_11payjoin_cli3app2v2NtB7_3App19read_from_directory0Bb_
FNDA:1,_RNCNvMs2_NtNtCs6sB0kYsNxnG_11payjoin_cli3app2v2NtB7_3App21send_payjoin_proposal0Bb_
FNDA:1,_RNCNvMs2_NtNtCs6sB0kYsNxnG_11payjoin_cli3app2v2NtB7_3App22check_inputs_not_owned0Bb_
FNDA:1,_RNCNvMs2_NtNtCs6sB0kYsNxnG_11payjoin_cli3app2v2NtB7_3App22post_original_proposal0Bb_
FNDA:2,_RNCNvMs2_NtNtCs6sB0kYsNxnG_11payjoin_cli3app2v2NtB7_3App22process_sender_session0Bb_
FNDA:2,_RNCNvMs2_NtNtCs6sB0kYsNxnG_11payjoin_cli3app2v2NtB7_3App24monitor_payjoin_proposal0Bb_
FNDA:3,_RNCNvMs2_NtNtCs6sB0kYsNxnG_11payjoin_cli3app2v2NtB7_3App24process_receiver_session0Bb_
FNDA:2,_RNCNvMs2_NtNtCs6sB0kYsNxnG_11payjoin_cli3app2v2NtB7_3App25get_proposed_payjoin_psbt0Bb_
FNDA:1,_RNCNvMs2_NtNtCs6sB0kYsNxnG_11payjoin_cli3app2v2NtB7_3App25identify_receiver_outputs0Bb_
FNDA:1,_RNCNvMs2_NtNtCs6sB0kYsNxnG_11payjoin_cli3app2v2NtB7_3App27check_no_inputs_seen_before0Bb_
FNDA:0,_RNvXs1_NtNtCs6sB0kYsNxnG_11payjoin_cli3app2v2INtB5_17SessionHistoryRowNtNtNtNtCsgunIiAgq1He_7payjoin4core4send2v211SendSessionENtNtCs2hl1TO11rA7_4core3fmt7Display3fmtB9_
FNDA:0,_RNvXs1_NtNtCs6sB0kYsNxnG_11payjoin_cli3app2v2INtB5_17SessionHistoryRowNtNtNtNtCsgunIiAgq1He_7payjoin4core7receive2v214ReceiveSessionENtNtCs2hl1TO11rA7_4core3fmt7Display3fmtB9_
FNF:79
FNH:53
DA:51,0
DA:52,0
DA:54,0
DA:55,0
DA:56,0
DA:57,0
DA:58,0
DA:61,0
DA:65,0
DA:66,0
DA:67,0
DA:75,0
DA:76,0
DA:78,0
DA:79,0
DA:80,0
DA:81,0
DA:82,0
DA:83,0
DA:84,0
DA:86,0
DA:89,0
DA:92,0
DA:93,0
DA:97,0
DA:104,0
DA:105,0
DA:106,0
DA:107,0
DA:109,0
DA:121,0
DA:122,0
DA:123,0
DA:125,0
DA:126,0
DA:127,0
DA:128,0
DA:129,0
DA:131,0
DA:134,0
DA:136,0
DA:141,8
DA:152,8
DA:154,23
DA:157,3
DA:160,0
DA:163,0
DA:165,0
DA:192,0
DA:199,0
DA:200,0
DA:201,0
DA:202,0
DA:210,1
DA:211,1
DA:212,1
DA:213,1
DA:214,1
DA:215,1
DA:216,1
DA:217,1
DA:218,1
DA:219,1
DA:220,1
DA:222,1
DA:224,0
DA:226,1
DA:253,3
DA:255,1
DA:277,1
DA:280,4
DA:297,2
DA:298,2
DA:299,1
DA:314,0
DA:315,0
DA:316,0
DA:327,2
DA:328,2
DA:329,2
DA:331,1
DA:339,4
DA:342,0
DA:346,0
DA:347,0
DA:348,0
DA:349,0
DA:350,0
DA:351,0
DA:352,0
DA:353,0
DA:354,0
DA:355,0
DA:356,0
DA:357,0
DA:358,0
DA:359,0
DA:360,0
DA:361,0
DA:362,0
DA:363,0
DA:364,0
DA:365,0
DA:366,0
DA:367,0
DA:368,0
DA:370,0
DA:372,0
DA:373,0
DA:374,0
DA:375,0
DA:376,0
DA:377,0
DA:378,0
DA:379,0
DA:380,0
DA:381,0
DA:382,0
DA:383,0
DA:384,0
DA:385,0
DA:386,0
DA:387,0
DA:388,0
DA:389,0
DA:390,0
DA:391,0
DA:392,0
DA:393,0
DA:394,0
DA:396,0
DA:399,0
DA:400,0
DA:401,0
DA:402,0
DA:403,0
DA:404,0
DA:405,0
DA:406,0
DA:407,0
DA:408,0
DA:409,0
DA:410,0
DA:411,0
DA:412,0
DA:413,0
DA:414,0
DA:415,0
DA:416,0
DA:417,0
DA:418,0
DA:419,0
DA:420,0
DA:421,0
DA:423,0
DA:427,0
DA:428,0
DA:429,0
DA:430,0
DA:431,0
DA:432,0
DA:433,0
DA:434,0
DA:435,0
DA:436,0
DA:437,0
DA:438,0
DA:439,0
DA:440,0
DA:441,0
DA:442,0
DA:443,0
DA:444,0
DA:445,0
DA:446,0
DA:447,0
DA:448,0
DA:449,0
DA:451,0
DA:463,0
DA:467,0
DA:468,0
DA:469,0
DA:471,0
DA:472,0
DA:474,0
DA:476,0
DA:478,2
DA:479,2
DA:480,2
DA:481,2
DA:482,2
DA:483,0
DA:484,1
DA:485,1
DA:486,1
DA:487,1
DA:488,0
DA:489,0
DA:490,0
DA:492,0
DA:494,1
DA:495,1
DA:497,1
DA:498,1
DA:499,1
DA:500,1
DA:501,1
DA:502,1
DA:503,1
DA:504,0
DA:505,1
DA:506,1
DA:507,1
DA:508,1
DA:509,0
DA:511,2
DA:512,2
DA:513,2
DA:514,2
DA:515,2
DA:516,2
DA:517,2
DA:520,3
DA:521,3
DA:522,2
DA:523,2
DA:524,1
DA:525,1
DA:526,1
DA:527,1
DA:529,1
DA:530,1
DA:531,1
DA:532,1
DA:534,0
DA:535,0
DA:536,0
DA:537,0
DA:541,1
DA:543,2
DA:544,2
DA:545,2
DA:546,2
DA:547,2
DA:548,2
DA:549,2
DA:551,2
DA:553,2
DA:554,2
DA:555,2
DA:556,1
DA:557,1
DA:558,1
DA:559,1
DA:560,1
DA:561,1
DA:562,1
DA:564,0
DA:565,0
DA:566,0
DA:568,0
DA:571,1
DA:573,3
DA:574,3
DA:575,3
DA:576,3
DA:577,3
DA:578,2
DA:579,3
DA:580,2
DA:581,2
DA:582,0
DA:583,0
DA:584,0
DA:585,0
DA:586,0
DA:587,0
DA:588,0
DA:589,0
DA:590,0
DA:591,0
DA:592,0
DA:593,0
DA:594,0
DA:595,0
DA:596,0
DA:597,0
DA:598,0
DA:599,0
DA:600,0
DA:601,0
DA:602,1
DA:603,1
DA:604,0
DA:607,2
DA:608,2
DA:611,2
DA:612,2
DA:613,2
DA:614,2
DA:615,2
DA:616,2
DA:617,2
DA:618,2
DA:619,2
DA:620,1
DA:621,1
DA:623,0
DA:624,1
DA:625,1
DA:627,1
DA:628,1
DA:629,1
DA:630,1
DA:631,1
DA:632,1
DA:633,1
DA:634,1
DA:635,1
DA:636,1
DA:637,1
DA:638,1
DA:639,1
DA:641,1
DA:642,1
DA:643,1
DA:644,0
DA:646,1
DA:647,1
DA:648,1
DA:649,1
DA:650,1
DA:651,1
DA:652,1
DA:653,1
DA:654,1
DA:655,1
DA:656,1
DA:657,1
DA:658,1
DA:659,1
DA:660,0
DA:662,1
DA:663,1
DA:664,1
DA:665,1
DA:666,1
DA:667,1
DA:668,1
DA:669,1
DA:670,1
DA:671,1
DA:672,1
DA:673,0
DA:675,1
DA:676,1
DA:677,1
DA:678,1
DA:679,1
DA:680,1
DA:681,1
DA:682,2
DA:683,2
DA:684,2
DA:685,2
DA:686,2
DA:687,1
DA:688,1
DA:689,0
DA:691,1
DA:692,1
DA:693,1
DA:694,1
DA:695,1
DA:696,1
DA:697,1
DA:698,0
DA:700,1
DA:701,1
DA:702,1
DA:703,1
DA:704,1
DA:705,1
DA:706,1
DA:708,1
DA:709,0
DA:710,0
DA:711,0
DA:712,1
DA:714,1
DA:715,1
DA:716,1
DA:717,1
DA:718,0
DA:720,1
DA:721,1
DA:722,1
DA:723,1
DA:724,1
DA:725,1
DA:726,1
DA:727,0
DA:729,1
DA:730,1
DA:731,1
DA:732,1
DA:733,1
DA:734,1
DA:735,1
DA:736,1
DA:737,1
DA:738,1
DA:739,1
DA:740,1
DA:741,1
DA:742,1
DA:743,0
DA:745,1
DA:746,1
DA:747,1
DA:748,1
DA:749,1
DA:750,1
DA:751,1
DA:752,1
DA:753,1
DA:754,1
DA:755,1
DA:756,1
DA:758,1
DA:761,1
DA:762,0
DA:764,2
DA:765,2
DA:766,2
DA:767,2
DA:768,2
DA:770,2
DA:771,2
DA:773,2
DA:774,2
DA:776,1
DA:778,1
DA:780,1
DA:781,1
DA:782,1
DA:783,1
DA:784,1
DA:785,1
DA:786,1
DA:787,1
DA:789,1
DA:791,1
DA:792,1
DA:797,0
DA:801,1
DA:802,1
DA:804,1
DA:805,1
DA:806,0
DA:807,0
DA:808,0
DA:809,0
DA:811,1
DA:813,6
DA:814,6
DA:815,6
DA:816,6
DA:817,6
DA:818,6
DA:819,6
DA:820,6
DA:821,3
DA:823,3
DA:824,3
DA:827,6
DA:828,6
DA:831,0
DA:832,0
DA:833,0
DA:834,0
DA:835,0
DA:836,0
DA:837,0
DA:839,0
DA:840,0
DA:841,0
DA:844,0
DA:845,0
DA:846,0
DA:849,0
DA:850,0
DA:851,0
DA:853,0
DA:854,0
DA:856,7
DA:857,7
DA:858,7
DA:859,7
DA:860,7
DA:861,7
DA:862,7
DA:863,5
DA:864,5
DA:865,5
BRF:0
BRH:0
LF:541
LH:303
end_of_record
SF:/Users/bene/bitcoin/rust-payjoin/payjoin-cli/src/app/v2/ohttp.rs
FN:71,_RNCNCNvNtNtNtCsdBQVr9DQLnV_11payjoin_cli3app2v25ohttp16fetch_ohttp_keys00Bb_
FN:61,_RNCNvNtNtNtCsdBQVr9DQLnV_11payjoin_cli3app2v25ohttp16fetch_ohttp_keys0B9_
FN:44,_RNCNvNtNtNtCsdBQVr9DQLnV_11payjoin_cli3app2v25ohttp31unwrap_ohttp_keys_or_else_fetch0B9_
FN:30,_RNvMNtNtNtCsdBQVr9DQLnV_11payjoin_cli3app2v25ohttpNtB2_12RelayManager16add_failed_relay
FN:32,_RNvMNtNtNtCsdBQVr9DQLnV_11payjoin_cli3app2v25ohttpNtB2_12RelayManager17get_failed_relays
FN:28,_RNvMNtNtNtCsdBQVr9DQLnV_11payjoin_cli3app2v25ohttpNtB2_12RelayManager18get_selected_relay
FN:26,_RNvMNtNtNtCsdBQVr9DQLnV_11payjoin_cli3app2v25ohttpNtB2_12RelayManager18set_selected_relay
FN:24,_RNvMNtNtNtCsdBQVr9DQLnV_11payjoin_cli3app2v25ohttpNtB2_12RelayManager3new
FN:57,_RNvNtNtNtCsdBQVr9DQLnV_11payjoin_cli3app2v25ohttp16fetch_ohttp_keys
FN:40,_RNvNtNtNtCsdBQVr9DQLnV_11payjoin_cli3app2v25ohttp31unwrap_ohttp_keys_or_else_fetch
FN:71,_RNCNCNvNtNtNtCs6sB0kYsNxnG_11payjoin_cli3app2v25ohttp16fetch_ohttp_keys00Bb_
FN:61,_RNCNvNtNtNtCs6sB0kYsNxnG_11payjoin_cli3app2v25ohttp16fetch_ohttp_keys0B9_
FN:44,_RNCNvNtNtNtCs6sB0kYsNxnG_11payjoin_cli3app2v25ohttp31unwrap_ohttp_keys_or_else_fetch0B9_
FN:30,_RNvMNtNtNtCs6sB0kYsNxnG_11payjoin_cli3app2v25ohttpNtB2_12RelayManager16add_failed_relay
FN:32,_RNvMNtNtNtCs6sB0kYsNxnG_11payjoin_cli3app2v25ohttpNtB2_12RelayManager17get_failed_relays
FN:28,_RNvMNtNtNtCs6sB0kYsNxnG_11payjoin_cli3app2v25ohttpNtB2_12RelayManager18get_selected_relay
FN:26,_RNvMNtNtNtCs6sB0kYsNxnG_11payjoin_cli3app2v25ohttpNtB2_12RelayManager18set_selected_relay
FN:24,_RNvMNtNtNtCs6sB0kYsNxnG_11payjoin_cli3app2v25ohttpNtB2_12RelayManager3new
FN:57,_RNvNtNtNtCs6sB0kYsNxnG_11payjoin_cli3app2v25ohttp16fetch_ohttp_keys
FN:40,_RNvNtNtNtCs6sB0kYsNxnG_11payjoin_cli3app2v25ohttp31unwrap_ohttp_keys_or_else_fetch
FNDA:0,_RNCNCNvNtNtNtCsdBQVr9DQLnV_11payjoin_cli3app2v25ohttp16fetch_ohttp_keys00Bb_
FNDA:0,_RNCNvNtNtNtCsdBQVr9DQLnV_11payjoin_cli3app2v25ohttp16fetch_ohttp_keys0B9_
FNDA:0,_RNCNvNtNtNtCsdBQVr9DQLnV_11payjoin_cli3app2v25ohttp31unwrap_ohttp_keys_or_else_fetch0B9_
FNDA:0,_RNvMNtNtNtCsdBQVr9DQLnV_11payjoin_cli3app2v25ohttpNtB2_12RelayManager16add_failed_relay
FNDA:0,_RNvMNtNtNtCsdBQVr9DQLnV_11payjoin_cli3app2v25ohttpNtB2_12RelayManager17get_failed_relays
FNDA:0,_RNvMNtNtNtCsdBQVr9DQLnV_11payjoin_cli3app2v25ohttpNtB2_12RelayManager18get_selected_relay
FNDA:0,_RNvMNtNtNtCsdBQVr9DQLnV_11payjoin_cli3app2v25ohttpNtB2_12RelayManager18set_selected_relay
FNDA:0,_RNvMNtNtNtCsdBQVr9DQLnV_11payjoin_cli3app2v25ohttpNtB2_12RelayManager3new
FNDA:0,_RNvNtNtNtCsdBQVr9DQLnV_11payjoin_cli3app2v25ohttp16fetch_ohttp_keys
FNDA:0,_RNvNtNtNtCsdBQVr9DQLnV_11payjoin_cli3app2v25ohttp31unwrap_ohttp_keys_or_else_fetch
FNDA:4,_RNCNCNvNtNtNtCs6sB0kYsNxnG_11payjoin_cli3app2v25ohttp16fetch_ohttp_keys00Bb_
FNDA:4,_RNCNvNtNtNtCs6sB0kYsNxnG_11payjoin_cli3app2v25ohttp16fetch_ohttp_keys0B9_
FNDA:4,_RNCNvNtNtNtCs6sB0kYsNxnG_11payjoin_cli3app2v25ohttp31unwrap_ohttp_keys_or_else_fetch0B9_
FNDA:0,_RNvMNtNtNtCs6sB0kYsNxnG_11payjoin_cli3app2v25ohttpNtB2_12RelayManager16add_failed_relay
FNDA:4,_RNvMNtNtNtCs6sB0kYsNxnG_11payjoin_cli3app2v25ohttpNtB2_12RelayManager17get_failed_relays
FNDA:6,_RNvMNtNtNtCs6sB0kYsNxnG_11payjoin_cli3app2v25ohttpNtB2_12RelayManager18get_selected_relay
FNDA:4,_RNvMNtNtNtCs6sB0kYsNxnG_11payjoin_cli3app2v25ohttpNtB2_12RelayManager18set_selected_relay
FNDA:8,_RNvMNtNtNtCs6sB0kYsNxnG_11payjoin_cli3app2v25ohttpNtB2_12RelayManager3new
FNDA:4,_RNvNtNtNtCs6sB0kYsNxnG_11payjoin_cli3app2v25ohttp16fetch_ohttp_keys
FNDA:4,_RNvNtNtNtCs6sB0kYsNxnG_11payjoin_cli3app2v25ohttp31unwrap_ohttp_keys_or_else_fetch
FNF:10
FNH:9
DA:24,8
DA:26,4
DA:28,6
DA:30,0
DA:32,4
DA:40,4
DA:41,4
DA:42,4
DA:43,4
DA:44,4
DA:45,4
DA:46,1
DA:47,1
DA:48,1
DA:50,3
DA:51,3
DA:53,3
DA:55,4
DA:57,4
DA:58,4
DA:59,4
DA:60,4
DA:61,4
DA:63,4
DA:64,4
DA:67,4
DA:68,4
DA:70,4
DA:71,4
DA:73,4
DA:74,0
DA:75,4
DA:77,4
DA:78,4
DA:79,4
DA:80,0
DA:83,4
DA:84,4
DA:85,4
DA:86,4
DA:88,4
DA:91,4
DA:92,4
DA:93,4
DA:94,4
DA:95,4
DA:96,4
DA:97,4
DA:98,4
DA:100,0
DA:101,0
DA:102,0
DA:103,0
DA:104,0
DA:111,0
DA:112,4
DA:113,4
DA:114,0
DA:115,0
DA:117,0
DA:118,0
DA:119,0
DA:120,0
DA:121,0
DA:122,0
DA:126,4
BRF:0
BRH:0
LF:69
LH:52
end_of_record
SF:/Users/bene/bitcoin/rust-payjoin/payjoin-cli/src/app/wallet.rs
FN:72,_RNCNCNCNvMs_NtNtCsdNOva7tMRqO_11payjoin_cli3app6walletNtBa_14BitcoindWallet11create_psbts_000Be_
FN:60,_RNCNCNvMs_NtNtCsdNOva7tMRqO_11payjoin_cli3app6walletNtB8_14BitcoindWallet11create_psbt00Bc_
FN:85,_RNCNCNvMs_NtNtCsdNOva7tMRqO_11payjoin_cli3app6walletNtB8_14BitcoindWallet11create_psbts0_00Bc_
FN:65,_RNCNCNvMs_NtNtCsdNOva7tMRqO_11payjoin_cli3app6walletNtB8_14BitcoindWallet11create_psbts_00Bc_
FN:124,_RNCNCNvMs_NtNtCsdNOva7tMRqO_11payjoin_cli3app6walletNtB8_14BitcoindWallet12broadcast_tx00Bc_
FN:177,_RNCNCNvMs_NtNtCsdNOva7tMRqO_11payjoin_cli3app6walletNtB8_14BitcoindWallet12list_unspent00Bc_
FN:100,_RNCNCNvMs_NtNtCsdNOva7tMRqO_11payjoin_cli3app6walletNtB8_14BitcoindWallet12process_psbt00Bc_
FN:110,_RNCNCNvMs_NtNtCsdNOva7tMRqO_11payjoin_cli3app6walletNtB8_14BitcoindWallet13can_broadcast00Bc_
FN:167,_RNCNCNvMs_NtNtCsdNOva7tMRqO_11payjoin_cli3app6walletNtB8_14BitcoindWallet15get_new_address00Bc_
FN:134,_RNCNCNvMs_NtNtCsdNOva7tMRqO_11payjoin_cli3app6walletNtB8_14BitcoindWallet7is_mine00Bc_
FN:192,_RNCNCNvMs_NtNtCsdNOva7tMRqO_11payjoin_cli3app6walletNtB8_14BitcoindWallet7network00Bc_
FN:22,_RNCNvMNtNtCsdNOva7tMRqO_11payjoin_cli3app6walletNtB4_14BitcoindWallet3new0B8_
FN:59,_RNCNvMs_NtNtCsdNOva7tMRqO_11payjoin_cli3app6walletNtB6_14BitcoindWallet11create_psbt0Ba_
FN:84,_RNCNvMs_NtNtCsdNOva7tMRqO_11payjoin_cli3app6walletNtB6_14BitcoindWallet11create_psbts0_0Ba_
FN:64,_RNCNvMs_NtNtCsdNOva7tMRqO_11payjoin_cli3app6walletNtB6_14BitcoindWallet11create_psbts_0Ba_
FN:122,_RNCNvMs_NtNtCsdNOva7tMRqO_11payjoin_cli3app6walletNtB6_14BitcoindWallet12broadcast_tx0Ba_
FN:175,_RNCNvMs_NtNtCsdNOva7tMRqO_11payjoin_cli3app6walletNtB6_14BitcoindWallet12list_unspent0Ba_
FN:99,_RNCNvMs_NtNtCsdNOva7tMRqO_11payjoin_cli3app6walletNtB6_14BitcoindWallet12process_psbt0Ba_
FN:108,_RNCNvMs_NtNtCsdNOva7tMRqO_11payjoin_cli3app6walletNtB6_14BitcoindWallet13can_broadcast0Ba_
FN:117,_RNCNvMs_NtNtCsdNOva7tMRqO_11payjoin_cli3app6walletNtB6_14BitcoindWallet13can_broadcasts0_0Ba_
FN:116,_RNCNvMs_NtNtCsdNOva7tMRqO_11payjoin_cli3app6walletNtB6_14BitcoindWallet13can_broadcasts_0Ba_
FN:166,_RNCNvMs_NtNtCsdNOva7tMRqO_11payjoin_cli3app6walletNtB6_14BitcoindWallet15get_new_address0Ba_
FN:132,_RNCNvMs_NtNtCsdNOva7tMRqO_11payjoin_cli3app6walletNtB6_14BitcoindWallet7is_mine0Ba_
FN:191,_RNCNvMs_NtNtCsdNOva7tMRqO_11payjoin_cli3app6walletNtB6_14BitcoindWallet7network0Ba_
FN:194,_RNCNvMs_NtNtCsdNOva7tMRqO_11payjoin_cli3app6walletNtB6_14BitcoindWallet7networks_0Ba_
FN:22,_RNvMNtNtCsdNOva7tMRqO_11payjoin_cli3app6walletNtB2_14BitcoindWallet3new
FN:40,_RNvMs_NtNtCsdNOva7tMRqO_11payjoin_cli3app6walletNtB4_14BitcoindWallet11create_psbt
FN:121,_RNvMs_NtNtCsdNOva7tMRqO_11payjoin_cli3app6walletNtB4_14BitcoindWallet12broadcast_tx
FN:174,_RNvMs_NtNtCsdNOva7tMRqO_11payjoin_cli3app6walletNtB4_14BitcoindWallet12list_unspent
FN:97,_RNvMs_NtNtCsdNOva7tMRqO_11payjoin_cli3app6walletNtB4_14BitcoindWallet12process_psbt
FN:107,_RNvMs_NtNtCsdNOva7tMRqO_11payjoin_cli3app6walletNtB4_14BitcoindWallet13can_broadcast
FN:165,_RNvMs_NtNtCsdNOva7tMRqO_11payjoin_cli3app6walletNtB4_14BitcoindWallet15get_new_address
FN:184,_RNvMs_NtNtCsdNOva7tMRqO_11payjoin_cli3app6walletNtB4_14BitcoindWallet19has_spendable_utxos
FN:130,_RNvMs_NtNtCsdNOva7tMRqO_11payjoin_cli3app6walletNtB4_14BitcoindWallet7is_mine
FN:190,_RNvMs_NtNtCsdNOva7tMRqO_11payjoin_cli3app6walletNtB4_14BitcoindWallet7network
FN:198,_RNvNtNtCsdNOva7tMRqO_11payjoin_cli3app6wallet22input_pair_from_corepc
FN:72,_RNCNCNCNvMs_NtNtCsgibgrjNWKaG_11payjoin_cli3app6walletNtBa_14BitcoindWallet11create_psbts_000Be_
FN:60,_RNCNCNvMs_NtNtCsgibgrjNWKaG_11payjoin_cli3app6walletNtB8_14BitcoindWallet11create_psbt00Bc_
FN:85,_RNCNCNvMs_NtNtCsgibgrjNWKaG_11payjoin_cli3app6walletNtB8_14BitcoindWallet11create_psbts0_00Bc_
FN:65,_RNCNCNvMs_NtNtCsgibgrjNWKaG_11payjoin_cli3app6walletNtB8_14BitcoindWallet11create_psbts_00Bc_
FN:124,_RNCNCNvMs_NtNtCsgibgrjNWKaG_11payjoin_cli3app6walletNtB8_14BitcoindWallet12broadcast_tx00Bc_
FN:177,_RNCNCNvMs_NtNtCsgibgrjNWKaG_11payjoin_cli3app6walletNtB8_14BitcoindWallet12list_unspent00Bc_
FN:100,_RNCNCNvMs_NtNtCsgibgrjNWKaG_11payjoin_cli3app6walletNtB8_14BitcoindWallet12process_psbt00Bc_
FN:110,_RNCNCNvMs_NtNtCsgibgrjNWKaG_11payjoin_cli3app6walletNtB8_14BitcoindWallet13can_broadcast00Bc_
FN:167,_RNCNCNvMs_NtNtCsgibgrjNWKaG_11payjoin_cli3app6walletNtB8_14BitcoindWallet15get_new_address00Bc_
FN:134,_RNCNCNvMs_NtNtCsgibgrjNWKaG_11payjoin_cli3app6walletNtB8_14BitcoindWallet7is_mine00Bc_
FN:192,_RNCNCNvMs_NtNtCsgibgrjNWKaG_11payjoin_cli3app6walletNtB8_14BitcoindWallet7network00Bc_
FN:22,_RNCNvMNtNtCsgibgrjNWKaG_11payjoin_cli3app6walletNtB4_14BitcoindWallet3new0B8_
FN:59,_RNCNvMs_NtNtCsgibgrjNWKaG_11payjoin_cli3app6walletNtB6_14BitcoindWallet11create_psbt0Ba_
FN:84,_RNCNvMs_NtNtCsgibgrjNWKaG_11payjoin_cli3app6walletNtB6_14BitcoindWallet11create_psbts0_0Ba_
FN:64,_RNCNvMs_NtNtCsgibgrjNWKaG_11payjoin_cli3app6walletNtB6_14BitcoindWallet11create_psbts_0Ba_
FN:122,_RNCNvMs_NtNtCsgibgrjNWKaG_11payjoin_cli3app6walletNtB6_14BitcoindWallet12broadcast_tx0Ba_
FN:175,_RNCNvMs_NtNtCsgibgrjNWKaG_11payjoin_cli3app6walletNtB6_14BitcoindWallet12list_unspent0Ba_
FN:99,_RNCNvMs_NtNtCsgibgrjNWKaG_11payjoin_cli3app6walletNtB6_14BitcoindWallet12process_psbt0Ba_
FN:108,_RNCNvMs_NtNtCsgibgrjNWKaG_11payjoin_cli3app6walletNtB6_14BitcoindWallet13can_broadcast0Ba_
FN:117,_RNCNvMs_NtNtCsgibgrjNWKaG_11payjoin_cli3app6walletNtB6_14BitcoindWallet13can_broadcasts0_0Ba_
FN:116,_RNCNvMs_NtNtCsgibgrjNWKaG_11payjoin_cli3app6walletNtB6_14BitcoindWallet13can_broadcasts_0Ba_
FN:166,_RNCNvMs_NtNtCsgibgrjNWKaG_11payjoin_cli3app6walletNtB6_14BitcoindWallet15get_new_address0Ba_
FN:132,_RNCNvMs_NtNtCsgibgrjNWKaG_11payjoin_cli3app6walletNtB6_14BitcoindWallet7is_mine0Ba_
FN:191,_RNCNvMs_NtNtCsgibgrjNWKaG_11payjoin_cli3app6walletNtB6_14BitcoindWallet7network0Ba_
FN:194,_RNCNvMs_NtNtCsgibgrjNWKaG_11payjoin_cli3app6walletNtB6_14BitcoindWallet7networks_0Ba_
FN:22,_RNvMNtNtCsgibgrjNWKaG_11payjoin_cli3app6walletNtB2_14BitcoindWallet3new
FN:40,_RNvMs_NtNtCsgibgrjNWKaG_11payjoin_cli3app6walletNtB4_14BitcoindWallet11create_psbt
FN:121,_RNvMs_NtNtCsgibgrjNWKaG_11payjoin_cli3app6walletNtB4_14BitcoindWallet12broadcast_tx
FN:174,_RNvMs_NtNtCsgibgrjNWKaG_11payjoin_cli3app6walletNtB4_14BitcoindWallet12list_unspent
FN:97,_RNvMs_NtNtCsgibgrjNWKaG_11payjoin_cli3app6walletNtB4_14BitcoindWallet12process_psbt
FN:107,_RNvMs_NtNtCsgibgrjNWKaG_11payjoin_cli3app6walletNtB4_14BitcoindWallet13can_broadcast
FN:165,_RNvMs_NtNtCsgibgrjNWKaG_11payjoin_cli3app6walletNtB4_14BitcoindWallet15get_new_address
FN:184,_RNvMs_NtNtCsgibgrjNWKaG_11payjoin_cli3app6walletNtB4_14BitcoindWallet19has_spendable_utxos
FN:130,_RNvMs_NtNtCsgibgrjNWKaG_11payjoin_cli3app6walletNtB4_14BitcoindWallet7is_mine
FN:190,_RNvMs_NtNtCsgibgrjNWKaG_11payjoin_cli3app6walletNtB4_14BitcoindWallet7network
FN:198,_RNvNtNtCsgibgrjNWKaG_11payjoin_cli3app6wallet22input_pair_from_corepc
FN:22,_RNvMNtNtCsb4baREu157E_11payjoin_cli3app6walletNtB2_14BitcoindWallet3new
FN:40,_RNvMs_NtNtCsb4baREu157E_11payjoin_cli3app6walletNtB4_14BitcoindWallet11create_psbt
FN:121,_RNvMs_NtNtCsb4baREu157E_11payjoin_cli3app6walletNtB4_14BitcoindWallet12broadcast_tx
FN:174,_RNvMs_NtNtCsb4baREu157E_11payjoin_cli3app6walletNtB4_14BitcoindWallet12list_unspent
FN:97,_RNvMs_NtNtCsb4baREu157E_11payjoin_cli3app6walletNtB4_14BitcoindWallet12process_psbt
FN:107,_RNvMs_NtNtCsb4baREu157E_11payjoin_cli3app6walletNtB4_14BitcoindWallet13can_broadcast
FN:165,_RNvMs_NtNtCsb4baREu157E_11payjoin_cli3app6walletNtB4_14BitcoindWallet15get_new_address
FN:184,_RNvMs_NtNtCsb4baREu157E_11payjoin_cli3app6walletNtB4_14BitcoindWallet19has_spendable_utxos
FN:130,_RNvMs_NtNtCsb4baREu157E_11payjoin_cli3app6walletNtB4_14BitcoindWallet7is_mine
FN:190,_RNvMs_NtNtCsb4baREu157E_11payjoin_cli3app6walletNtB4_14BitcoindWallet7network
FN:198,_RNvNtNtCsb4baREu157E_11payjoin_cli3app6wallet22input_pair_from_corepc
FN:72,_RNCNCNCNvMs_NtNtCsb4baREu157E_11payjoin_cli3app6walletNtBa_14BitcoindWallet11create_psbts_000Be_
FN:60,_RNCNCNvMs_NtNtCsb4baREu157E_11payjoin_cli3app6walletNtB8_14BitcoindWallet11create_psbt00Bc_
FN:85,_RNCNCNvMs_NtNtCsb4baREu157E_11payjoin_cli3app6walletNtB8_14BitcoindWallet11create_psbts0_00Bc_
FN:65,_RNCNCNvMs_NtNtCsb4baREu157E_11payjoin_cli3app6walletNtB8_14BitcoindWallet11create_psbts_00Bc_
FN:124,_RNCNCNvMs_NtNtCsb4baREu157E_11payjoin_cli3app6walletNtB8_14BitcoindWallet12broadcast_tx00Bc_
FN:177,_RNCNCNvMs_NtNtCsb4baREu157E_11payjoin_cli3app6walletNtB8_14BitcoindWallet12list_unspent00Bc_
FN:100,_RNCNCNvMs_NtNtCsb4baREu157E_11payjoin_cli3app6walletNtB8_14BitcoindWallet12process_psbt00Bc_
FN:110,_RNCNCNvMs_NtNtCsb4baREu157E_11payjoin_cli3app6walletNtB8_14BitcoindWallet13can_broadcast00Bc_
FN:167,_RNCNCNvMs_NtNtCsb4baREu157E_11payjoin_cli3app6walletNtB8_14BitcoindWallet15get_new_address00Bc_
FN:134,_RNCNCNvMs_NtNtCsb4baREu157E_11payjoin_cli3app6walletNtB8_14BitcoindWallet7is_mine00Bc_
FN:192,_RNCNCNvMs_NtNtCsb4baREu157E_11payjoin_cli3app6walletNtB8_14BitcoindWallet7network00Bc_
FN:22,_RNCNvMNtNtCsb4baREu157E_11payjoin_cli3app6walletNtB4_14BitcoindWallet3new0B8_
FN:59,_RNCNvMs_NtNtCsb4baREu157E_11payjoin_cli3app6walletNtB6_14BitcoindWallet11create_psbt0Ba_
FN:84,_RNCNvMs_NtNtCsb4baREu157E_11payjoin_cli3app6walletNtB6_14BitcoindWallet11create_psbts0_0Ba_
FN:64,_RNCNvMs_NtNtCsb4baREu157E_11payjoin_cli3app6walletNtB6_14BitcoindWallet11create_psbts_0Ba_
FN:122,_RNCNvMs_NtNtCsb4baREu157E_11payjoin_cli3app6walletNtB6_14BitcoindWallet12broadcast_tx0Ba_
FN:175,_RNCNvMs_NtNtCsb4baREu157E_11payjoin_cli3app6walletNtB6_14BitcoindWallet12list_unspent0Ba_
FN:99,_RNCNvMs_NtNtCsb4baREu157E_11payjoin_cli3app6walletNtB6_14BitcoindWallet12process_psbt0Ba_
FN:108,_RNCNvMs_NtNtCsb4baREu157E_11payjoin_cli3app6walletNtB6_14BitcoindWallet13can_broadcast0Ba_
FN:117,_RNCNvMs_NtNtCsb4baREu157E_11payjoin_cli3app6walletNtB6_14BitcoindWallet13can_broadcasts0_0Ba_
FN:116,_RNCNvMs_NtNtCsb4baREu157E_11payjoin_cli3app6walletNtB6_14BitcoindWallet13can_broadcasts_0Ba_
FN:166,_RNCNvMs_NtNtCsb4baREu157E_11payjoin_cli3app6walletNtB6_14BitcoindWallet15get_new_address0Ba_
FN:132,_RNCNvMs_NtNtCsb4baREu157E_11payjoin_cli3app6walletNtB6_14BitcoindWallet7is_mine0Ba_
FN:191,_RNCNvMs_NtNtCsb4baREu157E_11payjoin_cli3app6walletNtB6_14BitcoindWallet7network0Ba_
FN:194,_RNCNvMs_NtNtCsb4baREu157E_11payjoin_cli3app6walletNtB6_14BitcoindWallet7networks_0Ba_
FN:72,_RNCNCNCNvMs_NtNtCsdBQVr9DQLnV_11payjoin_cli3app6walletNtBa_14BitcoindWallet11create_psbts_000Be_
FN:60,_RNCNCNvMs_NtNtCsdBQVr9DQLnV_11payjoin_cli3app6walletNtB8_14BitcoindWallet11create_psbt00Bc_
FN:85,_RNCNCNvMs_NtNtCsdBQVr9DQLnV_11payjoin_cli3app6walletNtB8_14BitcoindWallet11create_psbts0_00Bc_
FN:65,_RNCNCNvMs_NtNtCsdBQVr9DQLnV_11payjoin_cli3app6walletNtB8_14BitcoindWallet11create_psbts_00Bc_
FN:124,_RNCNCNvMs_NtNtCsdBQVr9DQLnV_11payjoin_cli3app6walletNtB8_14BitcoindWallet12broadcast_tx00Bc_
FN:177,_RNCNCNvMs_NtNtCsdBQVr9DQLnV_11payjoin_cli3app6walletNtB8_14BitcoindWallet12list_unspent00Bc_
FN:100,_RNCNCNvMs_NtNtCsdBQVr9DQLnV_11payjoin_cli3app6walletNtB8_14BitcoindWallet12process_psbt00Bc_
FN:110,_RNCNCNvMs_NtNtCsdBQVr9DQLnV_11payjoin_cli3app6walletNtB8_14BitcoindWallet13can_broadcast00Bc_
FN:167,_RNCNCNvMs_NtNtCsdBQVr9DQLnV_11payjoin_cli3app6walletNtB8_14BitcoindWallet15get_new_address00Bc_
FN:149,_RNCNCNvMs_NtNtCsdBQVr9DQLnV_11payjoin_cli3app6walletNtB8_14BitcoindWallet19get_raw_transaction00Bc_
FN:134,_RNCNCNvMs_NtNtCsdBQVr9DQLnV_11payjoin_cli3app6walletNtB8_14BitcoindWallet7is_mine00Bc_
FN:192,_RNCNCNvMs_NtNtCsdBQVr9DQLnV_11payjoin_cli3app6walletNtB8_14BitcoindWallet7network00Bc_
FN:22,_RNCNvMNtNtCsdBQVr9DQLnV_11payjoin_cli3app6walletNtB4_14BitcoindWallet3new0B8_
FN:59,_RNCNvMs_NtNtCsdBQVr9DQLnV_11payjoin_cli3app6walletNtB6_14BitcoindWallet11create_psbt0Ba_
FN:84,_RNCNvMs_NtNtCsdBQVr9DQLnV_11payjoin_cli3app6walletNtB6_14BitcoindWallet11create_psbts0_0Ba_
FN:64,_RNCNvMs_NtNtCsdBQVr9DQLnV_11payjoin_cli3app6walletNtB6_14BitcoindWallet11create_psbts_0Ba_
FN:122,_RNCNvMs_NtNtCsdBQVr9DQLnV_11payjoin_cli3app6walletNtB6_14BitcoindWallet12broadcast_tx0Ba_
FN:175,_RNCNvMs_NtNtCsdBQVr9DQLnV_11payjoin_cli3app6walletNtB6_14BitcoindWallet12list_unspent0Ba_
FN:99,_RNCNvMs_NtNtCsdBQVr9DQLnV_11payjoin_cli3app6walletNtB6_14BitcoindWallet12process_psbt0Ba_
FN:108,_RNCNvMs_NtNtCsdBQVr9DQLnV_11payjoin_cli3app6walletNtB6_14BitcoindWallet13can_broadcast0Ba_
FN:117,_RNCNvMs_NtNtCsdBQVr9DQLnV_11payjoin_cli3app6walletNtB6_14BitcoindWallet13can_broadcasts0_0Ba_
FN:116,_RNCNvMs_NtNtCsdBQVr9DQLnV_11payjoin_cli3app6walletNtB6_14BitcoindWallet13can_broadcasts_0Ba_
FN:166,_RNCNvMs_NtNtCsdBQVr9DQLnV_11payjoin_cli3app6walletNtB6_14BitcoindWallet15get_new_address0Ba_
FN:148,_RNCNvMs_NtNtCsdBQVr9DQLnV_11payjoin_cli3app6walletNtB6_14BitcoindWallet19get_raw_transaction0Ba_
FN:132,_RNCNvMs_NtNtCsdBQVr9DQLnV_11payjoin_cli3app6walletNtB6_14BitcoindWallet7is_mine0Ba_
FN:191,_RNCNvMs_NtNtCsdBQVr9DQLnV_11payjoin_cli3app6walletNtB6_14BitcoindWallet7network0Ba_
FN:194,_RNCNvMs_NtNtCsdBQVr9DQLnV_11payjoin_cli3app6walletNtB6_14BitcoindWallet7networks_0Ba_
FN:22,_RNvMNtNtCsdBQVr9DQLnV_11payjoin_cli3app6walletNtB2_14BitcoindWallet3new
FN:40,_RNvMs_NtNtCsdBQVr9DQLnV_11payjoin_cli3app6walletNtB4_14BitcoindWallet11create_psbt
FN:121,_RNvMs_NtNtCsdBQVr9DQLnV_11payjoin_cli3app6walletNtB4_14BitcoindWallet12broadcast_tx
FN:174,_RNvMs_NtNtCsdBQVr9DQLnV_11payjoin_cli3app6walletNtB4_14BitcoindWallet12list_unspent
FN:97,_RNvMs_NtNtCsdBQVr9DQLnV_11payjoin_cli3app6walletNtB4_14BitcoindWallet12process_psbt
FN:107,_RNvMs_NtNtCsdBQVr9DQLnV_11payjoin_cli3app6walletNtB4_14BitcoindWallet13can_broadcast
FN:165,_RNvMs_NtNtCsdBQVr9DQLnV_11payjoin_cli3app6walletNtB4_14BitcoindWallet15get_new_address
FN:144,_RNvMs_NtNtCsdBQVr9DQLnV_11payjoin_cli3app6walletNtB4_14BitcoindWallet19get_raw_transaction
FN:184,_RNvMs_NtNtCsdBQVr9DQLnV_11payjoin_cli3app6walletNtB4_14BitcoindWallet19has_spendable_utxos
FN:130,_RNvMs_NtNtCsdBQVr9DQLnV_11payjoin_cli3app6walletNtB4_14BitcoindWallet7is_mine
FN:190,_RNvMs_NtNtCsdBQVr9DQLnV_11payjoin_cli3app6walletNtB4_14BitcoindWallet7network
FN:198,_RNvNtNtCsdBQVr9DQLnV_11payjoin_cli3app6wallet22input_pair_from_corepc
FN:22,_RNvMNtNtCscUu8AqYtVTR_11payjoin_cli3app6walletNtB2_14BitcoindWallet3new
FN:40,_RNvMs_NtNtCscUu8AqYtVTR_11payjoin_cli3app6walletNtB4_14BitcoindWallet11create_psbt
FN:121,_RNvMs_NtNtCscUu8AqYtVTR_11payjoin_cli3app6walletNtB4_14BitcoindWallet12broadcast_tx
FN:174,_RNvMs_NtNtCscUu8AqYtVTR_11payjoin_cli3app6walletNtB4_14BitcoindWallet12list_unspent
FN:97,_RNvMs_NtNtCscUu8AqYtVTR_11payjoin_cli3app6walletNtB4_14BitcoindWallet12process_psbt
FN:107,_RNvMs_NtNtCscUu8AqYtVTR_11payjoin_cli3app6walletNtB4_14BitcoindWallet13can_broadcast
FN:165,_RNvMs_NtNtCscUu8AqYtVTR_11payjoin_cli3app6walletNtB4_14BitcoindWallet15get_new_address
FN:184,_RNvMs_NtNtCscUu8AqYtVTR_11payjoin_cli3app6walletNtB4_14BitcoindWallet19has_spendable_utxos
FN:130,_RNvMs_NtNtCscUu8AqYtVTR_11payjoin_cli3app6walletNtB4_14BitcoindWallet7is_mine
FN:190,_RNvMs_NtNtCscUu8AqYtVTR_11payjoin_cli3app6walletNtB4_14BitcoindWallet7network
FN:198,_RNvNtNtCscUu8AqYtVTR_11payjoin_cli3app6wallet22input_pair_from_corepc
FN:72,_RNCNCNCNvMs_NtNtCscUu8AqYtVTR_11payjoin_cli3app6walletNtBa_14BitcoindWallet11create_psbts_000Be_
FN:60,_RNCNCNvMs_NtNtCscUu8AqYtVTR_11payjoin_cli3app6walletNtB8_14BitcoindWallet11create_psbt00Bc_
FN:85,_RNCNCNvMs_NtNtCscUu8AqYtVTR_11payjoin_cli3app6walletNtB8_14BitcoindWallet11create_psbts0_00Bc_
FN:65,_RNCNCNvMs_NtNtCscUu8AqYtVTR_11payjoin_cli3app6walletNtB8_14BitcoindWallet11create_psbts_00Bc_
FN:124,_RNCNCNvMs_NtNtCscUu8AqYtVTR_11payjoin_cli3app6walletNtB8_14BitcoindWallet12broadcast_tx00Bc_
FN:177,_RNCNCNvMs_NtNtCscUu8AqYtVTR_11payjoin_cli3app6walletNtB8_14BitcoindWallet12list_unspent00Bc_
FN:100,_RNCNCNvMs_NtNtCscUu8AqYtVTR_11payjoin_cli3app6walletNtB8_14BitcoindWallet12process_psbt00Bc_
FN:110,_RNCNCNvMs_NtNtCscUu8AqYtVTR_11payjoin_cli3app6walletNtB8_14BitcoindWallet13can_broadcast00Bc_
FN:167,_RNCNCNvMs_NtNtCscUu8AqYtVTR_11payjoin_cli3app6walletNtB8_14BitcoindWallet15get_new_address00Bc_
FN:134,_RNCNCNvMs_NtNtCscUu8AqYtVTR_11payjoin_cli3app6walletNtB8_14BitcoindWallet7is_mine00Bc_
FN:192,_RNCNCNvMs_NtNtCscUu8AqYtVTR_11payjoin_cli3app6walletNtB8_14BitcoindWallet7network00Bc_
FN:22,_RNCNvMNtNtCscUu8AqYtVTR_11payjoin_cli3app6walletNtB4_14BitcoindWallet3new0B8_
FN:59,_RNCNvMs_NtNtCscUu8AqYtVTR_11payjoin_cli3app6walletNtB6_14BitcoindWallet11create_psbt0Ba_
FN:84,_RNCNvMs_NtNtCscUu8AqYtVTR_11payjoin_cli3app6walletNtB6_14BitcoindWallet11create_psbts0_0Ba_
FN:64,_RNCNvMs_NtNtCscUu8AqYtVTR_11payjoin_cli3app6walletNtB6_14BitcoindWallet11create_psbts_0Ba_
FN:122,_RNCNvMs_NtNtCscUu8AqYtVTR_11payjoin_cli3app6walletNtB6_14BitcoindWallet12broadcast_tx0Ba_
FN:175,_RNCNvMs_NtNtCscUu8AqYtVTR_11payjoin_cli3app6walletNtB6_14BitcoindWallet12list_unspent0Ba_
FN:99,_RNCNvMs_NtNtCscUu8AqYtVTR_11payjoin_cli3app6walletNtB6_14BitcoindWallet12process_psbt0Ba_
FN:108,_RNCNvMs_NtNtCscUu8AqYtVTR_11payjoin_cli3app6walletNtB6_14BitcoindWallet13can_broadcast0Ba_
FN:117,_RNCNvMs_NtNtCscUu8AqYtVTR_11payjoin_cli3app6walletNtB6_14BitcoindWallet13can_broadcasts0_0Ba_
FN:116,_RNCNvMs_NtNtCscUu8AqYtVTR_11payjoin_cli3app6walletNtB6_14BitcoindWallet13can_broadcasts_0Ba_
FN:166,_RNCNvMs_NtNtCscUu8AqYtVTR_11payjoin_cli3app6walletNtB6_14BitcoindWallet15get_new_address0Ba_
FN:132,_RNCNvMs_NtNtCscUu8AqYtVTR_11payjoin_cli3app6walletNtB6_14BitcoindWallet7is_mine0Ba_
FN:191,_RNCNvMs_NtNtCscUu8AqYtVTR_11payjoin_cli3app6walletNtB6_14BitcoindWallet7network0Ba_
FN:194,_RNCNvMs_NtNtCscUu8AqYtVTR_11payjoin_cli3app6walletNtB6_14BitcoindWallet7networks_0Ba_
FN:22,_RNvMNtNtCs6sB0kYsNxnG_11payjoin_cli3app6walletNtB2_14BitcoindWallet3new
FN:40,_RNvMs_NtNtCs6sB0kYsNxnG_11payjoin_cli3app6walletNtB4_14BitcoindWallet11create_psbt
FN:121,_RNvMs_NtNtCs6sB0kYsNxnG_11payjoin_cli3app6walletNtB4_14BitcoindWallet12broadcast_tx
FN:174,_RNvMs_NtNtCs6sB0kYsNxnG_11payjoin_cli3app6walletNtB4_14BitcoindWallet12list_unspent
FN:97,_RNvMs_NtNtCs6sB0kYsNxnG_11payjoin_cli3app6walletNtB4_14BitcoindWallet12process_psbt
FN:107,_RNvMs_NtNtCs6sB0kYsNxnG_11payjoin_cli3app6walletNtB4_14BitcoindWallet13can_broadcast
FN:165,_RNvMs_NtNtCs6sB0kYsNxnG_11payjoin_cli3app6walletNtB4_14BitcoindWallet15get_new_address
FN:144,_RNvMs_NtNtCs6sB0kYsNxnG_11payjoin_cli3app6walletNtB4_14BitcoindWallet19get_raw_transaction
FN:184,_RNvMs_NtNtCs6sB0kYsNxnG_11payjoin_cli3app6walletNtB4_14BitcoindWallet19has_spendable_utxos
FN:130,_RNvMs_NtNtCs6sB0kYsNxnG_11payjoin_cli3app6walletNtB4_14BitcoindWallet7is_mine
FN:190,_RNvMs_NtNtCs6sB0kYsNxnG_11payjoin_cli3app6walletNtB4_14BitcoindWallet7network
FN:198,_RNvNtNtCs6sB0kYsNxnG_11payjoin_cli3app6wallet22input_pair_from_corepc
FN:72,_RNCNCNCNvMs_NtNtCs6sB0kYsNxnG_11payjoin_cli3app6walletNtBa_14BitcoindWallet11create_psbts_000Be_
FN:60,_RNCNCNvMs_NtNtCs6sB0kYsNxnG_11payjoin_cli3app6walletNtB8_14BitcoindWallet11create_psbt00Bc_
FN:85,_RNCNCNvMs_NtNtCs6sB0kYsNxnG_11payjoin_cli3app6walletNtB8_14BitcoindWallet11create_psbts0_00Bc_
FN:65,_RNCNCNvMs_NtNtCs6sB0kYsNxnG_11payjoin_cli3app6walletNtB8_14BitcoindWallet11create_psbts_00Bc_
FN:124,_RNCNCNvMs_NtNtCs6sB0kYsNxnG_11payjoin_cli3app6walletNtB8_14BitcoindWallet12broadcast_tx00Bc_
FN:177,_RNCNCNvMs_NtNtCs6sB0kYsNxnG_11payjoin_cli3app6walletNtB8_14BitcoindWallet12list_unspent00Bc_
FN:100,_RNCNCNvMs_NtNtCs6sB0kYsNxnG_11payjoin_cli3app6walletNtB8_14BitcoindWallet12process_psbt00Bc_
FN:110,_RNCNCNvMs_NtNtCs6sB0kYsNxnG_11payjoin_cli3app6walletNtB8_14BitcoindWallet13can_broadcast00Bc_
FN:167,_RNCNCNvMs_NtNtCs6sB0kYsNxnG_11payjoin_cli3app6walletNtB8_14BitcoindWallet15get_new_address00Bc_
FN:149,_RNCNCNvMs_NtNtCs6sB0kYsNxnG_11payjoin_cli3app6walletNtB8_14BitcoindWallet19get_raw_transaction00Bc_
FN:134,_RNCNCNvMs_NtNtCs6sB0kYsNxnG_11payjoin_cli3app6walletNtB8_14BitcoindWallet7is_mine00Bc_
FN:192,_RNCNCNvMs_NtNtCs6sB0kYsNxnG_11payjoin_cli3app6walletNtB8_14BitcoindWallet7network00Bc_
FN:22,_RNCNvMNtNtCs6sB0kYsNxnG_11payjoin_cli3app6walletNtB4_14BitcoindWallet3new0B8_
FN:59,_RNCNvMs_NtNtCs6sB0kYsNxnG_11payjoin_cli3app6walletNtB6_14BitcoindWallet11create_psbt0Ba_
FN:84,_RNCNvMs_NtNtCs6sB0kYsNxnG_11payjoin_cli3app6walletNtB6_14BitcoindWallet11create_psbts0_0Ba_
FN:64,_RNCNvMs_NtNtCs6sB0kYsNxnG_11payjoin_cli3app6walletNtB6_14BitcoindWallet11create_psbts_0Ba_
FN:122,_RNCNvMs_NtNtCs6sB0kYsNxnG_11payjoin_cli3app6walletNtB6_14BitcoindWallet12broadcast_tx0Ba_
FN:175,_RNCNvMs_NtNtCs6sB0kYsNxnG_11payjoin_cli3app6walletNtB6_14BitcoindWallet12list_unspent0Ba_
FN:99,_RNCNvMs_NtNtCs6sB0kYsNxnG_11payjoin_cli3app6walletNtB6_14BitcoindWallet12process_psbt0Ba_
FN:108,_RNCNvMs_NtNtCs6sB0kYsNxnG_11payjoin_cli3app6walletNtB6_14BitcoindWallet13can_broadcast0Ba_
FN:117,_RNCNvMs_NtNtCs6sB0kYsNxnG_11payjoin_cli3app6walletNtB6_14BitcoindWallet13can_broadcasts0_0Ba_
FN:116,_RNCNvMs_NtNtCs6sB0kYsNxnG_11payjoin_cli3app6walletNtB6_14BitcoindWallet13can_broadcasts_0Ba_
FN:166,_RNCNvMs_NtNtCs6sB0kYsNxnG_11payjoin_cli3app6walletNtB6_14BitcoindWallet15get_new_address0Ba_
FN:148,_RNCNvMs_NtNtCs6sB0kYsNxnG_11payjoin_cli3app6walletNtB6_14BitcoindWallet19get_raw_transaction0Ba_
FN:132,_RNCNvMs_NtNtCs6sB0kYsNxnG_11payjoin_cli3app6walletNtB6_14BitcoindWallet7is_mine0Ba_
FN:191,_RNCNvMs_NtNtCs6sB0kYsNxnG_11payjoin_cli3app6walletNtB6_14BitcoindWallet7network0Ba_
FN:194,_RNCNvMs_NtNtCs6sB0kYsNxnG_11payjoin_cli3app6walletNtB6_14BitcoindWallet7networks_0Ba_
FNDA:0,_RNCNCNCNvMs_NtNtCsdNOva7tMRqO_11payjoin_cli3app6walletNtBa_14BitcoindWallet11create_psbts_000Be_
FNDA:0,_RNCNCNvMs_NtNtCsdNOva7tMRqO_11payjoin_cli3app6walletNtB8_14BitcoindWallet11create_psbt00Bc_
FNDA:0,_RNCNCNvMs_NtNtCsdNOva7tMRqO_11payjoin_cli3app6walletNtB8_14BitcoindWallet11create_psbts0_00Bc_
FNDA:0,_RNCNCNvMs_NtNtCsdNOva7tMRqO_11payjoin_cli3app6walletNtB8_14BitcoindWallet11create_psbts_00Bc_
FNDA:0,_RNCNCNvMs_NtNtCsdNOva7tMRqO_11payjoin_cli3app6walletNtB8_14BitcoindWallet12broadcast_tx00Bc_
FNDA:0,_RNCNCNvMs_NtNtCsdNOva7tMRqO_11payjoin_cli3app6walletNtB8_14BitcoindWallet12list_unspent00Bc_
FNDA:0,_RNCNCNvMs_NtNtCsdNOva7tMRqO_11payjoin_cli3app6walletNtB8_14BitcoindWallet12process_psbt00Bc_
FNDA:0,_RNCNCNvMs_NtNtCsdNOva7tMRqO_11payjoin_cli3app6walletNtB8_14BitcoindWallet13can_broadcast00Bc_
FNDA:0,_RNCNCNvMs_NtNtCsdNOva7tMRqO_11payjoin_cli3app6walletNtB8_14BitcoindWallet15get_new_address00Bc_
FNDA:0,_RNCNCNvMs_NtNtCsdNOva7tMRqO_11payjoin_cli3app6walletNtB8_14BitcoindWallet7is_mine00Bc_
FNDA:0,_RNCNCNvMs_NtNtCsdNOva7tMRqO_11payjoin_cli3app6walletNtB8_14BitcoindWallet7network00Bc_
FNDA:0,_RNCNvMNtNtCsdNOva7tMRqO_11payjoin_cli3app6walletNtB4_14BitcoindWallet3new0B8_
FNDA:0,_RNCNvMs_NtNtCsdNOva7tMRqO_11payjoin_cli3app6walletNtB6_14BitcoindWallet11create_psbt0Ba_
FNDA:0,_RNCNvMs_NtNtCsdNOva7tMRqO_11payjoin_cli3app6walletNtB6_14BitcoindWallet11create_psbts0_0Ba_
FNDA:0,_RNCNvMs_NtNtCsdNOva7tMRqO_11payjoin_cli3app6walletNtB6_14BitcoindWallet11create_psbts_0Ba_
FNDA:0,_RNCNvMs_NtNtCsdNOva7tMRqO_11payjoin_cli3app6walletNtB6_14BitcoindWallet12broadcast_tx0Ba_
FNDA:0,_RNCNvMs_NtNtCsdNOva7tMRqO_11payjoin_cli3app6walletNtB6_14BitcoindWallet12list_unspent0Ba_
FNDA:0,_RNCNvMs_NtNtCsdNOva7tMRqO_11payjoin_cli3app6walletNtB6_14BitcoindWallet12process_psbt0Ba_
FNDA:0,_RNCNvMs_NtNtCsdNOva7tMRqO_11payjoin_cli3app6walletNtB6_14BitcoindWallet13can_broadcast0Ba_
FNDA:0,_RNCNvMs_NtNtCsdNOva7tMRqO_11payjoin_cli3app6walletNtB6_14BitcoindWallet13can_broadcasts0_0Ba_
FNDA:0,_RNCNvMs_NtNtCsdNOva7tMRqO_11payjoin_cli3app6walletNtB6_14BitcoindWallet13can_broadcasts_0Ba_
FNDA:0,_RNCNvMs_NtNtCsdNOva7tMRqO_11payjoin_cli3app6walletNtB6_14BitcoindWallet15get_new_address0Ba_
FNDA:0,_RNCNvMs_NtNtCsdNOva7tMRqO_11payjoin_cli3app6walletNtB6_14BitcoindWallet7is_mine0Ba_
FNDA:0,_RNCNvMs_NtNtCsdNOva7tMRqO_11payjoin_cli3app6walletNtB6_14BitcoindWallet7network0Ba_
FNDA:0,_RNCNvMs_NtNtCsdNOva7tMRqO_11payjoin_cli3app6walletNtB6_14BitcoindWallet7networks_0Ba_
FNDA:0,_RNvMNtNtCsdNOva7tMRqO_11payjoin_cli3app6walletNtB2_14BitcoindWallet3new
FNDA:0,_RNvMs_NtNtCsdNOva7tMRqO_11payjoin_cli3app6walletNtB4_14BitcoindWallet11create_psbt
FNDA:0,_RNvMs_NtNtCsdNOva7tMRqO_11payjoin_cli3app6walletNtB4_14BitcoindWallet12broadcast_tx
FNDA:0,_RNvMs_NtNtCsdNOva7tMRqO_11payjoin_cli3app6walletNtB4_14BitcoindWallet12list_unspent
FNDA:0,_RNvMs_NtNtCsdNOva7tMRqO_11payjoin_cli3app6walletNtB4_14BitcoindWallet12process_psbt
FNDA:0,_RNvMs_NtNtCsdNOva7tMRqO_11payjoin_cli3app6walletNtB4_14BitcoindWallet13can_broadcast
FNDA:0,_RNvMs_NtNtCsdNOva7tMRqO_11payjoin_cli3app6walletNtB4_14BitcoindWallet15get_new_address
FNDA:0,_RNvMs_NtNtCsdNOva7tMRqO_11payjoin_cli3app6walletNtB4_14BitcoindWallet19has_spendable_utxos
FNDA:0,_RNvMs_NtNtCsdNOva7tMRqO_11payjoin_cli3app6walletNtB4_14BitcoindWallet7is_mine
FNDA:0,_RNvMs_NtNtCsdNOva7tMRqO_11payjoin_cli3app6walletNtB4_14BitcoindWallet7network
FNDA:0,_RNvNtNtCsdNOva7tMRqO_11payjoin_cli3app6wallet22input_pair_from_corepc
FNDA:0,_RNCNCNCNvMs_NtNtCsgibgrjNWKaG_11payjoin_cli3app6walletNtBa_14BitcoindWallet11create_psbts_000Be_
FNDA:0,_RNCNCNvMs_NtNtCsgibgrjNWKaG_11payjoin_cli3app6walletNtB8_14BitcoindWallet11create_psbt00Bc_
FNDA:0,_RNCNCNvMs_NtNtCsgibgrjNWKaG_11payjoin_cli3app6walletNtB8_14BitcoindWallet11create_psbts0_00Bc_
FNDA:0,_RNCNCNvMs_NtNtCsgibgrjNWKaG_11payjoin_cli3app6walletNtB8_14BitcoindWallet11create_psbts_00Bc_
FNDA:0,_RNCNCNvMs_NtNtCsgibgrjNWKaG_11payjoin_cli3app6walletNtB8_14BitcoindWallet12broadcast_tx00Bc_
FNDA:0,_RNCNCNvMs_NtNtCsgibgrjNWKaG_11payjoin_cli3app6walletNtB8_14BitcoindWallet12list_unspent00Bc_
FNDA:0,_RNCNCNvMs_NtNtCsgibgrjNWKaG_11payjoin_cli3app6walletNtB8_14BitcoindWallet12process_psbt00Bc_
FNDA:0,_RNCNCNvMs_NtNtCsgibgrjNWKaG_11payjoin_cli3app6walletNtB8_14BitcoindWallet13can_broadcast00Bc_
FNDA:0,_RNCNCNvMs_NtNtCsgibgrjNWKaG_11payjoin_cli3app6walletNtB8_14BitcoindWallet15get_new_address00Bc_
FNDA:0,_RNCNCNvMs_NtNtCsgibgrjNWKaG_11payjoin_cli3app6walletNtB8_14BitcoindWallet7is_mine00Bc_
FNDA:0,_RNCNCNvMs_NtNtCsgibgrjNWKaG_11payjoin_cli3app6walletNtB8_14BitcoindWallet7network00Bc_
FNDA:0,_RNCNvMNtNtCsgibgrjNWKaG_11payjoin_cli3app6walletNtB4_14BitcoindWallet3new0B8_
FNDA:0,_RNCNvMs_NtNtCsgibgrjNWKaG_11payjoin_cli3app6walletNtB6_14BitcoindWallet11create_psbt0Ba_
FNDA:0,_RNCNvMs_NtNtCsgibgrjNWKaG_11payjoin_cli3app6walletNtB6_14BitcoindWallet11create_psbts0_0Ba_
FNDA:0,_RNCNvMs_NtNtCsgibgrjNWKaG_11payjoin_cli3app6walletNtB6_14BitcoindWallet11create_psbts_0Ba_
FNDA:0,_RNCNvMs_NtNtCsgibgrjNWKaG_11payjoin_cli3app6walletNtB6_14BitcoindWallet12broadcast_tx0Ba_
FNDA:0,_RNCNvMs_NtNtCsgibgrjNWKaG_11payjoin_cli3app6walletNtB6_14BitcoindWallet12list_unspent0Ba_
FNDA:0,_RNCNvMs_NtNtCsgibgrjNWKaG_11payjoin_cli3app6walletNtB6_14BitcoindWallet12process_psbt0Ba_
FNDA:0,_RNCNvMs_NtNtCsgibgrjNWKaG_11payjoin_cli3app6walletNtB6_14BitcoindWallet13can_broadcast0Ba_
FNDA:0,_RNCNvMs_NtNtCsgibgrjNWKaG_11payjoin_cli3app6walletNtB6_14BitcoindWallet13can_broadcasts0_0Ba_
FNDA:0,_RNCNvMs_NtNtCsgibgrjNWKaG_11payjoin_cli3app6walletNtB6_14BitcoindWallet13can_broadcasts_0Ba_
FNDA:0,_RNCNvMs_NtNtCsgibgrjNWKaG_11payjoin_cli3app6walletNtB6_14BitcoindWallet15get_new_address0Ba_
FNDA:0,_RNCNvMs_NtNtCsgibgrjNWKaG_11payjoin_cli3app6walletNtB6_14BitcoindWallet7is_mine0Ba_
FNDA:0,_RNCNvMs_NtNtCsgibgrjNWKaG_11payjoin_cli3app6walletNtB6_14BitcoindWallet7network0Ba_
FNDA:0,_RNCNvMs_NtNtCsgibgrjNWKaG_11payjoin_cli3app6walletNtB6_14BitcoindWallet7networks_0Ba_
FNDA:0,_RNvMNtNtCsgibgrjNWKaG_11payjoin_cli3app6walletNtB2_14BitcoindWallet3new
FNDA:0,_RNvMs_NtNtCsgibgrjNWKaG_11payjoin_cli3app6walletNtB4_14BitcoindWallet11create_psbt
FNDA:0,_RNvMs_NtNtCsgibgrjNWKaG_11payjoin_cli3app6walletNtB4_14BitcoindWallet12broadcast_tx
FNDA:0,_RNvMs_NtNtCsgibgrjNWKaG_11payjoin_cli3app6walletNtB4_14BitcoindWallet12list_unspent
FNDA:0,_RNvMs_NtNtCsgibgrjNWKaG_11payjoin_cli3app6walletNtB4_14BitcoindWallet12process_psbt
FNDA:0,_RNvMs_NtNtCsgibgrjNWKaG_11payjoin_cli3app6walletNtB4_14BitcoindWallet13can_broadcast
FNDA:0,_RNvMs_NtNtCsgibgrjNWKaG_11payjoin_cli3app6walletNtB4_14BitcoindWallet15get_new_address
FNDA:0,_RNvMs_NtNtCsgibgrjNWKaG_11payjoin_cli3app6walletNtB4_14BitcoindWallet19has_spendable_utxos
FNDA:0,_RNvMs_NtNtCsgibgrjNWKaG_11payjoin_cli3app6walletNtB4_14BitcoindWallet7is_mine
FNDA:0,_RNvMs_NtNtCsgibgrjNWKaG_11payjoin_cli3app6walletNtB4_14BitcoindWallet7network
FNDA:0,_RNvNtNtCsgibgrjNWKaG_11payjoin_cli3app6wallet22input_pair_from_corepc
FNDA:0,_RNvMNtNtCsb4baREu157E_11payjoin_cli3app6walletNtB2_14BitcoindWallet3new
FNDA:0,_RNvMs_NtNtCsb4baREu157E_11payjoin_cli3app6walletNtB4_14BitcoindWallet11create_psbt
FNDA:0,_RNvMs_NtNtCsb4baREu157E_11payjoin_cli3app6walletNtB4_14BitcoindWallet12broadcast_tx
FNDA:0,_RNvMs_NtNtCsb4baREu157E_11payjoin_cli3app6walletNtB4_14BitcoindWallet12list_unspent
FNDA:0,_RNvMs_NtNtCsb4baREu157E_11payjoin_cli3app6walletNtB4_14BitcoindWallet12process_psbt
FNDA:0,_RNvMs_NtNtCsb4baREu157E_11payjoin_cli3app6walletNtB4_14BitcoindWallet13can_broadcast
FNDA:0,_RNvMs_NtNtCsb4baREu157E_11payjoin_cli3app6walletNtB4_14BitcoindWallet15get_new_address
FNDA:0,_RNvMs_NtNtCsb4baREu157E_11payjoin_cli3app6walletNtB4_14BitcoindWallet19has_spendable_utxos
FNDA:0,_RNvMs_NtNtCsb4baREu157E_11payjoin_cli3app6walletNtB4_14BitcoindWallet7is_mine
FNDA:0,_RNvMs_NtNtCsb4baREu157E_11payjoin_cli3app6walletNtB4_14BitcoindWallet7network
FNDA:0,_RNvNtNtCsb4baREu157E_11payjoin_cli3app6wallet22input_pair_from_corepc
FNDA:0,_RNCNCNCNvMs_NtNtCsb4baREu157E_11payjoin_cli3app6walletNtBa_14BitcoindWallet11create_psbts_000Be_
FNDA:0,_RNCNCNvMs_NtNtCsb4baREu157E_11payjoin_cli3app6walletNtB8_14BitcoindWallet11create_psbt00Bc_
FNDA:0,_RNCNCNvMs_NtNtCsb4baREu157E_11payjoin_cli3app6walletNtB8_14BitcoindWallet11create_psbts0_00Bc_
FNDA:0,_RNCNCNvMs_NtNtCsb4baREu157E_11payjoin_cli3app6walletNtB8_14BitcoindWallet11create_psbts_00Bc_
FNDA:0,_RNCNCNvMs_NtNtCsb4baREu157E_11payjoin_cli3app6walletNtB8_14BitcoindWallet12broadcast_tx00Bc_
FNDA:0,_RNCNCNvMs_NtNtCsb4baREu157E_11payjoin_cli3app6walletNtB8_14BitcoindWallet12list_unspent00Bc_
FNDA:0,_RNCNCNvMs_NtNtCsb4baREu157E_11payjoin_cli3app6walletNtB8_14BitcoindWallet12process_psbt00Bc_
FNDA:0,_RNCNCNvMs_NtNtCsb4baREu157E_11payjoin_cli3app6walletNtB8_14BitcoindWallet13can_broadcast00Bc_
FNDA:0,_RNCNCNvMs_NtNtCsb4baREu157E_11payjoin_cli3app6walletNtB8_14BitcoindWallet15get_new_address00Bc_
FNDA:0,_RNCNCNvMs_NtNtCsb4baREu157E_11payjoin_cli3app6walletNtB8_14BitcoindWallet7is_mine00Bc_
FNDA:0,_RNCNCNvMs_NtNtCsb4baREu157E_11payjoin_cli3app6walletNtB8_14BitcoindWallet7network00Bc_
FNDA:0,_RNCNvMNtNtCsb4baREu157E_11payjoin_cli3app6walletNtB4_14BitcoindWallet3new0B8_
FNDA:0,_RNCNvMs_NtNtCsb4baREu157E_11payjoin_cli3app6walletNtB6_14BitcoindWallet11create_psbt0Ba_
FNDA:0,_RNCNvMs_NtNtCsb4baREu157E_11payjoin_cli3app6walletNtB6_14BitcoindWallet11create_psbts0_0Ba_
FNDA:0,_RNCNvMs_NtNtCsb4baREu157E_11payjoin_cli3app6walletNtB6_14BitcoindWallet11create_psbts_0Ba_
FNDA:0,_RNCNvMs_NtNtCsb4baREu157E_11payjoin_cli3app6walletNtB6_14BitcoindWallet12broadcast_tx0Ba_
FNDA:0,_RNCNvMs_NtNtCsb4baREu157E_11payjoin_cli3app6walletNtB6_14BitcoindWallet12list_unspent0Ba_
FNDA:0,_RNCNvMs_NtNtCsb4baREu157E_11payjoin_cli3app6walletNtB6_14BitcoindWallet12process_psbt0Ba_
FNDA:0,_RNCNvMs_NtNtCsb4baREu157E_11payjoin_cli3app6walletNtB6_14BitcoindWallet13can_broadcast0Ba_
FNDA:0,_RNCNvMs_NtNtCsb4baREu157E_11payjoin_cli3app6walletNtB6_14BitcoindWallet13can_broadcasts0_0Ba_
FNDA:0,_RNCNvMs_NtNtCsb4baREu157E_11payjoin_cli3app6walletNtB6_14BitcoindWallet13can_broadcasts_0Ba_
FNDA:0,_RNCNvMs_NtNtCsb4baREu157E_11payjoin_cli3app6walletNtB6_14BitcoindWallet15get_new_address0Ba_
FNDA:0,_RNCNvMs_NtNtCsb4baREu157E_11payjoin_cli3app6walletNtB6_14BitcoindWallet7is_mine0Ba_
FNDA:0,_RNCNvMs_NtNtCsb4baREu157E_11payjoin_cli3app6walletNtB6_14BitcoindWallet7network0Ba_
FNDA:0,_RNCNvMs_NtNtCsb4baREu157E_11payjoin_cli3app6walletNtB6_14BitcoindWallet7networks_0Ba_
FNDA:0,_RNCNCNCNvMs_NtNtCsdBQVr9DQLnV_11payjoin_cli3app6walletNtBa_14BitcoindWallet11create_psbts_000Be_
FNDA:0,_RNCNCNvMs_NtNtCsdBQVr9DQLnV_11payjoin_cli3app6walletNtB8_14BitcoindWallet11create_psbt00Bc_
FNDA:0,_RNCNCNvMs_NtNtCsdBQVr9DQLnV_11payjoin_cli3app6walletNtB8_14BitcoindWallet11create_psbts0_00Bc_
FNDA:0,_RNCNCNvMs_NtNtCsdBQVr9DQLnV_11payjoin_cli3app6walletNtB8_14BitcoindWallet11create_psbts_00Bc_
FNDA:0,_RNCNCNvMs_NtNtCsdBQVr9DQLnV_11payjoin_cli3app6walletNtB8_14BitcoindWallet12broadcast_tx00Bc_
FNDA:0,_RNCNCNvMs_NtNtCsdBQVr9DQLnV_11payjoin_cli3app6walletNtB8_14BitcoindWallet12list_unspent00Bc_
FNDA:0,_RNCNCNvMs_NtNtCsdBQVr9DQLnV_11payjoin_cli3app6walletNtB8_14BitcoindWallet12process_psbt00Bc_
FNDA:0,_RNCNCNvMs_NtNtCsdBQVr9DQLnV_11payjoin_cli3app6walletNtB8_14BitcoindWallet13can_broadcast00Bc_
FNDA:0,_RNCNCNvMs_NtNtCsdBQVr9DQLnV_11payjoin_cli3app6walletNtB8_14BitcoindWallet15get_new_address00Bc_
FNDA:0,_RNCNCNvMs_NtNtCsdBQVr9DQLnV_11payjoin_cli3app6walletNtB8_14BitcoindWallet19get_raw_transaction00Bc_
FNDA:0,_RNCNCNvMs_NtNtCsdBQVr9DQLnV_11payjoin_cli3app6walletNtB8_14BitcoindWallet7is_mine00Bc_
FNDA:0,_RNCNCNvMs_NtNtCsdBQVr9DQLnV_11payjoin_cli3app6walletNtB8_14BitcoindWallet7network00Bc_
FNDA:0,_RNCNvMNtNtCsdBQVr9DQLnV_11payjoin_cli3app6walletNtB4_14BitcoindWallet3new0B8_
FNDA:0,_RNCNvMs_NtNtCsdBQVr9DQLnV_11payjoin_cli3app6walletNtB6_14BitcoindWallet11create_psbt0Ba_
FNDA:0,_RNCNvMs_NtNtCsdBQVr9DQLnV_11payjoin_cli3app6walletNtB6_14BitcoindWallet11create_psbts0_0Ba_
FNDA:0,_RNCNvMs_NtNtCsdBQVr9DQLnV_11payjoin_cli3app6walletNtB6_14BitcoindWallet11create_psbts_0Ba_
FNDA:0,_RNCNvMs_NtNtCsdBQVr9DQLnV_11payjoin_cli3app6walletNtB6_14BitcoindWallet12broadcast_tx0Ba_
FNDA:0,_RNCNvMs_NtNtCsdBQVr9DQLnV_11payjoin_cli3app6walletNtB6_14BitcoindWallet12list_unspent0Ba_
FNDA:0,_RNCNvMs_NtNtCsdBQVr9DQLnV_11payjoin_cli3app6walletNtB6_14BitcoindWallet12process_psbt0Ba_
FNDA:0,_RNCNvMs_NtNtCsdBQVr9DQLnV_11payjoin_cli3app6walletNtB6_14BitcoindWallet13can_broadcast0Ba_
FNDA:0,_RNCNvMs_NtNtCsdBQVr9DQLnV_11payjoin_cli3app6walletNtB6_14BitcoindWallet13can_broadcasts0_0Ba_
FNDA:0,_RNCNvMs_NtNtCsdBQVr9DQLnV_11payjoin_cli3app6walletNtB6_14BitcoindWallet13can_broadcasts_0Ba_
FNDA:0,_RNCNvMs_NtNtCsdBQVr9DQLnV_11payjoin_cli3app6walletNtB6_14BitcoindWallet15get_new_address0Ba_
FNDA:0,_RNCNvMs_NtNtCsdBQVr9DQLnV_11payjoin_cli3app6walletNtB6_14BitcoindWallet19get_raw_transaction0Ba_
FNDA:0,_RNCNvMs_NtNtCsdBQVr9DQLnV_11payjoin_cli3app6walletNtB6_14BitcoindWallet7is_mine0Ba_
FNDA:0,_RNCNvMs_NtNtCsdBQVr9DQLnV_11payjoin_cli3app6walletNtB6_14BitcoindWallet7network0Ba_
FNDA:0,_RNCNvMs_NtNtCsdBQVr9DQLnV_11payjoin_cli3app6walletNtB6_14BitcoindWallet7networks_0Ba_
FNDA:0,_RNvMNtNtCsdBQVr9DQLnV_11payjoin_cli3app6walletNtB2_14BitcoindWallet3new
FNDA:0,_RNvMs_NtNtCsdBQVr9DQLnV_11payjoin_cli3app6walletNtB4_14BitcoindWallet11create_psbt
FNDA:0,_RNvMs_NtNtCsdBQVr9DQLnV_11payjoin_cli3app6walletNtB4_14BitcoindWallet12broadcast_tx
FNDA:0,_RNvMs_NtNtCsdBQVr9DQLnV_11payjoin_cli3app6walletNtB4_14BitcoindWallet12list_unspent
FNDA:0,_RNvMs_NtNtCsdBQVr9DQLnV_11payjoin_cli3app6walletNtB4_14BitcoindWallet12process_psbt
FNDA:0,_RNvMs_NtNtCsdBQVr9DQLnV_11payjoin_cli3app6walletNtB4_14BitcoindWallet13can_broadcast
FNDA:0,_RNvMs_NtNtCsdBQVr9DQLnV_11payjoin_cli3app6walletNtB4_14BitcoindWallet15get_new_address
FNDA:0,_RNvMs_NtNtCsdBQVr9DQLnV_11payjoin_cli3app6walletNtB4_14BitcoindWallet19get_raw_transaction
FNDA:0,_RNvMs_NtNtCsdBQVr9DQLnV_11payjoin_cli3app6walletNtB4_14BitcoindWallet19has_spendable_utxos
FNDA:0,_RNvMs_NtNtCsdBQVr9DQLnV_11payjoin_cli3app6walletNtB4_14BitcoindWallet7is_mine
FNDA:0,_RNvMs_NtNtCsdBQVr9DQLnV_11payjoin_cli3app6walletNtB4_14BitcoindWallet7network
FNDA:0,_RNvNtNtCsdBQVr9DQLnV_11payjoin_cli3app6wallet22input_pair_from_corepc
FNDA:2,_RNvMNtNtCscUu8AqYtVTR_11payjoin_cli3app6walletNtB2_14BitcoindWallet3new
FNDA:1,_RNvMs_NtNtCscUu8AqYtVTR_11payjoin_cli3app6walletNtB4_14BitcoindWallet11create_psbt
FNDA:1,_RNvMs_NtNtCscUu8AqYtVTR_11payjoin_cli3app6walletNtB4_14BitcoindWallet12broadcast_tx
FNDA:2,_RNvMs_NtNtCscUu8AqYtVTR_11payjoin_cli3app6walletNtB4_14BitcoindWallet12list_unspent
FNDA:2,_RNvMs_NtNtCscUu8AqYtVTR_11payjoin_cli3app6walletNtB4_14BitcoindWallet12process_psbt
FNDA:1,_RNvMs_NtNtCscUu8AqYtVTR_11payjoin_cli3app6walletNtB4_14BitcoindWallet13can_broadcast
FNDA:2,_RNvMs_NtNtCscUu8AqYtVTR_11payjoin_cli3app6walletNtB4_14BitcoindWallet15get_new_address
FNDA:1,_RNvMs_NtNtCscUu8AqYtVTR_11payjoin_cli3app6walletNtB4_14BitcoindWallet19has_spendable_utxos
FNDA:3,_RNvMs_NtNtCscUu8AqYtVTR_11payjoin_cli3app6walletNtB4_14BitcoindWallet7is_mine
FNDA:5,_RNvMs_NtNtCscUu8AqYtVTR_11payjoin_cli3app6walletNtB4_14BitcoindWallet7network
FNDA:2,_RNvNtNtCscUu8AqYtVTR_11payjoin_cli3app6wallet22input_pair_from_corepc
FNDA:1,_RNCNCNCNvMs_NtNtCscUu8AqYtVTR_11payjoin_cli3app6walletNtBa_14BitcoindWallet11create_psbts_000Be_
FNDA:1,_RNCNCNvMs_NtNtCscUu8AqYtVTR_11payjoin_cli3app6walletNtB8_14BitcoindWallet11create_psbt00Bc_
FNDA:1,_RNCNCNvMs_NtNtCscUu8AqYtVTR_11payjoin_cli3app6walletNtB8_14BitcoindWallet11create_psbts0_00Bc_
FNDA:1,_RNCNCNvMs_NtNtCscUu8AqYtVTR_11payjoin_cli3app6walletNtB8_14BitcoindWallet11create_psbts_00Bc_
FNDA:1,_RNCNCNvMs_NtNtCscUu8AqYtVTR_11payjoin_cli3app6walletNtB8_14BitcoindWallet12broadcast_tx00Bc_
FNDA:2,_RNCNCNvMs_NtNtCscUu8AqYtVTR_11payjoin_cli3app6walletNtB8_14BitcoindWallet12list_unspent00Bc_
FNDA:2,_RNCNCNvMs_NtNtCscUu8AqYtVTR_11payjoin_cli3app6walletNtB8_14BitcoindWallet12process_psbt00Bc_
FNDA:1,_RNCNCNvMs_NtNtCscUu8AqYtVTR_11payjoin_cli3app6walletNtB8_14BitcoindWallet13can_broadcast00Bc_
FNDA:2,_RNCNCNvMs_NtNtCscUu8AqYtVTR_11payjoin_cli3app6walletNtB8_14BitcoindWallet15get_new_address00Bc_
FNDA:3,_RNCNCNvMs_NtNtCscUu8AqYtVTR_11payjoin_cli3app6walletNtB8_14BitcoindWallet7is_mine00Bc_
FNDA:5,_RNCNCNvMs_NtNtCscUu8AqYtVTR_11payjoin_cli3app6walletNtB8_14BitcoindWallet7network00Bc_
FNDA:2,_RNCNvMNtNtCscUu8AqYtVTR_11payjoin_cli3app6walletNtB4_14BitcoindWallet3new0B8_
FNDA:1,_RNCNvMs_NtNtCscUu8AqYtVTR_11payjoin_cli3app6walletNtB6_14BitcoindWallet11create_psbt0Ba_
FNDA:1,_RNCNvMs_NtNtCscUu8AqYtVTR_11payjoin_cli3app6walletNtB6_14BitcoindWallet11create_psbts0_0Ba_
FNDA:1,_RNCNvMs_NtNtCscUu8AqYtVTR_11payjoin_cli3app6walletNtB6_14BitcoindWallet11create_psbts_0Ba_
FNDA:1,_RNCNvMs_NtNtCscUu8AqYtVTR_11payjoin_cli3app6walletNtB6_14BitcoindWallet12broadcast_tx0Ba_
FNDA:2,_RNCNvMs_NtNtCscUu8AqYtVTR_11payjoin_cli3app6walletNtB6_14BitcoindWallet12list_unspent0Ba_
FNDA:2,_RNCNvMs_NtNtCscUu8AqYtVTR_11payjoin_cli3app6walletNtB6_14BitcoindWallet12process_psbt0Ba_
FNDA:1,_RNCNvMs_NtNtCscUu8AqYtVTR_11payjoin_cli3app6walletNtB6_14BitcoindWallet13can_broadcast0Ba_
FNDA:0,_RNCNvMs_NtNtCscUu8AqYtVTR_11payjoin_cli3app6walletNtB6_14BitcoindWallet13can_broadcasts0_0Ba_
FNDA:1,_RNCNvMs_NtNtCscUu8AqYtVTR_11payjoin_cli3app6walletNtB6_14BitcoindWallet13can_broadcasts_0Ba_
FNDA:2,_RNCNvMs_NtNtCscUu8AqYtVTR_11payjoin_cli3app6walletNtB6_14BitcoindWallet15get_new_address0Ba_
FNDA:3,_RNCNvMs_NtNtCscUu8AqYtVTR_11payjoin_cli3app6walletNtB6_14BitcoindWallet7is_mine0Ba_
FNDA:5,_RNCNvMs_NtNtCscUu8AqYtVTR_11payjoin_cli3app6walletNtB6_14BitcoindWallet7network0Ba_
FNDA:0,_RNCNvMs_NtNtCscUu8AqYtVTR_11payjoin_cli3app6walletNtB6_14BitcoindWallet7networks_0Ba_
FNDA:11,_RNvMNtNtCs6sB0kYsNxnG_11payjoin_cli3app6walletNtB2_14BitcoindWallet3new
FNDA:3,_RNvMs_NtNtCs6sB0kYsNxnG_11payjoin_cli3app6walletNtB4_14BitcoindWallet11create_psbt
FNDA:3,_RNvMs_NtNtCs6sB0kYsNxnG_11payjoin_cli3app6walletNtB4_14BitcoindWallet12broadcast_tx
FNDA:6,_RNvMs_NtNtCs6sB0kYsNxnG_11payjoin_cli3app6walletNtB4_14BitcoindWallet12list_unspent
FNDA:6,_RNvMs_NtNtCs6sB0kYsNxnG_11payjoin_cli3app6walletNtB4_14BitcoindWallet12process_psbt
FNDA:3,_RNvMs_NtNtCs6sB0kYsNxnG_11payjoin_cli3app6walletNtB4_14BitcoindWallet13can_broadcast
FNDA:5,_RNvMs_NtNtCs6sB0kYsNxnG_11payjoin_cli3app6walletNtB4_14BitcoindWallet15get_new_address
FNDA:1,_RNvMs_NtNtCs6sB0kYsNxnG_11payjoin_cli3app6walletNtB4_14BitcoindWallet19get_raw_transaction
FNDA:3,_RNvMs_NtNtCs6sB0kYsNxnG_11payjoin_cli3app6walletNtB4_14BitcoindWallet19has_spendable_utxos
FNDA:9,_RNvMs_NtNtCs6sB0kYsNxnG_11payjoin_cli3app6walletNtB4_14BitcoindWallet7is_mine
FNDA:20,_RNvMs_NtNtCs6sB0kYsNxnG_11payjoin_cli3app6walletNtB4_14BitcoindWallet7network
FNDA:6,_RNvNtNtCs6sB0kYsNxnG_11payjoin_cli3app6wallet22input_pair_from_corepc
FNDA:3,_RNCNCNCNvMs_NtNtCs6sB0kYsNxnG_11payjoin_cli3app6walletNtBa_14BitcoindWallet11create_psbts_000Be_
FNDA:3,_RNCNCNvMs_NtNtCs6sB0kYsNxnG_11payjoin_cli3app6walletNtB8_14BitcoindWallet11create_psbt00Bc_
FNDA:3,_RNCNCNvMs_NtNtCs6sB0kYsNxnG_11payjoin_cli3app6walletNtB8_14BitcoindWallet11create_psbts0_00Bc_
FNDA:3,_RNCNCNvMs_NtNtCs6sB0kYsNxnG_11payjoin_cli3app6walletNtB8_14BitcoindWallet11create_psbts_00Bc_
FNDA:3,_RNCNCNvMs_NtNtCs6sB0kYsNxnG_11payjoin_cli3app6walletNtB8_14BitcoindWallet12broadcast_tx00Bc_
FNDA:6,_RNCNCNvMs_NtNtCs6sB0kYsNxnG_11payjoin_cli3app6walletNtB8_14BitcoindWallet12list_unspent00Bc_
FNDA:6,_RNCNCNvMs_NtNtCs6sB0kYsNxnG_11payjoin_cli3app6walletNtB8_14BitcoindWallet12process_psbt00Bc_
FNDA:3,_RNCNCNvMs_NtNtCs6sB0kYsNxnG_11payjoin_cli3app6walletNtB8_14BitcoindWallet13can_broadcast00Bc_
FNDA:5,_RNCNCNvMs_NtNtCs6sB0kYsNxnG_11payjoin_cli3app6walletNtB8_14BitcoindWallet15get_new_address00Bc_
FNDA:1,_RNCNCNvMs_NtNtCs6sB0kYsNxnG_11payjoin_cli3app6walletNtB8_14BitcoindWallet19get_raw_transaction00Bc_
FNDA:9,_RNCNCNvMs_NtNtCs6sB0kYsNxnG_11payjoin_cli3app6walletNtB8_14BitcoindWallet7is_mine00Bc_
FNDA:20,_RNCNCNvMs_NtNtCs6sB0kYsNxnG_11payjoin_cli3app6walletNtB8_14BitcoindWallet7network00Bc_
FNDA:11,_RNCNvMNtNtCs6sB0kYsNxnG_11payjoin_cli3app6walletNtB4_14BitcoindWallet3new0B8_
FNDA:3,_RNCNvMs_NtNtCs6sB0kYsNxnG_11payjoin_cli3app6walletNtB6_14BitcoindWallet11create_psbt0Ba_
FNDA:3,_RNCNvMs_NtNtCs6sB0kYsNxnG_11payjoin_cli3app6walletNtB6_14BitcoindWallet11create_psbts0_0Ba_
FNDA:3,_RNCNvMs_NtNtCs6sB0kYsNxnG_11payjoin_cli3app6walletNtB6_14BitcoindWallet11create_psbts_0Ba_
FNDA:3,_RNCNvMs_NtNtCs6sB0kYsNxnG_11payjoin_cli3app6walletNtB6_14BitcoindWallet12broadcast_tx0Ba_
FNDA:6,_RNCNvMs_NtNtCs6sB0kYsNxnG_11payjoin_cli3app6walletNtB6_14BitcoindWallet12list_unspent0Ba_
FNDA:6,_RNCNvMs_NtNtCs6sB0kYsNxnG_11payjoin_cli3app6walletNtB6_14BitcoindWallet12process_psbt0Ba_
FNDA:3,_RNCNvMs_NtNtCs6sB0kYsNxnG_11payjoin_cli3app6walletNtB6_14BitcoindWallet13can_broadcast0Ba_
FNDA:0,_RNCNvMs_NtNtCs6sB0kYsNxnG_11payjoin_cli3app6walletNtB6_14BitcoindWallet13can_broadcasts0_0Ba_
FNDA:3,_RNCNvMs_NtNtCs6sB0kYsNxnG_11payjoin_cli3app6walletNtB6_14BitcoindWallet13can_broadcasts_0Ba_
FNDA:5,_RNCNvMs_NtNtCs6sB0kYsNxnG_11payjoin_cli3app6walletNtB6_14BitcoindWallet15get_new_address0Ba_
FNDA:1,_RNCNvMs_NtNtCs6sB0kYsNxnG_11payjoin_cli3app6walletNtB6_14BitcoindWallet19get_raw_transaction0Ba_
FNDA:9,_RNCNvMs_NtNtCs6sB0kYsNxnG_11payjoin_cli3app6walletNtB6_14BitcoindWallet7is_mine0Ba_
FNDA:20,_RNCNvMs_NtNtCs6sB0kYsNxnG_11payjoin_cli3app6walletNtB6_14BitcoindWallet7network0Ba_
FNDA:0,_RNCNvMs_NtNtCs6sB0kYsNxnG_11payjoin_cli3app6walletNtB6_14BitcoindWallet7networks_0Ba_
FNF:39
FNH:37
DA:22,13
DA:23,13
DA:24,13
DA:25,0
DA:26,0
DA:27,0
DA:28,13
DA:29,0
DA:32,13
DA:34,13
DA:35,13
DA:40,4
DA:41,4
DA:42,4
DA:43,4
DA:44,4
DA:45,4
DA:46,4
DA:47,4
DA:49,4
DA:50,4
DA:51,4
DA:52,4
DA:53,4
DA:54,4
DA:59,4
DA:60,4
DA:61,4
DA:64,4
DA:65,4
DA:66,4
DA:67,4
DA:68,4
DA:69,4
DA:70,4
DA:71,4
DA:72,4
DA:73,4
DA:74,4
DA:75,4
DA:76,4
DA:77,4
DA:78,4
DA:80,4
DA:81,4
DA:82,4
DA:84,4
DA:85,4
DA:86,4
DA:87,4
DA:88,4
DA:91,4
DA:92,4
DA:97,8
DA:98,8
DA:99,8
DA:100,8
DA:101,8
DA:102,8
DA:103,8
DA:104,8
DA:105,8
DA:107,4
DA:108,4
DA:109,4
DA:110,4
DA:111,4
DA:113,4
DA:114,4
DA:115,4
DA:116,4
DA:117,4
DA:118,4
DA:121,4
DA:122,4
DA:123,4
DA:124,4
DA:125,4
DA:126,4
DA:127,4
DA:130,12
DA:131,12
DA:132,12
DA:133,12
DA:134,12
DA:135,12
DA:136,12
DA:137,12
DA:139,0
DA:141,12
DA:144,1
DA:145,1
DA:146,1
DA:147,1
DA:148,1
DA:149,1
DA:150,1
DA:151,1
DA:152,0
DA:153,0
DA:154,0
DA:156,0
DA:159,1
DA:160,1
DA:161,1
DA:162,1
DA:165,7
DA:166,7
DA:167,7
DA:168,7
DA:169,7
DA:170,7
DA:171,7
DA:174,8
DA:175,8
DA:176,8
DA:177,8
DA:178,8
DA:179,8
DA:180,8
DA:181,8
DA:184,4
DA:185,4
DA:186,4
DA:187,4
DA:190,25
DA:191,25
DA:192,25
DA:193,25
DA:194,25
DA:195,25
DA:198,8
DA:199,8
DA:200,8
DA:201,8
DA:202,8
DA:203,8
DA:204,8
DA:205,8
DA:206,8
DA:207,8
DA:208,8
DA:209,8
DA:210,8
DA:211,8
DA:212,8
DA:213,8
DA:214,8
DA:215,8
BRF:0
BRH:0
LF:181
LH:164
end_of_record
SF:/Users/bene/bitcoin/rust-payjoin/payjoin-cli/src/cli/mod.rs
FN:149,_RNCNvNtCsdNOva7tMRqO_11payjoin_cli3cli15parse_boxed_url0B5_
FN:148,_RNvNtCsdNOva7tMRqO_11payjoin_cli3cli15parse_boxed_url
FN:138,_RNvNtCsdNOva7tMRqO_11payjoin_cli3cli19parse_amount_in_sat
FN:142,_RNvNtCsdNOva7tMRqO_11payjoin_cli3cli28parse_fee_rate_in_sat_per_vb
FN:149,_RNCNvNtCsgibgrjNWKaG_11payjoin_cli3cli15parse_boxed_url0B5_
FN:148,_RNvNtCsgibgrjNWKaG_11payjoin_cli3cli15parse_boxed_url
FN:138,_RNvNtCsgibgrjNWKaG_11payjoin_cli3cli19parse_amount_in_sat
FN:142,_RNvNtCsgibgrjNWKaG_11payjoin_cli3cli28parse_fee_rate_in_sat_per_vb
FN:149,_RNCNvNtCsb4baREu157E_11payjoin_cli3cli15parse_boxed_url0B5_
FN:148,_RNvNtCsb4baREu157E_11payjoin_cli3cli15parse_boxed_url
FN:138,_RNvNtCsb4baREu157E_11payjoin_cli3cli19parse_amount_in_sat
FN:142,_RNvNtCsb4baREu157E_11payjoin_cli3cli28parse_fee_rate_in_sat_per_vb
FN:149,_RNCNvNtCsdBQVr9DQLnV_11payjoin_cli3cli15parse_boxed_url0B5_
FN:148,_RNvNtCsdBQVr9DQLnV_11payjoin_cli3cli15parse_boxed_url
FN:138,_RNvNtCsdBQVr9DQLnV_11payjoin_cli3cli19parse_amount_in_sat
FN:142,_RNvNtCsdBQVr9DQLnV_11payjoin_cli3cli28parse_fee_rate_in_sat_per_vb
FN:149,_RNCNvNtCscUu8AqYtVTR_11payjoin_cli3cli15parse_boxed_url0B5_
FN:148,_RNvNtCscUu8AqYtVTR_11payjoin_cli3cli15parse_boxed_url
FN:138,_RNvNtCscUu8AqYtVTR_11payjoin_cli3cli19parse_amount_in_sat
FN:142,_RNvNtCscUu8AqYtVTR_11payjoin_cli3cli28parse_fee_rate_in_sat_per_vb
FN:148,_RNvNtCs6sB0kYsNxnG_11payjoin_cli3cli15parse_boxed_url
FN:138,_RNvNtCs6sB0kYsNxnG_11payjoin_cli3cli19parse_amount_in_sat
FN:142,_RNvNtCs6sB0kYsNxnG_11payjoin_cli3cli28parse_fee_rate_in_sat_per_vb
FN:149,_RNCNvNtCs6sB0kYsNxnG_11payjoin_cli3cli15parse_boxed_url0B5_
FNDA:0,_RNCNvNtCsdNOva7tMRqO_11payjoin_cli3cli15parse_boxed_url0B5_
FNDA:0,_RNvNtCsdNOva7tMRqO_11payjoin_cli3cli15parse_boxed_url
FNDA:0,_RNvNtCsdNOva7tMRqO_11payjoin_cli3cli19parse_amount_in_sat
FNDA:0,_RNvNtCsdNOva7tMRqO_11payjoin_cli3cli28parse_fee_rate_in_sat_per_vb
FNDA:0,_RNCNvNtCsgibgrjNWKaG_11payjoin_cli3cli15parse_boxed_url0B5_
FNDA:0,_RNvNtCsgibgrjNWKaG_11payjoin_cli3cli15parse_boxed_url
FNDA:0,_RNvNtCsgibgrjNWKaG_11payjoin_cli3cli19parse_amount_in_sat
FNDA:0,_RNvNtCsgibgrjNWKaG_11payjoin_cli3cli28parse_fee_rate_in_sat_per_vb
FNDA:0,_RNCNvNtCsb4baREu157E_11payjoin_cli3cli15parse_boxed_url0B5_
FNDA:0,_RNvNtCsb4baREu157E_11payjoin_cli3cli15parse_boxed_url
FNDA:0,_RNvNtCsb4baREu157E_11payjoin_cli3cli19parse_amount_in_sat
FNDA:0,_RNvNtCsb4baREu157E_11payjoin_cli3cli28parse_fee_rate_in_sat_per_vb
FNDA:0,_RNCNvNtCsdBQVr9DQLnV_11payjoin_cli3cli15parse_boxed_url0B5_
FNDA:0,_RNvNtCsdBQVr9DQLnV_11payjoin_cli3cli15parse_boxed_url
FNDA:0,_RNvNtCsdBQVr9DQLnV_11payjoin_cli3cli19parse_amount_in_sat
FNDA:0,_RNvNtCsdBQVr9DQLnV_11payjoin_cli3cli28parse_fee_rate_in_sat_per_vb
FNDA:0,_RNCNvNtCscUu8AqYtVTR_11payjoin_cli3cli15parse_boxed_url0B5_
FNDA:1,_RNvNtCscUu8AqYtVTR_11payjoin_cli3cli15parse_boxed_url
FNDA:1,_RNvNtCscUu8AqYtVTR_11payjoin_cli3cli19parse_amount_in_sat
FNDA:1,_RNvNtCscUu8AqYtVTR_11payjoin_cli3cli28parse_fee_rate_in_sat_per_vb
FNDA:3,_RNvNtCs6sB0kYsNxnG_11payjoin_cli3cli15parse_boxed_url
FNDA:3,_RNvNtCs6sB0kYsNxnG_11payjoin_cli3cli19parse_amount_in_sat
FNDA:4,_RNvNtCs6sB0kYsNxnG_11payjoin_cli3cli28parse_fee_rate_in_sat_per_vb
FNDA:0,_RNCNvNtCs6sB0kYsNxnG_11payjoin_cli3cli15parse_boxed_url0B5_
FNF:4
FNH:3
DA:138,4
DA:139,4
DA:140,4
DA:142,5
DA:143,5
DA:144,5
DA:145,5
DA:146,5
DA:148,4
DA:149,4
DA:150,4
BRF:0
BRH:0
LF:12
LH:11
end_of_record
SF:/Users/bene/bitcoin/rust-payjoin/payjoin-cli/src/db/error.rs
FN:29,_RNvXNtNtCsdNOva7tMRqO_11payjoin_cli2db5errorNtB2_5ErrorNtNtCs2hl1TO11rA7_4core3fmt7Display3fmt
FN:66,_RNvXs0_NtNtCsdNOva7tMRqO_11payjoin_cli2db5errorNtB5_5ErrorINtNtCs2hl1TO11rA7_4core7convert4FromNtNtCs8ZhW6xHhgO3_8rusqlite5error5ErrorE4from
FN:70,_RNvXs1_NtNtCsdNOva7tMRqO_11payjoin_cli2db5errorNtB5_5ErrorINtNtCs2hl1TO11rA7_4core7convert4FromNtCsknjk7nDK6Ak_4r2d25ErrorE4from
FN:86,_RNvXs2_NtNtCsdNOva7tMRqO_11payjoin_cli2db5errorNtNtNtCs9T6n9XKryM2_7payjoin4core5error19ImplementationErrorINtNtCs2hl1TO11rA7_4core7convert4FromNtB5_5ErrorE4from
FN:51,_RNvXs_NtNtCsdNOva7tMRqO_11payjoin_cli2db5errorNtB4_5ErrorNtNtCs2hl1TO11rA7_4core5error5Error6source
FN:20,_RNvXNtNtCsgibgrjNWKaG_11payjoin_cli2db5errorNtB2_5ErrorNtNtCs2hl1TO11rA7_4core3fmt7Display3fmt
FN:46,_RNvXs0_NtNtCsgibgrjNWKaG_11payjoin_cli2db5errorNtB5_5ErrorINtNtCs2hl1TO11rA7_4core7convert4FromNtNtCs8ZhW6xHhgO3_8rusqlite5error5ErrorE4from
FN:50,_RNvXs1_NtNtCsgibgrjNWKaG_11payjoin_cli2db5errorNtB5_5ErrorINtNtCs2hl1TO11rA7_4core7convert4FromNtCsknjk7nDK6Ak_4r2d25ErrorE4from
FN:66,_RNvXs2_NtNtCsgibgrjNWKaG_11payjoin_cli2db5errorNtNtNtCs9T6n9XKryM2_7payjoin4core5error19ImplementationErrorINtNtCs2hl1TO11rA7_4core7convert4FromNtB5_5ErrorE4from
FN:33,_RNvXs_NtNtCsgibgrjNWKaG_11payjoin_cli2db5errorNtB4_5ErrorNtNtCs2hl1TO11rA7_4core5error5Error6source
FN:20,_RNvXNtNtCsb4baREu157E_11payjoin_cli2db5errorNtB2_5ErrorNtNtCs2hl1TO11rA7_4core3fmt7Display3fmt
FN:46,_RNvXs0_NtNtCsb4baREu157E_11payjoin_cli2db5errorNtB5_5ErrorINtNtCs2hl1TO11rA7_4core7convert4FromNtNtCs8ZhW6xHhgO3_8rusqlite5error5ErrorE4from
FN:50,_RNvXs1_NtNtCsb4baREu157E_11payjoin_cli2db5errorNtB5_5ErrorINtNtCs2hl1TO11rA7_4core7convert4FromNtCsknjk7nDK6Ak_4r2d25ErrorE4from
FN:33,_RNvXs_NtNtCsb4baREu157E_11payjoin_cli2db5errorNtB4_5ErrorNtNtCs2hl1TO11rA7_4core5error5Error6source
FN:66,_RNvXs2_NtNtCsb4baREu157E_11payjoin_cli2db5errorNtNtNtCs9T6n9XKryM2_7payjoin4core5error19ImplementationErrorINtNtCs2hl1TO11rA7_4core7convert4FromNtB5_5ErrorE4from
FN:29,_RNvXNtNtCsdBQVr9DQLnV_11payjoin_cli2db5errorNtB2_5ErrorNtNtCs2hl1TO11rA7_4core3fmt7Display3fmt
FN:75,_RNvXs2_NtNtCsdBQVr9DQLnV_11payjoin_cli2db5errorNtB5_5ErrorINtNtCs2hl1TO11rA7_4core7convert4FromNtNtCscepVPoaiheM_10serde_json5error5ErrorE4from
FN:86,_RNvXs3_NtNtCsdBQVr9DQLnV_11payjoin_cli2db5errorNtNtNtCsgunIiAgq1He_7payjoin4core5error19ImplementationErrorINtNtCs2hl1TO11rA7_4core7convert4FromNtB5_5ErrorE4from
FN:51,_RNvXs_NtNtCsdBQVr9DQLnV_11payjoin_cli2db5errorNtB4_5ErrorNtNtCs2hl1TO11rA7_4core5error5Error6source
FN:66,_RNvXs0_NtNtCsdBQVr9DQLnV_11payjoin_cli2db5errorNtB5_5ErrorINtNtCs2hl1TO11rA7_4core7convert4FromNtNtCs8ZhW6xHhgO3_8rusqlite5error5ErrorE4from
FN:70,_RNvXs1_NtNtCsdBQVr9DQLnV_11payjoin_cli2db5errorNtB5_5ErrorINtNtCs2hl1TO11rA7_4core7convert4FromNtCsknjk7nDK6Ak_4r2d25ErrorE4from
FN:86,_RNvXs2_NtNtCscUu8AqYtVTR_11payjoin_cli2db5errorNtNtNtCs9T6n9XKryM2_7payjoin4core5error19ImplementationErrorINtNtCs2hl1TO11rA7_4core7convert4FromNtB5_5ErrorE4from
FN:29,_RNvXNtNtCscUu8AqYtVTR_11payjoin_cli2db5errorNtB2_5ErrorNtNtCs2hl1TO11rA7_4core3fmt7Display3fmt
FN:66,_RNvXs0_NtNtCscUu8AqYtVTR_11payjoin_cli2db5errorNtB5_5ErrorINtNtCs2hl1TO11rA7_4core7convert4FromNtNtCs8ZhW6xHhgO3_8rusqlite5error5ErrorE4from
FN:70,_RNvXs1_NtNtCscUu8AqYtVTR_11payjoin_cli2db5errorNtB5_5ErrorINtNtCs2hl1TO11rA7_4core7convert4FromNtCsknjk7nDK6Ak_4r2d25ErrorE4from
FN:51,_RNvXs_NtNtCscUu8AqYtVTR_11payjoin_cli2db5errorNtB4_5ErrorNtNtCs2hl1TO11rA7_4core5error5Error6source
FN:75,_RNvXs2_NtNtCs6sB0kYsNxnG_11payjoin_cli2db5errorNtB5_5ErrorINtNtCs2hl1TO11rA7_4core7convert4FromNtNtCscepVPoaiheM_10serde_json5error5ErrorE4from
FN:29,_RNvXNtNtCs6sB0kYsNxnG_11payjoin_cli2db5errorNtB2_5ErrorNtNtCs2hl1TO11rA7_4core3fmt7Display3fmt
FN:66,_RNvXs0_NtNtCs6sB0kYsNxnG_11payjoin_cli2db5errorNtB5_5ErrorINtNtCs2hl1TO11rA7_4core7convert4FromNtNtCs8ZhW6xHhgO3_8rusqlite5error5ErrorE4from
FN:70,_RNvXs1_NtNtCs6sB0kYsNxnG_11payjoin_cli2db5errorNtB5_5ErrorINtNtCs2hl1TO11rA7_4core7convert4FromNtCsknjk7nDK6Ak_4r2d25ErrorE4from
FN:51,_RNvXs_NtNtCs6sB0kYsNxnG_11payjoin_cli2db5errorNtB4_5ErrorNtNtCs2hl1TO11rA7_4core5error5Error6source
FN:86,_RNvXs3_NtNtCs6sB0kYsNxnG_11payjoin_cli2db5errorNtNtNtCsgunIiAgq1He_7payjoin4core5error19ImplementationErrorINtNtCs2hl1TO11rA7_4core7convert4FromNtB5_5ErrorE4from
FNDA:0,_RNvXNtNtCsdNOva7tMRqO_11payjoin_cli2db5errorNtB2_5ErrorNtNtCs2hl1TO11rA7_4core3fmt7Display3fmt
FNDA:0,_RNvXs0_NtNtCsdNOva7tMRqO_11payjoin_cli2db5errorNtB5_5ErrorINtNtCs2hl1TO11rA7_4core7convert4FromNtNtCs8ZhW6xHhgO3_8rusqlite5error5ErrorE4from
FNDA:0,_RNvXs1_NtNtCsdNOva7tMRqO_11payjoin_cli2db5errorNtB5_5ErrorINtNtCs2hl1TO11rA7_4core7convert4FromNtCsknjk7nDK6Ak_4r2d25ErrorE4from
FNDA:0,_RNvXs2_NtNtCsdNOva7tMRqO_11payjoin_cli2db5errorNtNtNtCs9T6n9XKryM2_7payjoin4core5error19ImplementationErrorINtNtCs2hl1TO11rA7_4core7convert4FromNtB5_5ErrorE4from
FNDA:0,_RNvXs_NtNtCsdNOva7tMRqO_11payjoin_cli2db5errorNtB4_5ErrorNtNtCs2hl1TO11rA7_4core5error5Error6source
FNDA:0,_RNvXNtNtCsgibgrjNWKaG_11payjoin_cli2db5errorNtB2_5ErrorNtNtCs2hl1TO11rA7_4core3fmt7Display3fmt
FNDA:0,_RNvXs0_NtNtCsgibgrjNWKaG_11payjoin_cli2db5errorNtB5_5ErrorINtNtCs2hl1TO11rA7_4core7convert4FromNtNtCs8ZhW6xHhgO3_8rusqlite5error5ErrorE4from
FNDA:0,_RNvXs1_NtNtCsgibgrjNWKaG_11payjoin_cli2db5errorNtB5_5ErrorINtNtCs2hl1TO11rA7_4core7convert4FromNtCsknjk7nDK6Ak_4r2d25ErrorE4from
FNDA:0,_RNvXs2_NtNtCsgibgrjNWKaG_11payjoin_cli2db5errorNtNtNtCs9T6n9XKryM2_7payjoin4core5error19ImplementationErrorINtNtCs2hl1TO11rA7_4core7convert4FromNtB5_5ErrorE4from
FNDA:0,_RNvXs_NtNtCsgibgrjNWKaG_11payjoin_cli2db5errorNtB4_5ErrorNtNtCs2hl1TO11rA7_4core5error5Error6source
FNDA:0,_RNvXNtNtCsb4baREu157E_11payjoin_cli2db5errorNtB2_5ErrorNtNtCs2hl1TO11rA7_4core3fmt7Display3fmt
FNDA:0,_RNvXs0_NtNtCsb4baREu157E_11payjoin_cli2db5errorNtB5_5ErrorINtNtCs2hl1TO11rA7_4core7convert4FromNtNtCs8ZhW6xHhgO3_8rusqlite5error5ErrorE4from
FNDA:0,_RNvXs1_NtNtCsb4baREu157E_11payjoin_cli2db5errorNtB5_5ErrorINtNtCs2hl1TO11rA7_4core7convert4FromNtCsknjk7nDK6Ak_4r2d25ErrorE4from
FNDA:0,_RNvXs_NtNtCsb4baREu157E_11payjoin_cli2db5errorNtB4_5ErrorNtNtCs2hl1TO11rA7_4core5error5Error6source
FNDA:0,_RNvXs2_NtNtCsb4baREu157E_11payjoin_cli2db5errorNtNtNtCs9T6n9XKryM2_7payjoin4core5error19ImplementationErrorINtNtCs2hl1TO11rA7_4core7convert4FromNtB5_5ErrorE4from
FNDA:0,_RNvXNtNtCsdBQVr9DQLnV_11payjoin_cli2db5errorNtB2_5ErrorNtNtCs2hl1TO11rA7_4core3fmt7Display3fmt
FNDA:0,_RNvXs2_NtNtCsdBQVr9DQLnV_11payjoin_cli2db5errorNtB5_5ErrorINtNtCs2hl1TO11rA7_4core7convert4FromNtNtCscepVPoaiheM_10serde_json5error5ErrorE4from
FNDA:0,_RNvXs3_NtNtCsdBQVr9DQLnV_11payjoin_cli2db5errorNtNtNtCsgunIiAgq1He_7payjoin4core5error19ImplementationErrorINtNtCs2hl1TO11rA7_4core7convert4FromNtB5_5ErrorE4from
FNDA:0,_RNvXs_NtNtCsdBQVr9DQLnV_11payjoin_cli2db5errorNtB4_5ErrorNtNtCs2hl1TO11rA7_4core5error5Error6source
FNDA:0,_RNvXs0_NtNtCsdBQVr9DQLnV_11payjoin_cli2db5errorNtB5_5ErrorINtNtCs2hl1TO11rA7_4core7convert4FromNtNtCs8ZhW6xHhgO3_8rusqlite5error5ErrorE4from
FNDA:0,_RNvXs1_NtNtCsdBQVr9DQLnV_11payjoin_cli2db5errorNtB5_5ErrorINtNtCs2hl1TO11rA7_4core7convert4FromNtCsknjk7nDK6Ak_4r2d25ErrorE4from
FNDA:0,_RNvXs2_NtNtCscUu8AqYtVTR_11payjoin_cli2db5errorNtNtNtCs9T6n9XKryM2_7payjoin4core5error19ImplementationErrorINtNtCs2hl1TO11rA7_4core7convert4FromNtB5_5ErrorE4from
FNDA:0,_RNvXNtNtCscUu8AqYtVTR_11payjoin_cli2db5errorNtB2_5ErrorNtNtCs2hl1TO11rA7_4core3fmt7Display3fmt
FNDA:0,_RNvXs0_NtNtCscUu8AqYtVTR_11payjoin_cli2db5errorNtB5_5ErrorINtNtCs2hl1TO11rA7_4core7convert4FromNtNtCs8ZhW6xHhgO3_8rusqlite5error5ErrorE4from
FNDA:0,_RNvXs1_NtNtCscUu8AqYtVTR_11payjoin_cli2db5errorNtB5_5ErrorINtNtCs2hl1TO11rA7_4core7convert4FromNtCsknjk7nDK6Ak_4r2d25ErrorE4from
FNDA:0,_RNvXs_NtNtCscUu8AqYtVTR_11payjoin_cli2db5errorNtB4_5ErrorNtNtCs2hl1TO11rA7_4core5error5Error6source
FNDA:0,_RNvXs2_NtNtCs6sB0kYsNxnG_11payjoin_cli2db5errorNtB5_5ErrorINtNtCs2hl1TO11rA7_4core7convert4FromNtNtCscepVPoaiheM_10serde_json5error5ErrorE4from
FNDA:0,_RNvXNtNtCs6sB0kYsNxnG_11payjoin_cli2db5errorNtB2_5ErrorNtNtCs2hl1TO11rA7_4core3fmt7Display3fmt
FNDA:0,_RNvXs0_NtNtCs6sB0kYsNxnG_11payjoin_cli2db5errorNtB5_5ErrorINtNtCs2hl1TO11rA7_4core7convert4FromNtNtCs8ZhW6xHhgO3_8rusqlite5error5ErrorE4from
FNDA:0,_RNvXs1_NtNtCs6sB0kYsNxnG_11payjoin_cli2db5errorNtB5_5ErrorINtNtCs2hl1TO11rA7_4core7convert4FromNtCsknjk7nDK6Ak_4r2d25ErrorE4from
FNDA:0,_RNvXs_NtNtCs6sB0kYsNxnG_11payjoin_cli2db5errorNtB4_5ErrorNtNtCs2hl1TO11rA7_4core5error5Error6source
FNDA:0,_RNvXs3_NtNtCs6sB0kYsNxnG_11payjoin_cli2db5errorNtNtNtCsgunIiAgq1He_7payjoin4core5error19ImplementationErrorINtNtCs2hl1TO11rA7_4core7convert4FromNtB5_5ErrorE4from
FNF:10
FNH:0
DA:20,0
DA:21,0
DA:22,0
DA:23,0
DA:29,0
DA:30,0
DA:31,0
DA:32,0
DA:33,0
DA:34,0
DA:35,0
DA:36,0
DA:39,0
DA:42,0
DA:43,0
DA:46,0
DA:47,0
DA:50,0
DA:51,0
DA:52,0
DA:53,0
DA:54,0
DA:56,0
DA:58,0
DA:60,0
DA:62,0
DA:66,0
DA:70,0
DA:75,0
DA:76,0
DA:77,0
DA:80,0
DA:82,0
DA:86,0
BRF:0
BRH:0
LF:38
LH:0
end_of_record
SF:/Users/bene/bitcoin/rust-payjoin/payjoin-cli/src/db/mod.rs
FN:22,_RINvMNtCsdNOva7tMRqO_11payjoin_cli2dbNtB3_8Database6createpEB5_
FN:27,_RNCINvMNtCsdNOva7tMRqO_11payjoin_cli2dbNtB5_8Database6createpE0B7_
FN:37,_RNvMNtCsdNOva7tMRqO_11payjoin_cli2dbNtB2_8Database11init_schema
FN:92,_RNvMNtCsdNOva7tMRqO_11payjoin_cli2dbNtB2_8Database14get_connection
FN:96,_RNvMNtCsdNOva7tMRqO_11payjoin_cli2dbNtB2_8Database24insert_input_seen_before
FN:12,_RNvNtCsdNOva7tMRqO_11payjoin_cli2db3now
FN:21,_RINvMNtCsgibgrjNWKaG_11payjoin_cli2dbNtB3_8Database6createpEB5_
FN:32,_RNvMNtCsgibgrjNWKaG_11payjoin_cli2dbNtB2_8Database11init_schema
FN:86,_RNvMNtCsgibgrjNWKaG_11payjoin_cli2dbNtB2_8Database14get_connection
FN:90,_RNvMNtCsgibgrjNWKaG_11payjoin_cli2dbNtB2_8Database24insert_input_seen_before
FN:12,_RNvNtCsgibgrjNWKaG_11payjoin_cli2db3now
FN:21,_RINvMNtCsb4baREu157E_11payjoin_cli2dbNtB3_8Database6createRNtNtCscqTumPH0Ix7_3std4path7PathBufEB5_
FN:32,_RNvMNtCsb4baREu157E_11payjoin_cli2dbNtB2_8Database11init_schema
FN:86,_RNvMNtCsb4baREu157E_11payjoin_cli2dbNtB2_8Database14get_connection
FN:90,_RNvMNtCsb4baREu157E_11payjoin_cli2dbNtB2_8Database24insert_input_seen_before
FN:12,_RNvNtCsb4baREu157E_11payjoin_cli2db3now
FN:22,_RINvMNtCsdBQVr9DQLnV_11payjoin_cli2dbNtB3_8Database6createpEB5_
FN:27,_RNCINvMNtCsdBQVr9DQLnV_11payjoin_cli2dbNtB5_8Database6createpE0B7_
FN:96,_RNvMNtCsdBQVr9DQLnV_11payjoin_cli2dbNtB2_8Database24insert_input_seen_before
FN:37,_RNvMNtCsdBQVr9DQLnV_11payjoin_cli2dbNtB2_8Database11init_schema
FN:92,_RNvMNtCsdBQVr9DQLnV_11payjoin_cli2dbNtB2_8Database14get_connection
FN:12,_RNvNtCsdBQVr9DQLnV_11payjoin_cli2db3now
FN:22,_RINvMNtCscUu8AqYtVTR_11payjoin_cli2dbNtB3_8Database6createRNtNtCscqTumPH0Ix7_3std4path7PathBufEB5_
FN:27,_RNCINvMNtCscUu8AqYtVTR_11payjoin_cli2dbNtB5_8Database6createRNtNtCscqTumPH0Ix7_3std4path7PathBufE0B7_
FN:37,_RNvMNtCscUu8AqYtVTR_11payjoin_cli2dbNtB2_8Database11init_schema
FN:92,_RNvMNtCscUu8AqYtVTR_11payjoin_cli2dbNtB2_8Database14get_connection
FN:96,_RNvMNtCscUu8AqYtVTR_11payjoin_cli2dbNtB2_8Database24insert_input_seen_before
FN:12,_RNvNtCscUu8AqYtVTR_11payjoin_cli2db3now
FN:22,_RINvMNtCs6sB0kYsNxnG_11payjoin_cli2dbNtB3_8Database6createRNtNtCscqTumPH0Ix7_3std4path7PathBufEB5_
FN:27,_RNCINvMNtCs6sB0kYsNxnG_11payjoin_cli2dbNtB5_8Database6createRNtNtCscqTumPH0Ix7_3std4path7PathBufE0B7_
FN:37,_RNvMNtCs6sB0kYsNxnG_11payjoin_cli2dbNtB2_8Database11init_schema
FN:92,_RNvMNtCs6sB0kYsNxnG_11payjoin_cli2dbNtB2_8Database14get_connection
FN:96,_RNvMNtCs6sB0kYsNxnG_11payjoin_cli2dbNtB2_8Database24insert_input_seen_before
FN:12,_RNvNtCs6sB0kYsNxnG_11payjoin_cli2db3now
FNDA:0,_RINvMNtCsdNOva7tMRqO_11payjoin_cli2dbNtB3_8Database6createpEB5_
FNDA:0,_RNCINvMNtCsdNOva7tMRqO_11payjoin_cli2dbNtB5_8Database6createpE0B7_
FNDA:0,_RNvMNtCsdNOva7tMRqO_11payjoin_cli2dbNtB2_8Database11init_schema
FNDA:0,_RNvMNtCsdNOva7tMRqO_11payjoin_cli2dbNtB2_8Database14get_connection
FNDA:0,_RNvMNtCsdNOva7tMRqO_11payjoin_cli2dbNtB2_8Database24insert_input_seen_before
FNDA:0,_RNvNtCsdNOva7tMRqO_11payjoin_cli2db3now
FNDA:0,_RINvMNtCsgibgrjNWKaG_11payjoin_cli2dbNtB3_8Database6createpEB5_
FNDA:0,_RNvMNtCsgibgrjNWKaG_11payjoin_cli2dbNtB2_8Database11init_schema
FNDA:0,_RNvMNtCsgibgrjNWKaG_11payjoin_cli2dbNtB2_8Database14get_connection
FNDA:0,_RNvMNtCsgibgrjNWKaG_11payjoin_cli2dbNtB2_8Database24insert_input_seen_before
FNDA:0,_RNvNtCsgibgrjNWKaG_11payjoin_cli2db3now
FNDA:0,_RINvMNtCsb4baREu157E_11payjoin_cli2dbNtB3_8Database6createRNtNtCscqTumPH0Ix7_3std4path7PathBufEB5_
FNDA:0,_RNvMNtCsb4baREu157E_11payjoin_cli2dbNtB2_8Database11init_schema
FNDA:0,_RNvMNtCsb4baREu157E_11payjoin_cli2dbNtB2_8Database14get_connection
FNDA:0,_RNvMNtCsb4baREu157E_11payjoin_cli2dbNtB2_8Database24insert_input_seen_before
FNDA:0,_RNvNtCsb4baREu157E_11payjoin_cli2db3now
FNDA:0,_RINvMNtCsdBQVr9DQLnV_11payjoin_cli2dbNtB3_8Database6createpEB5_
FNDA:0,_RNCINvMNtCsdBQVr9DQLnV_11payjoin_cli2dbNtB5_8Database6createpE0B7_
FNDA:0,_RNvMNtCsdBQVr9DQLnV_11payjoin_cli2dbNtB2_8Database24insert_input_seen_before
FNDA:3,_RNvMNtCsdBQVr9DQLnV_11payjoin_cli2dbNtB2_8Database11init_schema
FNDA:7,_RNvMNtCsdBQVr9DQLnV_11payjoin_cli2dbNtB2_8Database14get_connection
FNDA:1,_RNvNtCsdBQVr9DQLnV_11payjoin_cli2db3now
FNDA:2,_RINvMNtCscUu8AqYtVTR_11payjoin_cli2dbNtB3_8Database6createRNtNtCscqTumPH0Ix7_3std4path7PathBufEB5_
FNDA:20,_RNCINvMNtCscUu8AqYtVTR_11payjoin_cli2dbNtB5_8Database6createRNtNtCscqTumPH0Ix7_3std4path7PathBufE0B7_
FNDA:2,_RNvMNtCscUu8AqYtVTR_11payjoin_cli2dbNtB2_8Database11init_schema
FNDA:1,_RNvMNtCscUu8AqYtVTR_11payjoin_cli2dbNtB2_8Database14get_connection
FNDA:1,_RNvMNtCscUu8AqYtVTR_11payjoin_cli2dbNtB2_8Database24insert_input_seen_before
FNDA:1,_RNvNtCscUu8AqYtVTR_11payjoin_cli2db3now
FNDA:11,_RINvMNtCs6sB0kYsNxnG_11payjoin_cli2dbNtB3_8Database6createRNtNtCscqTumPH0Ix7_3std4path7PathBufEB5_
FNDA:110,_RNCINvMNtCs6sB0kYsNxnG_11payjoin_cli2dbNtB5_8Database6createRNtNtCscqTumPH0Ix7_3std4path7PathBufE0B7_
FNDA:11,_RNvMNtCs6sB0kYsNxnG_11payjoin_cli2dbNtB2_8Database11init_schema
FNDA:36,_RNvMNtCs6sB0kYsNxnG_11payjoin_cli2dbNtB2_8Database14get_connection
FNDA:3,_RNvMNtCs6sB0kYsNxnG_11payjoin_cli2dbNtB2_8Database24insert_input_seen_before
FNDA:20,_RNvNtCs6sB0kYsNxnG_11payjoin_cli2db3now
FNF:10
FNH:6
DA:12,22
DA:13,22
DA:14,22
DA:21,0
DA:22,13
DA:23,0
DA:26,13
DA:27,130
DA:28,13
DA:29,0
DA:30,0
DA:31,13
DA:32,13
DA:34,0
DA:35,13
DA:36,0
DA:37,16
DA:38,0
DA:39,16
DA:40,0
DA:41,16
DA:42,0
DA:43,16
DA:44,16
DA:45,16
DA:46,16
DA:47,0
DA:48,16
DA:49,0
DA:50,0
DA:51,16
DA:52,16
DA:53,16
DA:54,16
DA:55,0
DA:56,16
DA:57,0
DA:58,0
DA:59,16
DA:60,16
DA:61,16
DA:62,16
DA:63,16
DA:64,16
DA:65,16
DA:66,0
DA:67,16
DA:68,0
DA:69,0
DA:70,16
DA:71,16
DA:72,16
DA:73,16
DA:74,16
DA:75,16
DA:76,16
DA:77,0
DA:78,16
DA:79,0
DA:80,0
DA:81,16
DA:82,16
DA:83,16
DA:84,16
DA:85,16
DA:86,16
DA:87,0
DA:88,0
DA:89,16
DA:90,16
DA:91,0
DA:92,44
DA:93,44
DA:94,44
DA:95,0
DA:96,4
DA:97,4
DA:98,4
DA:99,0
DA:100,4
DA:101,4
DA:102,4
DA:103,4
DA:105,4
DA:106,4
BRF:0
BRH:0
LF:136
LH:66
end_of_record
SF:/Users/bene/bitcoin/rust-payjoin/payjoin-cli/src/db/v2.rs
FN:135,_RNCNvMs2_NtNtCsdBQVr9DQLnV_11payjoin_cli2db2v2NtB7_17ReceiverPersister3new0Bb_
FN:208,_RNCNvMs4_NtNtCsdBQVr9DQLnV_11payjoin_cli2db2v2NtB9_8Database20get_recv_session_ids0Bb_
FN:227,_RNCNvMs4_NtNtCsdBQVr9DQLnV_11payjoin_cli2db2v2NtB9_8Database20get_send_session_ids0Bb_
FN:248,_RNCNvMs4_NtNtCsdBQVr9DQLnV_11payjoin_cli2db2v2NtB9_8Database28get_send_session_receiver_pk0Bb_
FN:276,_RNCNvMs4_NtNtCsdBQVr9DQLnV_11payjoin_cli2db2v2NtB9_8Database29get_inactive_recv_session_ids0Bb_
FN:257,_RNCNvMs4_NtNtCsdBQVr9DQLnV_11payjoin_cli2db2v2NtB9_8Database29get_inactive_send_session_ids0Bb_
FN:93,_RNCNvXs1_NtNtCsdBQVr9DQLnV_11payjoin_cli2db2v2NtB7_15SenderPersisterNtNtNtCsgunIiAgq1He_7payjoin4core7persist16SessionPersister4load0Bb_
FN:99,_RNCNvXs1_NtNtCsdBQVr9DQLnV_11payjoin_cli2db2v2NtB7_15SenderPersisterNtNtNtCsgunIiAgq1He_7payjoin4core7persist16SessionPersister4loads_0Bb_
FN:174,_RNCNvXs3_NtNtCsdBQVr9DQLnV_11payjoin_cli2db2v2NtB7_17ReceiverPersisterNtNtNtCsgunIiAgq1He_7payjoin4core7persist16SessionPersister4load0Bb_
FN:180,_RNCNvXs3_NtNtCsdBQVr9DQLnV_11payjoin_cli2db2v2NtB7_17ReceiverPersisterNtNtNtCsgunIiAgq1He_7payjoin4core7persist16SessionPersister4loads_0Bb_
FN:63,_RNvMs0_NtNtCsdBQVr9DQLnV_11payjoin_cli2db2v2NtB5_15SenderPersister7from_id
FN:128,_RNvMs2_NtNtCsdBQVr9DQLnV_11payjoin_cli2db2v2NtB5_17ReceiverPersister3new
FN:141,_RNvMs2_NtNtCsdBQVr9DQLnV_11payjoin_cli2db2v2NtB5_17ReceiverPersister7from_id
FN:203,_RNvMs4_NtNtCsdBQVr9DQLnV_11payjoin_cli2db2v2NtB7_8Database20get_recv_session_ids
FN:222,_RNvMs4_NtNtCsdBQVr9DQLnV_11payjoin_cli2db2v2NtB7_8Database20get_send_session_ids
FN:241,_RNvMs4_NtNtCsdBQVr9DQLnV_11payjoin_cli2db2v2NtB7_8Database28get_send_session_receiver_pk
FN:271,_RNvMs4_NtNtCsdBQVr9DQLnV_11payjoin_cli2db2v2NtB7_8Database29get_inactive_recv_session_ids
FN:252,_RNvMs4_NtNtCsdBQVr9DQLnV_11payjoin_cli2db2v2NtB7_8Database29get_inactive_send_session_ids
FN:69,_RNvXs1_NtNtCsdBQVr9DQLnV_11payjoin_cli2db2v2NtB5_15SenderPersisterNtNtNtCsgunIiAgq1He_7payjoin4core7persist16SessionPersister10save_event
FN:84,_RNvXs1_NtNtCsdBQVr9DQLnV_11payjoin_cli2db2v2NtB5_15SenderPersisterNtNtNtCsgunIiAgq1He_7payjoin4core7persist16SessionPersister4load
FN:148,_RNvXs3_NtNtCsdBQVr9DQLnV_11payjoin_cli2db2v2NtB5_17ReceiverPersisterNtNtNtCsgunIiAgq1He_7payjoin4core7persist16SessionPersister10save_event
FN:163,_RNvXs3_NtNtCsdBQVr9DQLnV_11payjoin_cli2db2v2NtB5_17ReceiverPersisterNtNtNtCsgunIiAgq1He_7payjoin4core7persist16SessionPersister4load
FN:190,_RNvXs3_NtNtCsdBQVr9DQLnV_11payjoin_cli2db2v2NtB5_17ReceiverPersisterNtNtNtCsgunIiAgq1He_7payjoin4core7persist16SessionPersister5close
FN:20,_RNvXs_NtNtCsdBQVr9DQLnV_11payjoin_cli2db2v2NtB4_9SessionIdNtNtCs2hl1TO11rA7_4core3fmt7Display3fmt
FN:299,_RNvNtNtNtCsdBQVr9DQLnV_11payjoin_cli2db2v25tests14create_test_db
FN:309,_RNvNtNtNtCsdBQVr9DQLnV_11payjoin_cli2db2v25tests20make_receiver_pubkey
FN:330,_RNvNtNtNtCsdBQVr9DQLnV_11payjoin_cli2db2v25testss_31test_duplicate_rk_returns_error
FN:313,_RNvNtNtNtCsdBQVr9DQLnV_11payjoin_cli2db2v25testss_32test_duplicate_uri_returns_error
FN:348,_RNvNtNtNtCsdBQVr9DQLnV_11payjoin_cli2db2v25testss_35test_completed_session_blocks_reuse
FN:43,_RNCNvMs0_NtNtCsdBQVr9DQLnV_11payjoin_cli2db2v2NtB7_15SenderPersister3new0Bb_
FN:57,_RNCNvMs0_NtNtCsdBQVr9DQLnV_11payjoin_cli2db2v2NtB7_15SenderPersister3news_0Bb_
FN:30,_RNvMs0_NtNtCsdBQVr9DQLnV_11payjoin_cli2db2v2NtB5_15SenderPersister3new
FN:16,_RNvXNtNtCsdBQVr9DQLnV_11payjoin_cli2db2v2NtB2_9SessionIdNtNtNtCs2hl1TO11rA7_4core3ops5deref5Deref5deref
FN:109,_RNvXs1_NtNtCsdBQVr9DQLnV_11payjoin_cli2db2v2NtB5_15SenderPersisterNtNtNtCsgunIiAgq1He_7payjoin4core7persist16SessionPersister5close
FN:302,_RNCNvNtNtNtCsdBQVr9DQLnV_11payjoin_cli2db2v25tests14create_test_db0B9_
FN:43,_RNCNvMs0_NtNtCs6sB0kYsNxnG_11payjoin_cli2db2v2NtB7_15SenderPersister3new0Bb_
FN:57,_RNCNvMs0_NtNtCs6sB0kYsNxnG_11payjoin_cli2db2v2NtB7_15SenderPersister3news_0Bb_
FN:135,_RNCNvMs2_NtNtCs6sB0kYsNxnG_11payjoin_cli2db2v2NtB7_17ReceiverPersister3new0Bb_
FN:208,_RNCNvMs4_NtNtCs6sB0kYsNxnG_11payjoin_cli2db2v2NtB9_8Database20get_recv_session_ids0Bb_
FN:227,_RNCNvMs4_NtNtCs6sB0kYsNxnG_11payjoin_cli2db2v2NtB9_8Database20get_send_session_ids0Bb_
FN:248,_RNCNvMs4_NtNtCs6sB0kYsNxnG_11payjoin_cli2db2v2NtB9_8Database28get_send_session_receiver_pk0Bb_
FN:276,_RNCNvMs4_NtNtCs6sB0kYsNxnG_11payjoin_cli2db2v2NtB9_8Database29get_inactive_recv_session_ids0Bb_
FN:257,_RNCNvMs4_NtNtCs6sB0kYsNxnG_11payjoin_cli2db2v2NtB9_8Database29get_inactive_send_session_ids0Bb_
FN:93,_RNCNvXs1_NtNtCs6sB0kYsNxnG_11payjoin_cli2db2v2NtB7_15SenderPersisterNtNtNtCsgunIiAgq1He_7payjoin4core7persist16SessionPersister4load0Bb_
FN:99,_RNCNvXs1_NtNtCs6sB0kYsNxnG_11payjoin_cli2db2v2NtB7_15SenderPersisterNtNtNtCsgunIiAgq1He_7payjoin4core7persist16SessionPersister4loads_0Bb_
FN:174,_RNCNvXs3_NtNtCs6sB0kYsNxnG_11payjoin_cli2db2v2NtB7_17ReceiverPersisterNtNtNtCsgunIiAgq1He_7payjoin4core7persist16SessionPersister4load0Bb_
FN:180,_RNCNvXs3_NtNtCs6sB0kYsNxnG_11payjoin_cli2db2v2NtB7_17ReceiverPersisterNtNtNtCsgunIiAgq1He_7payjoin4core7persist16SessionPersister4loads_0Bb_
FN:30,_RNvMs0_NtNtCs6sB0kYsNxnG_11payjoin_cli2db2v2NtB5_15SenderPersister3new
FN:63,_RNvMs0_NtNtCs6sB0kYsNxnG_11payjoin_cli2db2v2NtB5_15SenderPersister7from_id
FN:128,_RNvMs2_NtNtCs6sB0kYsNxnG_11payjoin_cli2db2v2NtB5_17ReceiverPersister3new
FN:141,_RNvMs2_NtNtCs6sB0kYsNxnG_11payjoin_cli2db2v2NtB5_17ReceiverPersister7from_id
FN:16,_RNvXNtNtCs6sB0kYsNxnG_11payjoin_cli2db2v2NtB2_9SessionIdNtNtNtCs2hl1TO11rA7_4core3ops5deref5Deref5deref
FN:69,_RNvXs1_NtNtCs6sB0kYsNxnG_11payjoin_cli2db2v2NtB5_15SenderPersisterNtNtNtCsgunIiAgq1He_7payjoin4core7persist16SessionPersister10save_event
FN:84,_RNvXs1_NtNtCs6sB0kYsNxnG_11payjoin_cli2db2v2NtB5_15SenderPersisterNtNtNtCsgunIiAgq1He_7payjoin4core7persist16SessionPersister4load
FN:109,_RNvXs1_NtNtCs6sB0kYsNxnG_11payjoin_cli2db2v2NtB5_15SenderPersisterNtNtNtCsgunIiAgq1He_7payjoin4core7persist16SessionPersister5close
FN:148,_RNvXs3_NtNtCs6sB0kYsNxnG_11payjoin_cli2db2v2NtB5_17ReceiverPersisterNtNtNtCsgunIiAgq1He_7payjoin4core7persist16SessionPersister10save_event
FN:163,_RNvXs3_NtNtCs6sB0kYsNxnG_11payjoin_cli2db2v2NtB5_17ReceiverPersisterNtNtNtCsgunIiAgq1He_7payjoin4core7persist16SessionPersister4load
FN:190,_RNvXs3_NtNtCs6sB0kYsNxnG_11payjoin_cli2db2v2NtB5_17ReceiverPersisterNtNtNtCsgunIiAgq1He_7payjoin4core7persist16SessionPersister5close
FN:20,_RNvXs_NtNtCs6sB0kYsNxnG_11payjoin_cli2db2v2NtB4_9SessionIdNtNtCs2hl1TO11rA7_4core3fmt7Display3fmt
FN:203,_RNvMs4_NtNtCs6sB0kYsNxnG_11payjoin_cli2db2v2NtB7_8Database20get_recv_session_ids
FN:222,_RNvMs4_NtNtCs6sB0kYsNxnG_11payjoin_cli2db2v2NtB7_8Database20get_send_session_ids
FN:241,_RNvMs4_NtNtCs6sB0kYsNxnG_11payjoin_cli2db2v2NtB7_8Database28get_send_session_receiver_pk
FN:271,_RNvMs4_NtNtCs6sB0kYsNxnG_11payjoin_cli2db2v2NtB7_8Database29get_inactive_recv_session_ids
FN:252,_RNvMs4_NtNtCs6sB0kYsNxnG_11payjoin_cli2db2v2NtB7_8Database29get_inactive_send_session_ids
FNDA:0,_RNCNvMs2_NtNtCsdBQVr9DQLnV_11payjoin_cli2db2v2NtB7_17ReceiverPersister3new0Bb_
FNDA:0,_RNCNvMs4_NtNtCsdBQVr9DQLnV_11payjoin_cli2db2v2NtB9_8Database20get_recv_session_ids0Bb_
FNDA:0,_RNCNvMs4_NtNtCsdBQVr9DQLnV_11payjoin_cli2db2v2NtB9_8Database20get_send_session_ids0Bb_
FNDA:0,_RNCNvMs4_NtNtCsdBQVr9DQLnV_11payjoin_cli2db2v2NtB9_8Database28get_send_session_receiver_pk0Bb_
FNDA:0,_RNCNvMs4_NtNtCsdBQVr9DQLnV_11payjoin_cli2db2v2NtB9_8Database29get_inactive_recv_session_ids0Bb_
FNDA:0,_RNCNvMs4_NtNtCsdBQVr9DQLnV_11payjoin_cli2db2v2NtB9_8Database29get_inactive_send_session_ids0Bb_
FNDA:0,_RNCNvXs1_NtNtCsdBQVr9DQLnV_11payjoin_cli2db2v2NtB7_15SenderPersisterNtNtNtCsgunIiAgq1He_7payjoin4core7persist16SessionPersister4load0Bb_
FNDA:0,_RNCNvXs1_NtNtCsdBQVr9DQLnV_11payjoin_cli2db2v2NtB7_15SenderPersisterNtNtNtCsgunIiAgq1He_7payjoin4core7persist16SessionPersister4loads_0Bb_
FNDA:0,_RNCNvXs3_NtNtCsdBQVr9DQLnV_11payjoin_cli2db2v2NtB7_17ReceiverPersisterNtNtNtCsgunIiAgq1He_7payjoin4core7persist16SessionPersister4load0Bb_
FNDA:0,_RNCNvXs3_NtNtCsdBQVr9DQLnV_11payjoin_cli2db2v2NtB7_17ReceiverPersisterNtNtNtCsgunIiAgq1He_7payjoin4core7persist16SessionPersister4loads_0Bb_
FNDA:0,_RNvMs0_NtNtCsdBQVr9DQLnV_11payjoin_cli2db2v2NtB5_15SenderPersister7from_id
FNDA:0,_RNvMs2_NtNtCsdBQVr9DQLnV_11payjoin_cli2db2v2NtB5_17ReceiverPersister3new
FNDA:0,_RNvMs2_NtNtCsdBQVr9DQLnV_11payjoin_cli2db2v2NtB5_17ReceiverPersister7from_id
FNDA:0,_RNvMs4_NtNtCsdBQVr9DQLnV_11payjoin_cli2db2v2NtB7_8Database20get_recv_session_ids
FNDA:0,_RNvMs4_NtNtCsdBQVr9DQLnV_11payjoin_cli2db2v2NtB7_8Database20get_send_session_ids
FNDA:0,_RNvMs4_NtNtCsdBQVr9DQLnV_11payjoin_cli2db2v2NtB7_8Database28get_send_session_receiver_pk
FNDA:0,_RNvMs4_NtNtCsdBQVr9DQLnV_11payjoin_cli2db2v2NtB7_8Database29get_inactive_recv_session_ids
FNDA:0,_RNvMs4_NtNtCsdBQVr9DQLnV_11payjoin_cli2db2v2NtB7_8Database29get_inactive_send_session_ids
FNDA:0,_RNvXs1_NtNtCsdBQVr9DQLnV_11payjoin_cli2db2v2NtB5_15SenderPersisterNtNtNtCsgunIiAgq1He_7payjoin4core7persist16SessionPersister10save_event
FNDA:0,_RNvXs1_NtNtCsdBQVr9DQLnV_11payjoin_cli2db2v2NtB5_15SenderPersisterNtNtNtCsgunIiAgq1He_7payjoin4core7persist16SessionPersister4load
FNDA:0,_RNvXs3_NtNtCsdBQVr9DQLnV_11payjoin_cli2db2v2NtB5_17ReceiverPersisterNtNtNtCsgunIiAgq1He_7payjoin4core7persist16SessionPersister10save_event
FNDA:0,_RNvXs3_NtNtCsdBQVr9DQLnV_11payjoin_cli2db2v2NtB5_17ReceiverPersisterNtNtNtCsgunIiAgq1He_7payjoin4core7persist16SessionPersister4load
FNDA:0,_RNvXs3_NtNtCsdBQVr9DQLnV_11payjoin_cli2db2v2NtB5_17ReceiverPersisterNtNtNtCsgunIiAgq1He_7payjoin4core7persist16SessionPersister5close
FNDA:0,_RNvXs_NtNtCsdBQVr9DQLnV_11payjoin_cli2db2v2NtB4_9SessionIdNtNtCs2hl1TO11rA7_4core3fmt7Display3fmt
FNDA:3,_RNvNtNtNtCsdBQVr9DQLnV_11payjoin_cli2db2v25tests14create_test_db
FNDA:5,_RNvNtNtNtCsdBQVr9DQLnV_11payjoin_cli2db2v25tests20make_receiver_pubkey
FNDA:1,_RNvNtNtNtCsdBQVr9DQLnV_11payjoin_cli2db2v25testss_31test_duplicate_rk_returns_error
FNDA:1,_RNvNtNtNtCsdBQVr9DQLnV_11payjoin_cli2db2v25testss_32test_duplicate_uri_returns_error
FNDA:1,_RNvNtNtNtCsdBQVr9DQLnV_11payjoin_cli2db2v25testss_35test_completed_session_blocks_reuse
FNDA:6,_RNCNvMs0_NtNtCsdBQVr9DQLnV_11payjoin_cli2db2v2NtB7_15SenderPersister3new0Bb_
FNDA:3,_RNCNvMs0_NtNtCsdBQVr9DQLnV_11payjoin_cli2db2v2NtB7_15SenderPersister3news_0Bb_
FNDA:6,_RNvMs0_NtNtCsdBQVr9DQLnV_11payjoin_cli2db2v2NtB5_15SenderPersister3new
FNDA:1,_RNvXNtNtCsdBQVr9DQLnV_11payjoin_cli2db2v2NtB2_9SessionIdNtNtNtCs2hl1TO11rA7_4core3ops5deref5Deref5deref
FNDA:1,_RNvXs1_NtNtCsdBQVr9DQLnV_11payjoin_cli2db2v2NtB5_15SenderPersisterNtNtNtCsgunIiAgq1He_7payjoin4core7persist16SessionPersister5close
FNDA:30,_RNCNvNtNtNtCsdBQVr9DQLnV_11payjoin_cli2db2v25tests14create_test_db0B9_
FNDA:1,_RNCNvMs0_NtNtCs6sB0kYsNxnG_11payjoin_cli2db2v2NtB7_15SenderPersister3new0Bb_
FNDA:1,_RNCNvMs0_NtNtCs6sB0kYsNxnG_11payjoin_cli2db2v2NtB7_15SenderPersister3news_0Bb_
FNDA:1,_RNCNvMs2_NtNtCs6sB0kYsNxnG_11payjoin_cli2db2v2NtB7_17ReceiverPersister3new0Bb_
FNDA:2,_RNCNvMs4_NtNtCs6sB0kYsNxnG_11payjoin_cli2db2v2NtB9_8Database20get_recv_session_ids0Bb_
FNDA:1,_RNCNvMs4_NtNtCs6sB0kYsNxnG_11payjoin_cli2db2v2NtB9_8Database20get_send_session_ids0Bb_
FNDA:1,_RNCNvMs4_NtNtCs6sB0kYsNxnG_11payjoin_cli2db2v2NtB9_8Database28get_send_session_receiver_pk0Bb_
FNDA:0,_RNCNvMs4_NtNtCs6sB0kYsNxnG_11payjoin_cli2db2v2NtB9_8Database29get_inactive_recv_session_ids0Bb_
FNDA:0,_RNCNvMs4_NtNtCs6sB0kYsNxnG_11payjoin_cli2db2v2NtB9_8Database29get_inactive_send_session_ids0Bb_
FNDA:2,_RNCNvXs1_NtNtCs6sB0kYsNxnG_11payjoin_cli2db2v2NtB7_15SenderPersisterNtNtNtCsgunIiAgq1He_7payjoin4core7persist16SessionPersister4load0Bb_
FNDA:2,_RNCNvXs1_NtNtCs6sB0kYsNxnG_11payjoin_cli2db2v2NtB7_15SenderPersisterNtNtNtCsgunIiAgq1He_7payjoin4core7persist16SessionPersister4loads_0Bb_
FNDA:12,_RNCNvXs3_NtNtCs6sB0kYsNxnG_11payjoin_cli2db2v2NtB7_17ReceiverPersisterNtNtNtCsgunIiAgq1He_7payjoin4core7persist16SessionPersister4load0Bb_
FNDA:12,_RNCNvXs3_NtNtCs6sB0kYsNxnG_11payjoin_cli2db2v2NtB7_17ReceiverPersisterNtNtNtCsgunIiAgq1He_7payjoin4core7persist16SessionPersister4loads_0Bb_
FNDA:1,_RNvMs0_NtNtCs6sB0kYsNxnG_11payjoin_cli2db2v2NtB5_15SenderPersister3new
FNDA:1,_RNvMs0_NtNtCs6sB0kYsNxnG_11payjoin_cli2db2v2NtB5_15SenderPersister7from_id
FNDA:1,_RNvMs2_NtNtCs6sB0kYsNxnG_11payjoin_cli2db2v2NtB5_17ReceiverPersister3new
FNDA:2,_RNvMs2_NtNtCs6sB0kYsNxnG_11payjoin_cli2db2v2NtB5_17ReceiverPersister7from_id
FNDA:20,_RNvXNtNtCs6sB0kYsNxnG_11payjoin_cli2db2v2NtB2_9SessionIdNtNtNtCs2hl1TO11rA7_4core3ops5deref5Deref5deref
FNDA:3,_RNvXs1_NtNtCs6sB0kYsNxnG_11payjoin_cli2db2v2NtB5_15SenderPersisterNtNtNtCsgunIiAgq1He_7payjoin4core7persist16SessionPersister10save_event
FNDA:1,_RNvXs1_NtNtCs6sB0kYsNxnG_11payjoin_cli2db2v2NtB5_15SenderPersisterNtNtNtCsgunIiAgq1He_7payjoin4core7persist16SessionPersister4load
FNDA:1,_RNvXs1_NtNtCs6sB0kYsNxnG_11payjoin_cli2db2v2NtB5_15SenderPersisterNtNtNtCsgunIiAgq1He_7payjoin4core7persist16SessionPersister5close
FNDA:12,_RNvXs3_NtNtCs6sB0kYsNxnG_11payjoin_cli2db2v2NtB5_17ReceiverPersisterNtNtNtCsgunIiAgq1He_7payjoin4core7persist16SessionPersister10save_event
FNDA:2,_RNvXs3_NtNtCs6sB0kYsNxnG_11payjoin_cli2db2v2NtB5_17ReceiverPersisterNtNtNtCsgunIiAgq1He_7payjoin4core7persist16SessionPersister4load
FNDA:1,_RNvXs3_NtNtCs6sB0kYsNxnG_11payjoin_cli2db2v2NtB5_17ReceiverPersisterNtNtNtCsgunIiAgq1He_7payjoin4core7persist16SessionPersister5close
FNDA:0,_RNvXs_NtNtCs6sB0kYsNxnG_11payjoin_cli2db2v2NtB4_9SessionIdNtNtCs2hl1TO11rA7_4core3fmt7Display3fmt
FNDA:4,_RNvMs4_NtNtCs6sB0kYsNxnG_11payjoin_cli2db2v2NtB7_8Database20get_recv_session_ids
FNDA:6,_RNvMs4_NtNtCs6sB0kYsNxnG_11payjoin_cli2db2v2NtB7_8Database20get_send_session_ids
FNDA:1,_RNvMs4_NtNtCs6sB0kYsNxnG_11payjoin_cli2db2v2NtB7_8Database28get_send_session_receiver_pk
FNDA:0,_RNvMs4_NtNtCs6sB0kYsNxnG_11payjoin_cli2db2v2NtB7_8Database29get_inactive_recv_session_ids
FNDA:0,_RNvMs4_NtNtCs6sB0kYsNxnG_11payjoin_cli2db2v2NtB7_8Database29get_inactive_send_session_ids
FNF:35
FNH:30
DA:16,21
DA:20,0
DA:30,7
DA:31,7
DA:32,7
DA:33,7
DA:34,7
DA:35,7
DA:36,7
DA:38,7
DA:39,7
DA:40,7
DA:41,7
DA:42,7
DA:43,7
DA:44,0
DA:46,7
DA:47,2
DA:48,5
DA:49,5
DA:50,1
DA:51,4
DA:54,4
DA:55,4
DA:56,4
DA:57,4
DA:58,0
DA:60,4
DA:61,7
DA:63,1
DA:69,3
DA:70,3
DA:71,3
DA:72,3
DA:73,3
DA:74,3
DA:76,3
DA:77,3
DA:78,3
DA:79,3
DA:81,3
DA:82,3
DA:84,1
DA:85,1
DA:86,1
DA:88,1
DA:89,1
DA:90,1
DA:91,1
DA:93,2
DA:94,2
DA:95,2
DA:96,2
DA:98,1
DA:99,2
DA:100,2
DA:101,2
DA:102,2
DA:103,2
DA:104,1
DA:106,1
DA:107,1
DA:109,2
DA:110,2
DA:112,2
DA:113,2
DA:114,2
DA:115,2
DA:117,2
DA:118,2
DA:128,1
DA:129,1
DA:132,1
DA:133,1
DA:134,1
DA:135,1
DA:136,0
DA:138,1
DA:139,1
DA:141,2
DA:148,12
DA:149,12
DA:150,12
DA:151,12
DA:152,12
DA:153,12
DA:155,12
DA:156,12
DA:157,12
DA:158,12
DA:160,12
DA:161,12
DA:163,2
DA:164,2
DA:165,2
DA:166,2
DA:167,2
DA:168,2
DA:169,2
DA:170,2
DA:171,2
DA:172,2
DA:174,12
DA:175,12
DA:176,12
DA:177,12
DA:179,2
DA:180,12
DA:181,12
DA:182,12
DA:183,12
DA:184,12
DA:185,2
DA:187,2
DA:188,2
DA:190,1
DA:191,1
DA:193,1
DA:194,1
DA:195,1
DA:196,1
DA:198,1
DA:199,1
DA:203,4
DA:204,4
DA:205,4
DA:206,4
DA:208,4
DA:209,2
DA:210,2
DA:211,2
DA:213,4
DA:214,4
DA:215,2
DA:216,2
DA:219,4
DA:220,4
DA:222,6
DA:223,6
DA:224,6
DA:225,6
DA:227,6
DA:228,1
DA:229,1
DA:230,1
DA:232,6
DA:233,6
DA:234,1
DA:235,1
DA:238,6
DA:239,6
DA:241,1
DA:242,1
DA:243,1
DA:244,1
DA:245,1
DA:246,1
DA:247,1
DA:248,1
DA:249,1
DA:250,1
DA:252,0
DA:253,0
DA:254,0
DA:255,0
DA:256,0
DA:257,0
DA:258,0
DA:259,0
DA:260,0
DA:261,0
DA:263,0
DA:264,0
DA:265,0
DA:266,0
DA:268,0
DA:269,0
DA:271,0
DA:272,0
DA:273,0
DA:274,0
DA:275,0
DA:276,0
DA:277,0
DA:278,0
DA:279,0
DA:280,0
DA:282,0
DA:283,0
DA:284,0
DA:285,0
DA:287,0
DA:288,0
DA:299,3
DA:301,3
DA:302,30
DA:303,3
DA:304,3
DA:305,3
DA:306,3
DA:307,3
DA:309,5
DA:313,1
DA:314,1
DA:315,1
DA:316,1
DA:317,1
DA:319,1
DA:321,1
DA:322,1
DA:323,1
DA:326,1
DA:330,1
DA:331,1
DA:332,1
DA:333,1
DA:334,1
DA:336,1
DA:338,1
DA:339,1
DA:340,1
DA:343,1
DA:348,1
DA:349,1
DA:350,1
DA:351,1
DA:352,1
DA:354,1
DA:355,1
DA:359,1
DA:362,1
DA:363,1
DA:364,1
DA:365,1
DA:368,1
BRF:0
BRH:0
LF:251
LH:207
end_of_record
SF:/Users/bene/bitcoin/rust-payjoin/payjoin-cli/src/main.rs
FN:17,_RNCNvCsdNOva7tMRqO_11payjoin_cli4main0B3_
FN:17,_RNvCsdNOva7tMRqO_11payjoin_cli4main
FN:17,_RNCNvCsgibgrjNWKaG_11payjoin_cli4main0B3_
FN:17,_RNvCsgibgrjNWKaG_11payjoin_cli4main
FN:17,_RNCNvCsb4baREu157E_11payjoin_cli4main0B3_
FN:17,_RNvCsb4baREu157E_11payjoin_cli4main
FN:17,_RNCNvCsdBQVr9DQLnV_11payjoin_cli4main0B3_
FN:17,_RNvCsdBQVr9DQLnV_11payjoin_cli4main
FN:17,_RNCNvCscUu8AqYtVTR_11payjoin_cli4main0B3_
FN:17,_RNvCscUu8AqYtVTR_11payjoin_cli4main
FN:17,_RNCNvCs6sB0kYsNxnG_11payjoin_cli4main0B3_
FN:17,_RNvCs6sB0kYsNxnG_11payjoin_cli4main
FNDA:0,_RNCNvCsdNOva7tMRqO_11payjoin_cli4main0B3_
FNDA:0,_RNvCsdNOva7tMRqO_11payjoin_cli4main
FNDA:0,_RNCNvCsgibgrjNWKaG_11payjoin_cli4main0B3_
FNDA:0,_RNvCsgibgrjNWKaG_11payjoin_cli4main
FNDA:0,_RNCNvCsb4baREu157E_11payjoin_cli4main0B3_
FNDA:0,_RNvCsb4baREu157E_11payjoin_cli4main
FNDA:0,_RNCNvCsdBQVr9DQLnV_11payjoin_cli4main0B3_
FNDA:0,_RNvCsdBQVr9DQLnV_11payjoin_cli4main
FNDA:2,_RNCNvCscUu8AqYtVTR_11payjoin_cli4main0B3_
FNDA:2,_RNvCscUu8AqYtVTR_11payjoin_cli4main
FNDA:11,_RNCNvCs6sB0kYsNxnG_11payjoin_cli4main0B3_
FNDA:11,_RNvCs6sB0kYsNxnG_11payjoin_cli4main
FNF:2
FNH:2
DA:17,13
DA:18,13
DA:19,13
DA:20,13
DA:22,13
DA:23,13
DA:26,13
DA:29,5
DA:37,8
DA:40,0
DA:44,0
DA:51,8
DA:55,0
DA:63,13
DA:64,5
DA:65,5
DA:67,4
DA:68,4
DA:72,4
DA:76,0
DA:80,24
DA:81,13
BRF:0
BRH:0
LF:22
LH:20
end_of_record
SF:/Users/bene/bitcoin/rust-payjoin/payjoin-mailroom/src/access_control.rs
FN:69,_RNvMNtCsk7yOOz582FI_16payjoin_mailroom14access_controlNtB2_8IpFilter11check_geoip
FN:16,_RNvMNtCsk7yOOz582FI_16payjoin_mailroom14access_controlNtB2_8IpFilter11from_config
FN:61,_RNvMNtCsk7yOOz582FI_16payjoin_mailroom14access_controlNtB2_8IpFilter8check_ip
FN:124,_RNvNtCsk7yOOz582FI_16payjoin_mailroom14access_control14fetch_geoip_db
FN:94,_RNvNtCsk7yOOz582FI_16payjoin_mailroom14access_control25load_blocked_address_text
FN:98,_RNvNtCsk7yOOz582FI_16payjoin_mailroom14access_control26spawn_address_list_updater
FN:50,_RNCNCNCNvMNtCsk7yOOz582FI_16payjoin_mailroom14access_controlNtB8_8IpFilter11from_config000Ba_
FN:49,_RNCNCNvMNtCsk7yOOz582FI_16payjoin_mailroom14access_controlNtB6_8IpFilter11from_config00B8_
FN:106,_RNCNCNvNtCsk7yOOz582FI_16payjoin_mailroom14access_control26spawn_address_list_updater00B7_
FN:19,_RNCNvMNtCsk7yOOz582FI_16payjoin_mailroom14access_controlNtB4_8IpFilter11from_config0B6_
FN:62,_RNCNvMNtCsk7yOOz582FI_16payjoin_mailroom14access_controlNtB4_8IpFilter8check_ip0B6_
FN:124,_RNCNvNtCsk7yOOz582FI_16payjoin_mailroom14access_control14fetch_geoip_db0B5_
FN:104,_RNCNvNtCsk7yOOz582FI_16payjoin_mailroom14access_control26spawn_address_list_updater0B5_
FN:181,_RNCNvNtNtCs8YpBKXcegdX_16payjoin_mailroom14access_control5testss_30check_ip_blocks_blocked_region0B7_
FN:198,_RNCNvNtNtCs8YpBKXcegdX_16payjoin_mailroom14access_control5testss_32check_ip_fail_open_on_unknown_ip0B7_
FN:190,_RNCNvNtNtCs8YpBKXcegdX_16payjoin_mailroom14access_control5testss_34check_ip_allows_non_blocked_region0B7_
FN:151,_RNvNtNtCs8YpBKXcegdX_16payjoin_mailroom14access_control5tests15test_geo_reader
FN:230,_RNvNtNtCs8YpBKXcegdX_16payjoin_mailroom14access_control5testss_28empty_blocked_ips_allows_all
FN:221,_RNvNtNtCs8YpBKXcegdX_16payjoin_mailroom14access_control5testss_29blocked_ips_blocks_cidr_range
FN:205,_RNvNtNtCs8YpBKXcegdX_16payjoin_mailroom14access_control5testss_29blocked_ips_blocks_exact_ipv4
FN:213,_RNvNtNtCs8YpBKXcegdX_16payjoin_mailroom14access_control5testss_29blocked_ips_blocks_exact_ipv6
FN:178,_RNvNtNtCs8YpBKXcegdX_16payjoin_mailroom14access_control5testss_30check_ip_blocks_blocked_region
FN:196,_RNvNtNtCs8YpBKXcegdX_16payjoin_mailroom14access_control5testss_32check_ip_fail_open_on_unknown_ip
FN:187,_RNvNtNtCs8YpBKXcegdX_16payjoin_mailroom14access_control5testss_34check_ip_allows_non_blocked_region
FN:160,_RNvNtNtCs8YpBKXcegdX_16payjoin_mailroom14access_control5testss_34check_ip_allows_when_no_geo_reader
FN:167,_RNvNtNtCs8YpBKXcegdX_16payjoin_mailroom14access_control5testss_39check_ip_allows_when_no_blocked_regions
FN:69,_RNvMNtCs8YpBKXcegdX_16payjoin_mailroom14access_controlNtB2_8IpFilter11check_geoip
FN:16,_RNvMNtCs8YpBKXcegdX_16payjoin_mailroom14access_controlNtB2_8IpFilter11from_config
FN:61,_RNvMNtCs8YpBKXcegdX_16payjoin_mailroom14access_controlNtB2_8IpFilter8check_ip
FN:124,_RNvNtCs8YpBKXcegdX_16payjoin_mailroom14access_control14fetch_geoip_db
FN:94,_RNvNtCs8YpBKXcegdX_16payjoin_mailroom14access_control25load_blocked_address_text
FN:98,_RNvNtCs8YpBKXcegdX_16payjoin_mailroom14access_control26spawn_address_list_updater
FN:50,_RNCNCNCNvMNtCs8YpBKXcegdX_16payjoin_mailroom14access_controlNtB8_8IpFilter11from_config000Ba_
FN:49,_RNCNCNvMNtCs8YpBKXcegdX_16payjoin_mailroom14access_controlNtB6_8IpFilter11from_config00B8_
FN:106,_RNCNCNvNtCs8YpBKXcegdX_16payjoin_mailroom14access_control26spawn_address_list_updater00B7_
FN:19,_RNCNvMNtCs8YpBKXcegdX_16payjoin_mailroom14access_controlNtB4_8IpFilter11from_config0B6_
FN:62,_RNCNvMNtCs8YpBKXcegdX_16payjoin_mailroom14access_controlNtB4_8IpFilter8check_ip0B6_
FN:124,_RNCNvNtCs8YpBKXcegdX_16payjoin_mailroom14access_control14fetch_geoip_db0B5_
FN:104,_RNCNvNtCs8YpBKXcegdX_16payjoin_mailroom14access_control26spawn_address_list_updater0B5_
FNDA:0,_RNvMNtCsk7yOOz582FI_16payjoin_mailroom14access_controlNtB2_8IpFilter11check_geoip
FNDA:0,_RNvMNtCsk7yOOz582FI_16payjoin_mailroom14access_controlNtB2_8IpFilter11from_config
FNDA:0,_RNvMNtCsk7yOOz582FI_16payjoin_mailroom14access_controlNtB2_8IpFilter8check_ip
FNDA:0,_RNvNtCsk7yOOz582FI_16payjoin_mailroom14access_control14fetch_geoip_db
FNDA:0,_RNvNtCsk7yOOz582FI_16payjoin_mailroom14access_control25load_blocked_address_text
FNDA:0,_RNvNtCsk7yOOz582FI_16payjoin_mailroom14access_control26spawn_address_list_updater
FNDA:0,_RNCNCNCNvMNtCsk7yOOz582FI_16payjoin_mailroom14access_controlNtB8_8IpFilter11from_config000Ba_
FNDA:0,_RNCNCNvMNtCsk7yOOz582FI_16payjoin_mailroom14access_controlNtB6_8IpFilter11from_config00B8_
FNDA:0,_RNCNCNvNtCsk7yOOz582FI_16payjoin_mailroom14access_control26spawn_address_list_updater00B7_
FNDA:0,_RNCNvMNtCsk7yOOz582FI_16payjoin_mailroom14access_controlNtB4_8IpFilter11from_config0B6_
FNDA:0,_RNCNvMNtCsk7yOOz582FI_16payjoin_mailroom14access_controlNtB4_8IpFilter8check_ip0B6_
FNDA:0,_RNCNvNtCsk7yOOz582FI_16payjoin_mailroom14access_control14fetch_geoip_db0B5_
FNDA:0,_RNCNvNtCsk7yOOz582FI_16payjoin_mailroom14access_control26spawn_address_list_updater0B5_
FNDA:1,_RNCNvNtNtCs8YpBKXcegdX_16payjoin_mailroom14access_control5testss_30check_ip_blocks_blocked_region0B7_
FNDA:1,_RNCNvNtNtCs8YpBKXcegdX_16payjoin_mailroom14access_control5testss_32check_ip_fail_open_on_unknown_ip0B7_
FNDA:1,_RNCNvNtNtCs8YpBKXcegdX_16payjoin_mailroom14access_control5testss_34check_ip_allows_non_blocked_region0B7_
FNDA:4,_RNvNtNtCs8YpBKXcegdX_16payjoin_mailroom14access_control5tests15test_geo_reader
FNDA:1,_RNvNtNtCs8YpBKXcegdX_16payjoin_mailroom14access_control5testss_28empty_blocked_ips_allows_all
FNDA:1,_RNvNtNtCs8YpBKXcegdX_16payjoin_mailroom14access_control5testss_29blocked_ips_blocks_cidr_range
FNDA:1,_RNvNtNtCs8YpBKXcegdX_16payjoin_mailroom14access_control5testss_29blocked_ips_blocks_exact_ipv4
FNDA:1,_RNvNtNtCs8YpBKXcegdX_16payjoin_mailroom14access_control5testss_29blocked_ips_blocks_exact_ipv6
FNDA:1,_RNvNtNtCs8YpBKXcegdX_16payjoin_mailroom14access_control5testss_30check_ip_blocks_blocked_region
FNDA:1,_RNvNtNtCs8YpBKXcegdX_16payjoin_mailroom14access_control5testss_32check_ip_fail_open_on_unknown_ip
FNDA:1,_RNvNtNtCs8YpBKXcegdX_16payjoin_mailroom14access_control5testss_34check_ip_allows_non_blocked_region
FNDA:1,_RNvNtNtCs8YpBKXcegdX_16payjoin_mailroom14access_control5testss_34check_ip_allows_when_no_geo_reader
FNDA:1,_RNvNtNtCs8YpBKXcegdX_16payjoin_mailroom14access_control5testss_39check_ip_allows_when_no_blocked_regions
FNDA:10,_RNvMNtCs8YpBKXcegdX_16payjoin_mailroom14access_controlNtB2_8IpFilter11check_geoip
FNDA:0,_RNvMNtCs8YpBKXcegdX_16payjoin_mailroom14access_controlNtB2_8IpFilter11from_config
FNDA:14,_RNvMNtCs8YpBKXcegdX_16payjoin_mailroom14access_controlNtB2_8IpFilter8check_ip
FNDA:0,_RNvNtCs8YpBKXcegdX_16payjoin_mailroom14access_control14fetch_geoip_db
FNDA:0,_RNvNtCs8YpBKXcegdX_16payjoin_mailroom14access_control25load_blocked_address_text
FNDA:0,_RNvNtCs8YpBKXcegdX_16payjoin_mailroom14access_control26spawn_address_list_updater
FNDA:0,_RNCNCNCNvMNtCs8YpBKXcegdX_16payjoin_mailroom14access_controlNtB8_8IpFilter11from_config000Ba_
FNDA:0,_RNCNCNvMNtCs8YpBKXcegdX_16payjoin_mailroom14access_controlNtB6_8IpFilter11from_config00B8_
FNDA:0,_RNCNCNvNtCs8YpBKXcegdX_16payjoin_mailroom14access_control26spawn_address_list_updater00B7_
FNDA:0,_RNCNvMNtCs8YpBKXcegdX_16payjoin_mailroom14access_controlNtB4_8IpFilter11from_config0B6_
FNDA:7,_RNCNvMNtCs8YpBKXcegdX_16payjoin_mailroom14access_controlNtB4_8IpFilter8check_ip0B6_
FNDA:0,_RNCNvNtCs8YpBKXcegdX_16payjoin_mailroom14access_control14fetch_geoip_db0B5_
FNDA:0,_RNCNvNtCs8YpBKXcegdX_16payjoin_mailroom14access_control26spawn_address_list_updater0B5_
FNF:26
FNH:16
DA:16,0
DA:17,0
DA:18,0
DA:19,0
DA:20,0
DA:21,0
DA:22,0
DA:23,0
DA:24,0
DA:25,0
DA:26,0
DA:27,0
DA:28,0
DA:30,0
DA:32,0
DA:33,0
DA:37,0
DA:38,0
DA:41,0
DA:44,0
DA:46,0
DA:47,0
DA:48,0
DA:49,0
DA:50,0
DA:52,0
DA:53,0
DA:54,0
DA:55,0
DA:57,0
DA:58,0
DA:61,14
DA:62,14
DA:63,4
DA:64,10
DA:66,10
DA:67,14
DA:69,10
DA:70,10
DA:71,4
DA:72,6
DA:75,4
DA:76,1
DA:77,3
DA:79,3
DA:80,3
DA:81,3
DA:82,3
DA:83,3
DA:84,3
DA:85,2
DA:86,1
DA:89,0
DA:91,10
DA:94,0
DA:95,0
DA:96,0
DA:98,0
DA:99,0
DA:100,0
DA:101,0
DA:102,0
DA:103,0
DA:104,0
DA:106,0
DA:107,0
DA:108,0
DA:109,0
DA:110,0
DA:111,0
DA:112,0
DA:113,0
DA:115,0
DA:117,0
DA:119,0
DA:122,0
DA:124,0
DA:127,0
DA:128,0
DA:130,0
DA:131,0
DA:132,0
DA:133,0
DA:134,0
DA:135,0
DA:136,0
DA:137,0
DA:139,0
DA:140,0
DA:141,0
DA:142,0
DA:143,0
DA:144,0
DA:145,0
DA:151,4
DA:152,4
DA:156,4
DA:157,4
DA:160,1
DA:161,1
DA:162,1
DA:163,1
DA:164,1
DA:167,1
DA:168,1
DA:169,1
DA:170,1
DA:171,1
DA:172,1
DA:173,1
DA:174,1
DA:175,1
DA:178,1
DA:179,1
DA:181,1
DA:182,1
DA:183,1
DA:184,1
DA:187,1
DA:188,1
DA:190,1
DA:191,1
DA:192,1
DA:193,1
DA:196,1
DA:197,1
DA:198,1
DA:199,1
DA:201,1
DA:202,1
DA:205,1
DA:206,1
DA:207,1
DA:208,1
DA:209,1
DA:210,1
DA:213,1
DA:214,1
DA:215,1
DA:216,1
DA:217,1
DA:218,1
DA:221,1
DA:222,1
DA:223,1
DA:224,1
DA:225,1
DA:226,1
DA:227,1
DA:230,1
DA:231,1
DA:232,1
DA:233,1
DA:234,1
DA:235,1
BRF:0
BRH:0
LF:165
LH:87
end_of_record
SF:/Users/bene/bitcoin/rust-payjoin/payjoin-mailroom/src/config.rs
FN:102,_RINvNtCsewJmtgcsYNl_16payjoin_mailroom6config25deserialize_duration_secsNtNtCsbotP042I7dY_6config5value5ValueEB4_
FN:111,_RNvMs_NtCsewJmtgcsYNl_16payjoin_mailroom6configNtB4_6Config3new
FN:132,_RNvMs_NtCsewJmtgcsYNl_16payjoin_mailroom6configNtB4_6Config9from_file
FN:85,_RNvXNtCsewJmtgcsYNl_16payjoin_mailroom6configNtB2_6ConfigNtNtCs2hl1TO11rA7_4core7default7Default7default
FN:102,_RINvNtCsk7yOOz582FI_16payjoin_mailroom6config25deserialize_duration_secsNtNtCsbzXrLe7kxwF_6config5value5ValueEB4_
FN:69,_RNvMNtCsk7yOOz582FI_16payjoin_mailroom6configNtB2_10AcmeConfig18into_rustls_config
FN:111,_RNvMs0_NtCsk7yOOz582FI_16payjoin_mailroom6configNtB5_6Config3new
FN:132,_RNvMs0_NtCsk7yOOz582FI_16payjoin_mailroom6configNtB5_6Config9from_file
FN:85,_RNvXs_NtCsk7yOOz582FI_16payjoin_mailroom6configNtB4_6ConfigNtNtCs2hl1TO11rA7_4core7default7Default7default
FN:102,_RINvNtCs8YpBKXcegdX_16payjoin_mailroom6config25deserialize_duration_secspEB4_
FN:132,_RNvMs0_NtCs8YpBKXcegdX_16payjoin_mailroom6configNtB5_6Config9from_file
FN:85,_RNvXs_NtCs8YpBKXcegdX_16payjoin_mailroom6configNtB4_6ConfigNtNtCs2hl1TO11rA7_4core7default7Default7default
FN:69,_RNvMNtCs8YpBKXcegdX_16payjoin_mailroom6configNtB2_10AcmeConfig18into_rustls_config
FN:111,_RNvMs0_NtCs8YpBKXcegdX_16payjoin_mailroom6configNtB5_6Config3new
FNDA:0,_RINvNtCsewJmtgcsYNl_16payjoin_mailroom6config25deserialize_duration_secsNtNtCsbotP042I7dY_6config5value5ValueEB4_
FNDA:0,_RNvMs_NtCsewJmtgcsYNl_16payjoin_mailroom6configNtB4_6Config3new
FNDA:0,_RNvMs_NtCsewJmtgcsYNl_16payjoin_mailroom6configNtB4_6Config9from_file
FNDA:0,_RNvXNtCsewJmtgcsYNl_16payjoin_mailroom6configNtB2_6ConfigNtNtCs2hl1TO11rA7_4core7default7Default7default
FNDA:0,_RINvNtCsk7yOOz582FI_16payjoin_mailroom6config25deserialize_duration_secsNtNtCsbzXrLe7kxwF_6config5value5ValueEB4_
FNDA:0,_RNvMNtCsk7yOOz582FI_16payjoin_mailroom6configNtB2_10AcmeConfig18into_rustls_config
FNDA:23,_RNvMs0_NtCsk7yOOz582FI_16payjoin_mailroom6configNtB5_6Config3new
FNDA:0,_RNvMs0_NtCsk7yOOz582FI_16payjoin_mailroom6configNtB5_6Config9from_file
FNDA:0,_RNvXs_NtCsk7yOOz582FI_16payjoin_mailroom6configNtB4_6ConfigNtNtCs2hl1TO11rA7_4core7default7Default7default
FNDA:0,_RINvNtCs8YpBKXcegdX_16payjoin_mailroom6config25deserialize_duration_secspEB4_
FNDA:0,_RNvMs0_NtCs8YpBKXcegdX_16payjoin_mailroom6configNtB5_6Config9from_file
FNDA:0,_RNvXs_NtCs8YpBKXcegdX_16payjoin_mailroom6configNtB4_6ConfigNtNtCs2hl1TO11rA7_4core7default7Default7default
FNDA:0,_RNvMNtCs8YpBKXcegdX_16payjoin_mailroom6configNtB2_10AcmeConfig18into_rustls_config
FNDA:5,_RNvMs0_NtCs8YpBKXcegdX_16payjoin_mailroom6configNtB5_6Config3new
FNF:5
FNH:1
DA:69,0
DA:70,0
DA:71,0
DA:72,0
DA:73,0
DA:74,0
DA:75,0
DA:76,0
DA:77,0
DA:78,0
DA:79,0
DA:81,0
DA:85,0
DA:86,0
DA:87,0
DA:88,0
DA:89,0
DA:90,0
DA:91,0
DA:92,0
DA:93,0
DA:94,0
DA:95,0
DA:96,0
DA:97,0
DA:98,0
DA:99,0
DA:102,0
DA:103,0
DA:104,0
DA:106,0
DA:107,0
DA:108,0
DA:111,28
DA:112,28
DA:113,28
DA:114,28
DA:115,28
DA:116,28
DA:117,28
DA:118,28
DA:119,28
DA:120,28
DA:121,28
DA:122,28
DA:123,28
DA:124,28
DA:125,28
DA:126,28
DA:127,28
DA:128,28
DA:129,28
DA:130,28
DA:132,0
DA:133,0
DA:135,0
DA:139,0
DA:140,0
DA:141,0
DA:142,0
DA:143,0
DA:144,0
DA:145,0
DA:146,0
DA:147,0
DA:148,0
DA:150,0
DA:151,0
DA:152,0
BRF:0
BRH:0
LF:69
LH:20
end_of_record
SF:/Users/bene/bitcoin/rust-payjoin/payjoin-mailroom/src/db/files.rs
FN:215,_RNCNvMs0_NtNtCsewJmtgcsYNl_16payjoin_mailroom2db5filesNtB7_7FilesDb5prune0Bb_
FN:106,_RINvMNtNtCsewJmtgcsYNl_16payjoin_mailroom2db5filesNtB3_11DiskStorage10try_insertRINtNtCs3JibHiv1CSv_5alloc3vec3VechEEB7_
FN:110,_RNCINvMNtNtCsewJmtgcsYNl_16payjoin_mailroom2db5filesNtB5_11DiskStorage10try_insertRINtNtCs3JibHiv1CSv_5alloc3vec3VechEE0B9_
FN:219,_RNCNCNvMs0_NtNtCsewJmtgcsYNl_16payjoin_mailroom2db5filesNtB9_7FilesDb22spawn_background_prune00Bd_
FN:409,_RNCNCNvMs2_NtNtCsewJmtgcsYNl_16payjoin_mailroom2db5filesNtB9_9Mailboxes20post_v1_req_and_wait00Bd_
FN:465,_RNCNCNvMs2_NtNtCsewJmtgcsYNl_16payjoin_mailroom2db5filesNtB9_9Mailboxes5prune00Bd_
FN:462,_RNCNCNvMs2_NtNtCsewJmtgcsYNl_16payjoin_mailroom2db5filesNtB9_9Mailboxes5prune0s0_0Bd_
FN:351,_RNCNCNvMs2_NtNtCsewJmtgcsYNl_16payjoin_mailroom2db5filesNtB9_9Mailboxes7wait_v200Bd_
FN:85,_RNCNvMNtNtCsewJmtgcsYNl_16payjoin_mailroom2db5filesNtB4_11DiskStorage12contains_key0B8_
FN:168,_RNCNvMNtNtCsewJmtgcsYNl_16payjoin_mailroom2db5filesNtB4_11DiskStorage12insert_order0B8_
FN:89,_RNCNvMNtNtCsewJmtgcsYNl_16payjoin_mailroom2db5filesNtB4_11DiskStorage3get0B8_
FN:55,_RNCNvMNtNtCsewJmtgcsYNl_16payjoin_mailroom2db5filesNtB4_11DiskStorage4init0B8_
FN:159,_RNCNvMNtNtCsewJmtgcsYNl_16payjoin_mailroom2db5filesNtB4_11DiskStorage6remove0B8_
FN:217,_RNCNvMs0_NtNtCsewJmtgcsYNl_16payjoin_mailroom2db5filesNtB7_7FilesDb22spawn_background_prune0Bb_
FN:211,_RNCNvMs0_NtNtCsewJmtgcsYNl_16payjoin_mailroom2db5filesNtB7_7FilesDb4init0Bb_
FN:487,_RNCNvMs2_NtNtCsewJmtgcsYNl_16payjoin_mailroom2db5filesNtB7_9Mailboxes10next_prune0Bb_
FN:445,_RNCNvMs2_NtNtCsewJmtgcsYNl_16payjoin_mailroom2db5filesNtB7_9Mailboxes11maybe_prune0Bb_
FN:433,_RNCNvMs2_NtNtCsewJmtgcsYNl_16payjoin_mailroom2db5filesNtB7_9Mailboxes11post_v1_res0Bb_
FN:328,_RNCNvMs2_NtNtCsewJmtgcsYNl_16payjoin_mailroom2db5filesNtB7_9Mailboxes12has_capacity0Bb_
FN:398,_RNCNvMs2_NtNtCsewJmtgcsYNl_16payjoin_mailroom2db5filesNtB7_9Mailboxes20post_v1_req_and_wait0Bb_
FN:310,_RNCNvMs2_NtNtCsewJmtgcsYNl_16payjoin_mailroom2db5filesNtB7_9Mailboxes4read0Bb_
FN:458,_RNCNvMs2_NtNtCsewJmtgcsYNl_16payjoin_mailroom2db5filesNtB7_9Mailboxes5prune0Bb_
FN:429,_RNCNvMs2_NtNtCsewJmtgcsYNl_16payjoin_mailroom2db5filesNtB7_9Mailboxes6remove0Bb_
FN:370,_RNCNvMs2_NtNtCsewJmtgcsYNl_16payjoin_mailroom2db5filesNtB7_9Mailboxes7post_v20Bb_
FN:336,_RNCNvMs2_NtNtCsewJmtgcsYNl_16payjoin_mailroom2db5filesNtB7_9Mailboxes7wait_v20Bb_
FN:190,_RNCNvMs_NtNtCsewJmtgcsYNl_16payjoin_mailroom2db5filesNtB6_9Mailboxes4init0Ba_
FN:236,_RNCNvXs1_NtNtCsewJmtgcsYNl_16payjoin_mailroom2db5filesNtB7_7FilesDbNtB9_2Db15post_v2_payload0Bb_
FN:298,_RNCNvXs1_NtNtCsewJmtgcsYNl_16payjoin_mailroom2db5filesNtB7_7FilesDbNtB9_2Db16post_v1_response0Bb_
FN:244,_RNCNvXs1_NtNtCsewJmtgcsYNl_16payjoin_mailroom2db5filesNtB7_7FilesDbNtB9_2Db19wait_for_v2_payload0Bb_
FN:269,_RNCNvXs1_NtNtCsewJmtgcsYNl_16payjoin_mailroom2db5filesNtB7_7FilesDbNtB9_2Db37post_v1_request_and_wait_for_response0Bb_
FN:516,_RNvXs4_NtNtCsewJmtgcsYNl_16payjoin_mailroom2db5filesINtB7_5ErrorNtNtNtCscqTumPH0Ix7_3std2io5error5ErrorEINtNtCs2hl1TO11rA7_4core7convert4FromNtB5_5ErrorE4from
FN:153,_RNvMNtNtCsewJmtgcsYNl_16payjoin_mailroom2db5filesNtB2_11DiskStorage10xor_buffer
FN:85,_RNvMNtNtCsewJmtgcsYNl_16payjoin_mailroom2db5filesNtB2_11DiskStorage12contains_key
FN:168,_RNvMNtNtCsewJmtgcsYNl_16payjoin_mailroom2db5filesNtB2_11DiskStorage12insert_order
FN:79,_RNvMNtNtCsewJmtgcsYNl_16payjoin_mailroom2db5filesNtB2_11DiskStorage12mailbox_path
FN:81,_RNvMNtNtCsewJmtgcsYNl_16payjoin_mailroom2db5filesNtB2_11DiskStorage19insert_mailbox_path
FN:89,_RNvMNtNtCsewJmtgcsYNl_16payjoin_mailroom2db5filesNtB2_11DiskStorage3get
FN:55,_RNvMNtNtCsewJmtgcsYNl_16payjoin_mailroom2db5filesNtB2_11DiskStorage4init
FN:159,_RNvMNtNtCsewJmtgcsYNl_16payjoin_mailroom2db5filesNtB2_11DiskStorage6remove
FN:217,_RNvMs0_NtNtCsewJmtgcsYNl_16payjoin_mailroom2db5filesNtB5_7FilesDb22spawn_background_prune
FN:211,_RNvMs0_NtNtCsewJmtgcsYNl_16payjoin_mailroom2db5filesNtB5_7FilesDb4init
FN:215,_RNvMs0_NtNtCsewJmtgcsYNl_16payjoin_mailroom2db5filesNtB5_7FilesDb5prune
FN:484,_RNvMs2_NtNtCsewJmtgcsYNl_16payjoin_mailroom2db5filesNtB5_9Mailboxes10next_prune
FN:445,_RNvMs2_NtNtCsewJmtgcsYNl_16payjoin_mailroom2db5filesNtB5_9Mailboxes11maybe_prune
FN:433,_RNvMs2_NtNtCsewJmtgcsYNl_16payjoin_mailroom2db5filesNtB5_9Mailboxes11post_v1_res
FN:328,_RNvMs2_NtNtCsewJmtgcsYNl_16payjoin_mailroom2db5filesNtB5_9Mailboxes12has_capacity
FN:394,_RNvMs2_NtNtCsewJmtgcsYNl_16payjoin_mailroom2db5filesNtB5_9Mailboxes20post_v1_req_and_wait
FN:362,_RNvMs2_NtNtCsewJmtgcsYNl_16payjoin_mailroom2db5filesNtB5_9Mailboxes24maybe_cleanup_v2_waitmap
FN:441,_RNvMs2_NtNtCsewJmtgcsYNl_16payjoin_mailroom2db5filesNtB5_9Mailboxes3len
FN:310,_RNvMs2_NtNtCsewJmtgcsYNl_16payjoin_mailroom2db5filesNtB5_9Mailboxes4read
FN:458,_RNvMs2_NtNtCsewJmtgcsYNl_16payjoin_mailroom2db5filesNtB5_9Mailboxes5prune
FN:429,_RNvMs2_NtNtCsewJmtgcsYNl_16payjoin_mailroom2db5filesNtB5_9Mailboxes6remove
FN:370,_RNvMs2_NtNtCsewJmtgcsYNl_16payjoin_mailroom2db5filesNtB5_9Mailboxes7post_v2
FN:333,_RNvMs2_NtNtCsewJmtgcsYNl_16payjoin_mailroom2db5filesNtB5_9Mailboxes7wait_v2
FN:190,_RNvMs_NtNtCsewJmtgcsYNl_16payjoin_mailroom2db5filesNtB4_9Mailboxes4init
FN:232,_RNvXs1_NtNtCsewJmtgcsYNl_16payjoin_mailroom2db5filesNtB5_7FilesDbNtB7_2Db15post_v2_payload
FN:294,_RNvXs1_NtNtCsewJmtgcsYNl_16payjoin_mailroom2db5filesNtB5_7FilesDbNtB7_2Db16post_v1_response
FN:241,_RNvXs1_NtNtCsewJmtgcsYNl_16payjoin_mailroom2db5filesNtB5_7FilesDbNtB7_2Db19wait_for_v2_payload
FN:265,_RNvXs1_NtNtCsewJmtgcsYNl_16payjoin_mailroom2db5filesNtB5_7FilesDbNtB7_2Db37post_v1_request_and_wait_for_response
FN:511,_RNvXs3_NtNtCsewJmtgcsYNl_16payjoin_mailroom2db5filesNtB5_5ErrorINtNtCs2hl1TO11rA7_4core7convert4FromNtNtNtCscqTumPH0Ix7_3std2io5error5ErrorE4from
FN:527,_RNvXs5_NtNtCsewJmtgcsYNl_16payjoin_mailroom2db5filesNtB5_5ErrorNtNtCs2hl1TO11rA7_4core5error5Error6source
FN:536,_RNvXs6_NtNtCsewJmtgcsYNl_16payjoin_mailroom2db5filesNtB5_5ErrorNtNtCs2hl1TO11rA7_4core3fmt7Display3fmt
FN:215,_RNCNvMs0_NtNtCsk7yOOz582FI_16payjoin_mailroom2db5filesNtB7_7FilesDb5prune0Bb_
FN:516,_RNvXs4_NtNtCsk7yOOz582FI_16payjoin_mailroom2db5filesINtB7_5ErrorNtNtNtCscqTumPH0Ix7_3std2io5error5ErrorEINtNtCs2hl1TO11rA7_4core7convert4FromNtB5_5ErrorE4from
FN:153,_RNvMNtNtCsk7yOOz582FI_16payjoin_mailroom2db5filesNtB2_11DiskStorage10xor_buffer
FN:85,_RNvMNtNtCsk7yOOz582FI_16payjoin_mailroom2db5filesNtB2_11DiskStorage12contains_key
FN:168,_RNvMNtNtCsk7yOOz582FI_16payjoin_mailroom2db5filesNtB2_11DiskStorage12insert_order
FN:79,_RNvMNtNtCsk7yOOz582FI_16payjoin_mailroom2db5filesNtB2_11DiskStorage12mailbox_path
FN:81,_RNvMNtNtCsk7yOOz582FI_16payjoin_mailroom2db5filesNtB2_11DiskStorage19insert_mailbox_path
FN:89,_RNvMNtNtCsk7yOOz582FI_16payjoin_mailroom2db5filesNtB2_11DiskStorage3get
FN:55,_RNvMNtNtCsk7yOOz582FI_16payjoin_mailroom2db5filesNtB2_11DiskStorage4init
FN:159,_RNvMNtNtCsk7yOOz582FI_16payjoin_mailroom2db5filesNtB2_11DiskStorage6remove
FN:217,_RNvMs0_NtNtCsk7yOOz582FI_16payjoin_mailroom2db5filesNtB5_7FilesDb22spawn_background_prune
FN:211,_RNvMs0_NtNtCsk7yOOz582FI_16payjoin_mailroom2db5filesNtB5_7FilesDb4init
FN:215,_RNvMs0_NtNtCsk7yOOz582FI_16payjoin_mailroom2db5filesNtB5_7FilesDb5prune
FN:484,_RNvMs2_NtNtCsk7yOOz582FI_16payjoin_mailroom2db5filesNtB5_9Mailboxes10next_prune
FN:445,_RNvMs2_NtNtCsk7yOOz582FI_16payjoin_mailroom2db5filesNtB5_9Mailboxes11maybe_prune
FN:433,_RNvMs2_NtNtCsk7yOOz582FI_16payjoin_mailroom2db5filesNtB5_9Mailboxes11post_v1_res
FN:328,_RNvMs2_NtNtCsk7yOOz582FI_16payjoin_mailroom2db5filesNtB5_9Mailboxes12has_capacity
FN:394,_RNvMs2_NtNtCsk7yOOz582FI_16payjoin_mailroom2db5filesNtB5_9Mailboxes20post_v1_req_and_wait
FN:362,_RNvMs2_NtNtCsk7yOOz582FI_16payjoin_mailroom2db5filesNtB5_9Mailboxes24maybe_cleanup_v2_waitmap
FN:441,_RNvMs2_NtNtCsk7yOOz582FI_16payjoin_mailroom2db5filesNtB5_9Mailboxes3len
FN:310,_RNvMs2_NtNtCsk7yOOz582FI_16payjoin_mailroom2db5filesNtB5_9Mailboxes4read
FN:458,_RNvMs2_NtNtCsk7yOOz582FI_16payjoin_mailroom2db5filesNtB5_9Mailboxes5prune
FN:429,_RNvMs2_NtNtCsk7yOOz582FI_16payjoin_mailroom2db5filesNtB5_9Mailboxes6remove
FN:370,_RNvMs2_NtNtCsk7yOOz582FI_16payjoin_mailroom2db5filesNtB5_9Mailboxes7post_v2
FN:333,_RNvMs2_NtNtCsk7yOOz582FI_16payjoin_mailroom2db5filesNtB5_9Mailboxes7wait_v2
FN:190,_RNvMs_NtNtCsk7yOOz582FI_16payjoin_mailroom2db5filesNtB4_9Mailboxes4init
FN:232,_RNvXs1_NtNtCsk7yOOz582FI_16payjoin_mailroom2db5filesNtB5_7FilesDbNtB7_2Db15post_v2_payload
FN:294,_RNvXs1_NtNtCsk7yOOz582FI_16payjoin_mailroom2db5filesNtB5_7FilesDbNtB7_2Db16post_v1_response
FN:241,_RNvXs1_NtNtCsk7yOOz582FI_16payjoin_mailroom2db5filesNtB5_7FilesDbNtB7_2Db19wait_for_v2_payload
FN:265,_RNvXs1_NtNtCsk7yOOz582FI_16payjoin_mailroom2db5filesNtB5_7FilesDbNtB7_2Db37post_v1_request_and_wait_for_response
FN:511,_RNvXs3_NtNtCsk7yOOz582FI_16payjoin_mailroom2db5filesNtB5_5ErrorINtNtCs2hl1TO11rA7_4core7convert4FromNtNtNtCscqTumPH0Ix7_3std2io5error5ErrorE4from
FN:527,_RNvXs5_NtNtCsk7yOOz582FI_16payjoin_mailroom2db5filesNtB5_5ErrorNtNtCs2hl1TO11rA7_4core5error5Error6source
FN:536,_RNvXs6_NtNtCsk7yOOz582FI_16payjoin_mailroom2db5filesNtB5_5ErrorNtNtCs2hl1TO11rA7_4core3fmt7Display3fmt
FN:106,_RINvMNtNtCsk7yOOz582FI_16payjoin_mailroom2db5filesNtB3_11DiskStorage10try_insertRINtNtCs3JibHiv1CSv_5alloc3vec3VechEEB7_
FN:110,_RNCINvMNtNtCsk7yOOz582FI_16payjoin_mailroom2db5filesNtB5_11DiskStorage10try_insertRINtNtCs3JibHiv1CSv_5alloc3vec3VechEE0B9_
FN:219,_RNCNCNvMs0_NtNtCsk7yOOz582FI_16payjoin_mailroom2db5filesNtB9_7FilesDb22spawn_background_prune00Bd_
FN:409,_RNCNCNvMs2_NtNtCsk7yOOz582FI_16payjoin_mailroom2db5filesNtB9_9Mailboxes20post_v1_req_and_wait00Bd_
FN:465,_RNCNCNvMs2_NtNtCsk7yOOz582FI_16payjoin_mailroom2db5filesNtB9_9Mailboxes5prune00Bd_
FN:462,_RNCNCNvMs2_NtNtCsk7yOOz582FI_16payjoin_mailroom2db5filesNtB9_9Mailboxes5prune0s0_0Bd_
FN:351,_RNCNCNvMs2_NtNtCsk7yOOz582FI_16payjoin_mailroom2db5filesNtB9_9Mailboxes7wait_v200Bd_
FN:85,_RNCNvMNtNtCsk7yOOz582FI_16payjoin_mailroom2db5filesNtB4_11DiskStorage12contains_key0B8_
FN:168,_RNCNvMNtNtCsk7yOOz582FI_16payjoin_mailroom2db5filesNtB4_11DiskStorage12insert_order0B8_
FN:89,_RNCNvMNtNtCsk7yOOz582FI_16payjoin_mailroom2db5filesNtB4_11DiskStorage3get0B8_
FN:55,_RNCNvMNtNtCsk7yOOz582FI_16payjoin_mailroom2db5filesNtB4_11DiskStorage4init0B8_
FN:159,_RNCNvMNtNtCsk7yOOz582FI_16payjoin_mailroom2db5filesNtB4_11DiskStorage6remove0B8_
FN:217,_RNCNvMs0_NtNtCsk7yOOz582FI_16payjoin_mailroom2db5filesNtB7_7FilesDb22spawn_background_prune0Bb_
FN:211,_RNCNvMs0_NtNtCsk7yOOz582FI_16payjoin_mailroom2db5filesNtB7_7FilesDb4init0Bb_
FN:487,_RNCNvMs2_NtNtCsk7yOOz582FI_16payjoin_mailroom2db5filesNtB7_9Mailboxes10next_prune0Bb_
FN:445,_RNCNvMs2_NtNtCsk7yOOz582FI_16payjoin_mailroom2db5filesNtB7_9Mailboxes11maybe_prune0Bb_
FN:433,_RNCNvMs2_NtNtCsk7yOOz582FI_16payjoin_mailroom2db5filesNtB7_9Mailboxes11post_v1_res0Bb_
FN:328,_RNCNvMs2_NtNtCsk7yOOz582FI_16payjoin_mailroom2db5filesNtB7_9Mailboxes12has_capacity0Bb_
FN:398,_RNCNvMs2_NtNtCsk7yOOz582FI_16payjoin_mailroom2db5filesNtB7_9Mailboxes20post_v1_req_and_wait0Bb_
FN:310,_RNCNvMs2_NtNtCsk7yOOz582FI_16payjoin_mailroom2db5filesNtB7_9Mailboxes4read0Bb_
FN:458,_RNCNvMs2_NtNtCsk7yOOz582FI_16payjoin_mailroom2db5filesNtB7_9Mailboxes5prune0Bb_
FN:429,_RNCNvMs2_NtNtCsk7yOOz582FI_16payjoin_mailroom2db5filesNtB7_9Mailboxes6remove0Bb_
FN:370,_RNCNvMs2_NtNtCsk7yOOz582FI_16payjoin_mailroom2db5filesNtB7_9Mailboxes7post_v20Bb_
FN:336,_RNCNvMs2_NtNtCsk7yOOz582FI_16payjoin_mailroom2db5filesNtB7_9Mailboxes7wait_v20Bb_
FN:190,_RNCNvMs_NtNtCsk7yOOz582FI_16payjoin_mailroom2db5filesNtB6_9Mailboxes4init0Ba_
FN:236,_RNCNvXs1_NtNtCsk7yOOz582FI_16payjoin_mailroom2db5filesNtB7_7FilesDbNtB9_2Db15post_v2_payload0Bb_
FN:298,_RNCNvXs1_NtNtCsk7yOOz582FI_16payjoin_mailroom2db5filesNtB7_7FilesDbNtB9_2Db16post_v1_response0Bb_
FN:244,_RNCNvXs1_NtNtCsk7yOOz582FI_16payjoin_mailroom2db5filesNtB7_7FilesDbNtB9_2Db19wait_for_v2_payload0Bb_
FN:269,_RNCNvXs1_NtNtCsk7yOOz582FI_16payjoin_mailroom2db5filesNtB7_7FilesDbNtB9_2Db37post_v1_request_and_wait_for_response0Bb_
FN:527,_RNvXs5_NtNtCs8YpBKXcegdX_16payjoin_mailroom2db5filesNtB5_5ErrorNtNtCs2hl1TO11rA7_4core5error5Error6source
FN:536,_RNvXs6_NtNtCs8YpBKXcegdX_16payjoin_mailroom2db5filesNtB5_5ErrorNtNtCs2hl1TO11rA7_4core3fmt7Display3fmt
FN:153,_RNvMNtNtCs8YpBKXcegdX_16payjoin_mailroom2db5filesNtB2_11DiskStorage10xor_buffer
FN:85,_RNvMNtNtCs8YpBKXcegdX_16payjoin_mailroom2db5filesNtB2_11DiskStorage12contains_key
FN:168,_RNvMNtNtCs8YpBKXcegdX_16payjoin_mailroom2db5filesNtB2_11DiskStorage12insert_order
FN:79,_RNvMNtNtCs8YpBKXcegdX_16payjoin_mailroom2db5filesNtB2_11DiskStorage12mailbox_path
FN:81,_RNvMNtNtCs8YpBKXcegdX_16payjoin_mailroom2db5filesNtB2_11DiskStorage19insert_mailbox_path
FN:89,_RNvMNtNtCs8YpBKXcegdX_16payjoin_mailroom2db5filesNtB2_11DiskStorage3get
FN:55,_RNvMNtNtCs8YpBKXcegdX_16payjoin_mailroom2db5filesNtB2_11DiskStorage4init
FN:159,_RNvMNtNtCs8YpBKXcegdX_16payjoin_mailroom2db5filesNtB2_11DiskStorage6remove
FN:217,_RNvMs0_NtNtCs8YpBKXcegdX_16payjoin_mailroom2db5filesNtB5_7FilesDb22spawn_background_prune
FN:211,_RNvMs0_NtNtCs8YpBKXcegdX_16payjoin_mailroom2db5filesNtB5_7FilesDb4init
FN:215,_RNvMs0_NtNtCs8YpBKXcegdX_16payjoin_mailroom2db5filesNtB5_7FilesDb5prune
FN:484,_RNvMs2_NtNtCs8YpBKXcegdX_16payjoin_mailroom2db5filesNtB5_9Mailboxes10next_prune
FN:445,_RNvMs2_NtNtCs8YpBKXcegdX_16payjoin_mailroom2db5filesNtB5_9Mailboxes11maybe_prune
FN:433,_RNvMs2_NtNtCs8YpBKXcegdX_16payjoin_mailroom2db5filesNtB5_9Mailboxes11post_v1_res
FN:328,_RNvMs2_NtNtCs8YpBKXcegdX_16payjoin_mailroom2db5filesNtB5_9Mailboxes12has_capacity
FN:394,_RNvMs2_NtNtCs8YpBKXcegdX_16payjoin_mailroom2db5filesNtB5_9Mailboxes20post_v1_req_and_wait
FN:362,_RNvMs2_NtNtCs8YpBKXcegdX_16payjoin_mailroom2db5filesNtB5_9Mailboxes24maybe_cleanup_v2_waitmap
FN:441,_RNvMs2_NtNtCs8YpBKXcegdX_16payjoin_mailroom2db5filesNtB5_9Mailboxes3len
FN:310,_RNvMs2_NtNtCs8YpBKXcegdX_16payjoin_mailroom2db5filesNtB5_9Mailboxes4read
FN:458,_RNvMs2_NtNtCs8YpBKXcegdX_16payjoin_mailroom2db5filesNtB5_9Mailboxes5prune
FN:429,_RNvMs2_NtNtCs8YpBKXcegdX_16payjoin_mailroom2db5filesNtB5_9Mailboxes6remove
FN:370,_RNvMs2_NtNtCs8YpBKXcegdX_16payjoin_mailroom2db5filesNtB5_9Mailboxes7post_v2
FN:333,_RNvMs2_NtNtCs8YpBKXcegdX_16payjoin_mailroom2db5filesNtB5_9Mailboxes7wait_v2
FN:190,_RNvMs_NtNtCs8YpBKXcegdX_16payjoin_mailroom2db5filesNtB4_9Mailboxes4init
FN:232,_RNvXs1_NtNtCs8YpBKXcegdX_16payjoin_mailroom2db5filesNtB5_7FilesDbNtB7_2Db15post_v2_payload
FN:294,_RNvXs1_NtNtCs8YpBKXcegdX_16payjoin_mailroom2db5filesNtB5_7FilesDbNtB7_2Db16post_v1_response
FN:241,_RNvXs1_NtNtCs8YpBKXcegdX_16payjoin_mailroom2db5filesNtB5_7FilesDbNtB7_2Db19wait_for_v2_payload
FN:265,_RNvXs1_NtNtCs8YpBKXcegdX_16payjoin_mailroom2db5filesNtB5_7FilesDbNtB7_2Db37post_v1_request_and_wait_for_response
FN:511,_RNvXs3_NtNtCs8YpBKXcegdX_16payjoin_mailroom2db5filesNtB5_5ErrorINtNtCs2hl1TO11rA7_4core7convert4FromNtNtNtCscqTumPH0Ix7_3std2io5error5ErrorE4from
FN:516,_RNvXs4_NtNtCs8YpBKXcegdX_16payjoin_mailroom2db5filesINtB7_5ErrorNtNtNtCscqTumPH0Ix7_3std2io5error5ErrorEINtNtCs2hl1TO11rA7_4core7convert4FromNtB5_5ErrorE4from
FN:106,_RINvMNtNtCs8YpBKXcegdX_16payjoin_mailroom2db5filesNtB3_11DiskStorage10try_insertRAhj6_EB7_
FN:106,_RINvMNtNtCs8YpBKXcegdX_16payjoin_mailroom2db5filesNtB3_11DiskStorage10try_insertRAhj7_EB7_
FN:106,_RINvMNtNtCs8YpBKXcegdX_16payjoin_mailroom2db5filesNtB3_11DiskStorage10try_insertRINtNtCs3JibHiv1CSv_5alloc3vec3VechEEB7_
FN:110,_RNCINvMNtNtCs8YpBKXcegdX_16payjoin_mailroom2db5filesNtB5_11DiskStorage10try_insertRAhj6_E0B9_
FN:110,_RNCINvMNtNtCs8YpBKXcegdX_16payjoin_mailroom2db5filesNtB5_11DiskStorage10try_insertRAhj7_E0B9_
FN:110,_RNCINvMNtNtCs8YpBKXcegdX_16payjoin_mailroom2db5filesNtB5_11DiskStorage10try_insertRINtNtCs3JibHiv1CSv_5alloc3vec3VechEE0B9_
FN:219,_RNCNCNvMs0_NtNtCs8YpBKXcegdX_16payjoin_mailroom2db5filesNtB9_7FilesDb22spawn_background_prune00Bd_
FN:409,_RNCNCNvMs2_NtNtCs8YpBKXcegdX_16payjoin_mailroom2db5filesNtB9_9Mailboxes20post_v1_req_and_wait00Bd_
FN:465,_RNCNCNvMs2_NtNtCs8YpBKXcegdX_16payjoin_mailroom2db5filesNtB9_9Mailboxes5prune00Bd_
FN:462,_RNCNCNvMs2_NtNtCs8YpBKXcegdX_16payjoin_mailroom2db5filesNtB9_9Mailboxes5prune0s0_0Bd_
FN:351,_RNCNCNvMs2_NtNtCs8YpBKXcegdX_16payjoin_mailroom2db5filesNtB9_9Mailboxes7wait_v200Bd_
FN:85,_RNCNvMNtNtCs8YpBKXcegdX_16payjoin_mailroom2db5filesNtB4_11DiskStorage12contains_key0B8_
FN:168,_RNCNvMNtNtCs8YpBKXcegdX_16payjoin_mailroom2db5filesNtB4_11DiskStorage12insert_order0B8_
FN:89,_RNCNvMNtNtCs8YpBKXcegdX_16payjoin_mailroom2db5filesNtB4_11DiskStorage3get0B8_
FN:55,_RNCNvMNtNtCs8YpBKXcegdX_16payjoin_mailroom2db5filesNtB4_11DiskStorage4init0B8_
FN:159,_RNCNvMNtNtCs8YpBKXcegdX_16payjoin_mailroom2db5filesNtB4_11DiskStorage6remove0B8_
FN:217,_RNCNvMs0_NtNtCs8YpBKXcegdX_16payjoin_mailroom2db5filesNtB7_7FilesDb22spawn_background_prune0Bb_
FN:211,_RNCNvMs0_NtNtCs8YpBKXcegdX_16payjoin_mailroom2db5filesNtB7_7FilesDb4init0Bb_
FN:215,_RNCNvMs0_NtNtCs8YpBKXcegdX_16payjoin_mailroom2db5filesNtB7_7FilesDb5prune0Bb_
FN:487,_RNCNvMs2_NtNtCs8YpBKXcegdX_16payjoin_mailroom2db5filesNtB7_9Mailboxes10next_prune0Bb_
FN:445,_RNCNvMs2_NtNtCs8YpBKXcegdX_16payjoin_mailroom2db5filesNtB7_9Mailboxes11maybe_prune0Bb_
FN:433,_RNCNvMs2_NtNtCs8YpBKXcegdX_16payjoin_mailroom2db5filesNtB7_9Mailboxes11post_v1_res0Bb_
FN:328,_RNCNvMs2_NtNtCs8YpBKXcegdX_16payjoin_mailroom2db5filesNtB7_9Mailboxes12has_capacity0Bb_
FN:398,_RNCNvMs2_NtNtCs8YpBKXcegdX_16payjoin_mailroom2db5filesNtB7_9Mailboxes20post_v1_req_and_wait0Bb_
FN:310,_RNCNvMs2_NtNtCs8YpBKXcegdX_16payjoin_mailroom2db5filesNtB7_9Mailboxes4read0Bb_
FN:458,_RNCNvMs2_NtNtCs8YpBKXcegdX_16payjoin_mailroom2db5filesNtB7_9Mailboxes5prune0Bb_
FN:429,_RNCNvMs2_NtNtCs8YpBKXcegdX_16payjoin_mailroom2db5filesNtB7_9Mailboxes6remove0Bb_
FN:370,_RNCNvMs2_NtNtCs8YpBKXcegdX_16payjoin_mailroom2db5filesNtB7_9Mailboxes7post_v20Bb_
FN:336,_RNCNvMs2_NtNtCs8YpBKXcegdX_16payjoin_mailroom2db5filesNtB7_9Mailboxes7wait_v20Bb_
FN:190,_RNCNvMs_NtNtCs8YpBKXcegdX_16payjoin_mailroom2db5filesNtB6_9Mailboxes4init0Ba_
FN:236,_RNCNvXs1_NtNtCs8YpBKXcegdX_16payjoin_mailroom2db5filesNtB7_7FilesDbNtB9_2Db15post_v2_payload0Bb_
FN:298,_RNCNvXs1_NtNtCs8YpBKXcegdX_16payjoin_mailroom2db5filesNtB7_7FilesDbNtB9_2Db16post_v1_response0Bb_
FN:244,_RNCNvXs1_NtNtCs8YpBKXcegdX_16payjoin_mailroom2db5filesNtB7_7FilesDbNtB9_2Db19wait_for_v2_payload0Bb_
FN:269,_RNCNvXs1_NtNtCs8YpBKXcegdX_16payjoin_mailroom2db5filesNtB7_7FilesDbNtB9_2Db37post_v1_request_and_wait_for_response0Bb_
FN:974,_RNvNtNtNtCs8YpBKXcegdX_16payjoin_mailroom2db5files5tests30assert_all_paths_over_capacity
FN:902,_RNvNtNtNtCs8YpBKXcegdX_16payjoin_mailroom2db5files5testss_10test_prune
FN:787,_RNvNtNtNtCs8YpBKXcegdX_16payjoin_mailroom2db5files5testss_12test_v1_wait
FN:727,_RNvNtNtNtCs8YpBKXcegdX_16payjoin_mailroom2db5files5testss_12test_v2_wait
FN:702,_RNvNtNtNtCs8YpBKXcegdX_16payjoin_mailroom2db5files5testss_20test_mailbox_storage
FN:991,_RNvNtNtNtCs8YpBKXcegdX_16payjoin_mailroom2db5files5testss_21test_capacity_post_v2
FN:1045,_RNvNtNtNtCs8YpBKXcegdX_16payjoin_mailroom2db5files5testss_21test_capacity_wait_v2
FN:840,_RNvNtNtNtCs8YpBKXcegdX_16payjoin_mailroom2db5files5testss_25test_v1_data_minimization
FN:603,_RNvNtNtNtCs8YpBKXcegdX_16payjoin_mailroom2db5files5testss_27test_disk_storage_mailboxes
FN:561,_RNvNtNtNtCs8YpBKXcegdX_16payjoin_mailroom2db5files5testss_32test_disk_storage_initialization
FN:1013,_RNvNtNtNtCs8YpBKXcegdX_16payjoin_mailroom2db5files5testss_34test_capacity_post_v1_req_and_wait
FN:931,_RNCNCNvNtNtNtCs8YpBKXcegdX_16payjoin_mailroom2db5files5testss_10test_prune00Bb_
FN:804,_RNCNCNvNtNtNtCs8YpBKXcegdX_16payjoin_mailroom2db5files5testss_12test_v1_wait00Bb_
FN:748,_RNCNCNvNtNtNtCs8YpBKXcegdX_16payjoin_mailroom2db5files5testss_12test_v2_wait00Bb_
FN:752,_RNCNCNvNtNtNtCs8YpBKXcegdX_16payjoin_mailroom2db5files5testss_12test_v2_wait0s_0Bb_
FN:1059,_RNCNCNvNtNtNtCs8YpBKXcegdX_16payjoin_mailroom2db5files5testss_21test_capacity_wait_v200Bb_
FN:858,_RNCNCNvNtNtNtCs8YpBKXcegdX_16payjoin_mailroom2db5files5testss_25test_v1_data_minimization00Bb_
FN:879,_RNCNCNvNtNtNtCs8YpBKXcegdX_16payjoin_mailroom2db5files5testss_25test_v1_data_minimization0s_0Bb_
FN:1027,_RNCNCNvNtNtNtCs8YpBKXcegdX_16payjoin_mailroom2db5files5testss_34test_capacity_post_v1_req_and_wait00Bb_
FN:974,_RNCNvNtNtNtCs8YpBKXcegdX_16payjoin_mailroom2db5files5tests30assert_all_paths_over_capacity0B9_
FN:902,_RNCNvNtNtNtCs8YpBKXcegdX_16payjoin_mailroom2db5files5testss_10test_prune0B9_
FN:787,_RNCNvNtNtNtCs8YpBKXcegdX_16payjoin_mailroom2db5files5testss_12test_v1_wait0B9_
FN:727,_RNCNvNtNtNtCs8YpBKXcegdX_16payjoin_mailroom2db5files5testss_12test_v2_wait0B9_
FN:702,_RNCNvNtNtNtCs8YpBKXcegdX_16payjoin_mailroom2db5files5testss_20test_mailbox_storage0B9_
FN:991,_RNCNvNtNtNtCs8YpBKXcegdX_16payjoin_mailroom2db5files5testss_21test_capacity_post_v20B9_
FN:1045,_RNCNvNtNtNtCs8YpBKXcegdX_16payjoin_mailroom2db5files5testss_21test_capacity_wait_v20B9_
FN:840,_RNCNvNtNtNtCs8YpBKXcegdX_16payjoin_mailroom2db5files5testss_25test_v1_data_minimization0B9_
FN:603,_RNCNvNtNtNtCs8YpBKXcegdX_16payjoin_mailroom2db5files5testss_27test_disk_storage_mailboxes0B9_
FN:561,_RNCNvNtNtNtCs8YpBKXcegdX_16payjoin_mailroom2db5files5testss_32test_disk_storage_initialization0B9_
FN:1013,_RNCNvNtNtNtCs8YpBKXcegdX_16payjoin_mailroom2db5files5testss_34test_capacity_post_v1_req_and_wait0B9_
FNDA:0,_RNCNvMs0_NtNtCsewJmtgcsYNl_16payjoin_mailroom2db5filesNtB7_7FilesDb5prune0Bb_
FNDA:0,_RINvMNtNtCsewJmtgcsYNl_16payjoin_mailroom2db5filesNtB3_11DiskStorage10try_insertRINtNtCs3JibHiv1CSv_5alloc3vec3VechEEB7_
FNDA:0,_RNCINvMNtNtCsewJmtgcsYNl_16payjoin_mailroom2db5filesNtB5_11DiskStorage10try_insertRINtNtCs3JibHiv1CSv_5alloc3vec3VechEE0B9_
FNDA:0,_RNCNCNvMs0_NtNtCsewJmtgcsYNl_16payjoin_mailroom2db5filesNtB9_7FilesDb22spawn_background_prune00Bd_
FNDA:0,_RNCNCNvMs2_NtNtCsewJmtgcsYNl_16payjoin_mailroom2db5filesNtB9_9Mailboxes20post_v1_req_and_wait00Bd_
FNDA:0,_RNCNCNvMs2_NtNtCsewJmtgcsYNl_16payjoin_mailroom2db5filesNtB9_9Mailboxes5prune00Bd_
FNDA:0,_RNCNCNvMs2_NtNtCsewJmtgcsYNl_16payjoin_mailroom2db5filesNtB9_9Mailboxes5prune0s0_0Bd_
FNDA:0,_RNCNCNvMs2_NtNtCsewJmtgcsYNl_16payjoin_mailroom2db5filesNtB9_9Mailboxes7wait_v200Bd_
FNDA:0,_RNCNvMNtNtCsewJmtgcsYNl_16payjoin_mailroom2db5filesNtB4_11DiskStorage12contains_key0B8_
FNDA:0,_RNCNvMNtNtCsewJmtgcsYNl_16payjoin_mailroom2db5filesNtB4_11DiskStorage12insert_order0B8_
FNDA:0,_RNCNvMNtNtCsewJmtgcsYNl_16payjoin_mailroom2db5filesNtB4_11DiskStorage3get0B8_
FNDA:0,_RNCNvMNtNtCsewJmtgcsYNl_16payjoin_mailroom2db5filesNtB4_11DiskStorage4init0B8_
FNDA:0,_RNCNvMNtNtCsewJmtgcsYNl_16payjoin_mailroom2db5filesNtB4_11DiskStorage6remove0B8_
FNDA:0,_RNCNvMs0_NtNtCsewJmtgcsYNl_16payjoin_mailroom2db5filesNtB7_7FilesDb22spawn_background_prune0Bb_
FNDA:0,_RNCNvMs0_NtNtCsewJmtgcsYNl_16payjoin_mailroom2db5filesNtB7_7FilesDb4init0Bb_
FNDA:0,_RNCNvMs2_NtNtCsewJmtgcsYNl_16payjoin_mailroom2db5filesNtB7_9Mailboxes10next_prune0Bb_
FNDA:0,_RNCNvMs2_NtNtCsewJmtgcsYNl_16payjoin_mailroom2db5filesNtB7_9Mailboxes11maybe_prune0Bb_
FNDA:0,_RNCNvMs2_NtNtCsewJmtgcsYNl_16payjoin_mailroom2db5filesNtB7_9Mailboxes11post_v1_res0Bb_
FNDA:0,_RNCNvMs2_NtNtCsewJmtgcsYNl_16payjoin_mailroom2db5filesNtB7_9Mailboxes12has_capacity0Bb_
FNDA:0,_RNCNvMs2_NtNtCsewJmtgcsYNl_16payjoin_mailroom2db5filesNtB7_9Mailboxes20post_v1_req_and_wait0Bb_
FNDA:0,_RNCNvMs2_NtNtCsewJmtgcsYNl_16payjoin_mailroom2db5filesNtB7_9Mailboxes4read0Bb_
FNDA:0,_RNCNvMs2_NtNtCsewJmtgcsYNl_16payjoin_mailroom2db5filesNtB7_9Mailboxes5prune0Bb_
FNDA:0,_RNCNvMs2_NtNtCsewJmtgcsYNl_16payjoin_mailroom2db5filesNtB7_9Mailboxes6remove0Bb_
FNDA:0,_RNCNvMs2_NtNtCsewJmtgcsYNl_16payjoin_mailroom2db5filesNtB7_9Mailboxes7post_v20Bb_
FNDA:0,_RNCNvMs2_NtNtCsewJmtgcsYNl_16payjoin_mailroom2db5filesNtB7_9Mailboxes7wait_v20Bb_
FNDA:0,_RNCNvMs_NtNtCsewJmtgcsYNl_16payjoin_mailroom2db5filesNtB6_9Mailboxes4init0Ba_
FNDA:0,_RNCNvXs1_NtNtCsewJmtgcsYNl_16payjoin_mailroom2db5filesNtB7_7FilesDbNtB9_2Db15post_v2_payload0Bb_
FNDA:0,_RNCNvXs1_NtNtCsewJmtgcsYNl_16payjoin_mailroom2db5filesNtB7_7FilesDbNtB9_2Db16post_v1_response0Bb_
FNDA:0,_RNCNvXs1_NtNtCsewJmtgcsYNl_16payjoin_mailroom2db5filesNtB7_7FilesDbNtB9_2Db19wait_for_v2_payload0Bb_
FNDA:0,_RNCNvXs1_NtNtCsewJmtgcsYNl_16payjoin_mailroom2db5filesNtB7_7FilesDbNtB9_2Db37post_v1_request_and_wait_for_response0Bb_
FNDA:0,_RNvXs4_NtNtCsewJmtgcsYNl_16payjoin_mailroom2db5filesINtB7_5ErrorNtNtNtCscqTumPH0Ix7_3std2io5error5ErrorEINtNtCs2hl1TO11rA7_4core7convert4FromNtB5_5ErrorE4from
FNDA:0,_RNvMNtNtCsewJmtgcsYNl_16payjoin_mailroom2db5filesNtB2_11DiskStorage10xor_buffer
FNDA:0,_RNvMNtNtCsewJmtgcsYNl_16payjoin_mailroom2db5filesNtB2_11DiskStorage12contains_key
FNDA:0,_RNvMNtNtCsewJmtgcsYNl_16payjoin_mailroom2db5filesNtB2_11DiskStorage12insert_order
FNDA:0,_RNvMNtNtCsewJmtgcsYNl_16payjoin_mailroom2db5filesNtB2_11DiskStorage12mailbox_path
FNDA:0,_RNvMNtNtCsewJmtgcsYNl_16payjoin_mailroom2db5filesNtB2_11DiskStorage19insert_mailbox_path
FNDA:0,_RNvMNtNtCsewJmtgcsYNl_16payjoin_mailroom2db5filesNtB2_11DiskStorage3get
FNDA:0,_RNvMNtNtCsewJmtgcsYNl_16payjoin_mailroom2db5filesNtB2_11DiskStorage4init
FNDA:0,_RNvMNtNtCsewJmtgcsYNl_16payjoin_mailroom2db5filesNtB2_11DiskStorage6remove
FNDA:0,_RNvMs0_NtNtCsewJmtgcsYNl_16payjoin_mailroom2db5filesNtB5_7FilesDb22spawn_background_prune
FNDA:0,_RNvMs0_NtNtCsewJmtgcsYNl_16payjoin_mailroom2db5filesNtB5_7FilesDb4init
FNDA:0,_RNvMs0_NtNtCsewJmtgcsYNl_16payjoin_mailroom2db5filesNtB5_7FilesDb5prune
FNDA:0,_RNvMs2_NtNtCsewJmtgcsYNl_16payjoin_mailroom2db5filesNtB5_9Mailboxes10next_prune
FNDA:0,_RNvMs2_NtNtCsewJmtgcsYNl_16payjoin_mailroom2db5filesNtB5_9Mailboxes11maybe_prune
FNDA:0,_RNvMs2_NtNtCsewJmtgcsYNl_16payjoin_mailroom2db5filesNtB5_9Mailboxes11post_v1_res
FNDA:0,_RNvMs2_NtNtCsewJmtgcsYNl_16payjoin_mailroom2db5filesNtB5_9Mailboxes12has_capacity
FNDA:0,_RNvMs2_NtNtCsewJmtgcsYNl_16payjoin_mailroom2db5filesNtB5_9Mailboxes20post_v1_req_and_wait
FNDA:0,_RNvMs2_NtNtCsewJmtgcsYNl_16payjoin_mailroom2db5filesNtB5_9Mailboxes24maybe_cleanup_v2_waitmap
FNDA:0,_RNvMs2_NtNtCsewJmtgcsYNl_16payjoin_mailroom2db5filesNtB5_9Mailboxes3len
FNDA:0,_RNvMs2_NtNtCsewJmtgcsYNl_16payjoin_mailroom2db5filesNtB5_9Mailboxes4read
FNDA:0,_RNvMs2_NtNtCsewJmtgcsYNl_16payjoin_mailroom2db5filesNtB5_9Mailboxes5prune
FNDA:0,_RNvMs2_NtNtCsewJmtgcsYNl_16payjoin_mailroom2db5filesNtB5_9Mailboxes6remove
FNDA:0,_RNvMs2_NtNtCsewJmtgcsYNl_16payjoin_mailroom2db5filesNtB5_9Mailboxes7post_v2
FNDA:0,_RNvMs2_NtNtCsewJmtgcsYNl_16payjoin_mailroom2db5filesNtB5_9Mailboxes7wait_v2
FNDA:0,_RNvMs_NtNtCsewJmtgcsYNl_16payjoin_mailroom2db5filesNtB4_9Mailboxes4init
FNDA:0,_RNvXs1_NtNtCsewJmtgcsYNl_16payjoin_mailroom2db5filesNtB5_7FilesDbNtB7_2Db15post_v2_payload
FNDA:0,_RNvXs1_NtNtCsewJmtgcsYNl_16payjoin_mailroom2db5filesNtB5_7FilesDbNtB7_2Db16post_v1_response
FNDA:0,_RNvXs1_NtNtCsewJmtgcsYNl_16payjoin_mailroom2db5filesNtB5_7FilesDbNtB7_2Db19wait_for_v2_payload
FNDA:0,_RNvXs1_NtNtCsewJmtgcsYNl_16payjoin_mailroom2db5filesNtB5_7FilesDbNtB7_2Db37post_v1_request_and_wait_for_response
FNDA:0,_RNvXs3_NtNtCsewJmtgcsYNl_16payjoin_mailroom2db5filesNtB5_5ErrorINtNtCs2hl1TO11rA7_4core7convert4FromNtNtNtCscqTumPH0Ix7_3std2io5error5ErrorE4from
FNDA:0,_RNvXs5_NtNtCsewJmtgcsYNl_16payjoin_mailroom2db5filesNtB5_5ErrorNtNtCs2hl1TO11rA7_4core5error5Error6source
FNDA:0,_RNvXs6_NtNtCsewJmtgcsYNl_16payjoin_mailroom2db5filesNtB5_5ErrorNtNtCs2hl1TO11rA7_4core3fmt7Display3fmt
FNDA:0,_RNCNvMs0_NtNtCsk7yOOz582FI_16payjoin_mailroom2db5filesNtB7_7FilesDb5prune0Bb_
FNDA:0,_RNvXs4_NtNtCsk7yOOz582FI_16payjoin_mailroom2db5filesINtB7_5ErrorNtNtNtCscqTumPH0Ix7_3std2io5error5ErrorEINtNtCs2hl1TO11rA7_4core7convert4FromNtB5_5ErrorE4from
FNDA:24,_RNvMNtNtCsk7yOOz582FI_16payjoin_mailroom2db5filesNtB2_11DiskStorage10xor_buffer
FNDA:12,_RNvMNtNtCsk7yOOz582FI_16payjoin_mailroom2db5filesNtB2_11DiskStorage12contains_key
FNDA:23,_RNvMNtNtCsk7yOOz582FI_16payjoin_mailroom2db5filesNtB2_11DiskStorage12insert_order
FNDA:42,_RNvMNtNtCsk7yOOz582FI_16payjoin_mailroom2db5filesNtB2_11DiskStorage12mailbox_path
FNDA:12,_RNvMNtNtCsk7yOOz582FI_16payjoin_mailroom2db5filesNtB2_11DiskStorage19insert_mailbox_path
FNDA:18,_RNvMNtNtCsk7yOOz582FI_16payjoin_mailroom2db5filesNtB2_11DiskStorage3get
FNDA:23,_RNvMNtNtCsk7yOOz582FI_16payjoin_mailroom2db5filesNtB2_11DiskStorage4init
FNDA:0,_RNvMNtNtCsk7yOOz582FI_16payjoin_mailroom2db5filesNtB2_11DiskStorage6remove
FNDA:23,_RNvMs0_NtNtCsk7yOOz582FI_16payjoin_mailroom2db5filesNtB5_7FilesDb22spawn_background_prune
FNDA:23,_RNvMs0_NtNtCsk7yOOz582FI_16payjoin_mailroom2db5filesNtB5_7FilesDb4init
FNDA:0,_RNvMs0_NtNtCsk7yOOz582FI_16payjoin_mailroom2db5filesNtB5_7FilesDb5prune
FNDA:40,_RNvMs2_NtNtCsk7yOOz582FI_16payjoin_mailroom2db5filesNtB5_9Mailboxes10next_prune
FNDA:20,_RNvMs2_NtNtCsk7yOOz582FI_16payjoin_mailroom2db5filesNtB5_9Mailboxes11maybe_prune
FNDA:1,_RNvMs2_NtNtCsk7yOOz582FI_16payjoin_mailroom2db5filesNtB5_9Mailboxes11post_v1_res
FNDA:20,_RNvMs2_NtNtCsk7yOOz582FI_16payjoin_mailroom2db5filesNtB5_9Mailboxes12has_capacity
FNDA:2,_RNvMs2_NtNtCsk7yOOz582FI_16payjoin_mailroom2db5filesNtB5_9Mailboxes20post_v1_req_and_wait
FNDA:6,_RNvMs2_NtNtCsk7yOOz582FI_16payjoin_mailroom2db5filesNtB5_9Mailboxes24maybe_cleanup_v2_waitmap
FNDA:20,_RNvMs2_NtNtCsk7yOOz582FI_16payjoin_mailroom2db5filesNtB5_9Mailboxes3len
FNDA:19,_RNvMs2_NtNtCsk7yOOz582FI_16payjoin_mailroom2db5filesNtB5_9Mailboxes4read
FNDA:40,_RNvMs2_NtNtCsk7yOOz582FI_16payjoin_mailroom2db5filesNtB5_9Mailboxes5prune
FNDA:0,_RNvMs2_NtNtCsk7yOOz582FI_16payjoin_mailroom2db5filesNtB5_9Mailboxes6remove
FNDA:12,_RNvMs2_NtNtCsk7yOOz582FI_16payjoin_mailroom2db5filesNtB5_9Mailboxes7post_v2
FNDA:6,_RNvMs2_NtNtCsk7yOOz582FI_16payjoin_mailroom2db5filesNtB5_9Mailboxes7wait_v2
FNDA:23,_RNvMs_NtNtCsk7yOOz582FI_16payjoin_mailroom2db5filesNtB4_9Mailboxes4init
FNDA:12,_RNvXs1_NtNtCsk7yOOz582FI_16payjoin_mailroom2db5filesNtB5_7FilesDbNtB7_2Db15post_v2_payload
FNDA:1,_RNvXs1_NtNtCsk7yOOz582FI_16payjoin_mailroom2db5filesNtB5_7FilesDbNtB7_2Db16post_v1_response
FNDA:19,_RNvXs1_NtNtCsk7yOOz582FI_16payjoin_mailroom2db5filesNtB5_7FilesDbNtB7_2Db19wait_for_v2_payload
FNDA:2,_RNvXs1_NtNtCsk7yOOz582FI_16payjoin_mailroom2db5filesNtB5_7FilesDbNtB7_2Db37post_v1_request_and_wait_for_response
FNDA:0,_RNvXs3_NtNtCsk7yOOz582FI_16payjoin_mailroom2db5filesNtB5_5ErrorINtNtCs2hl1TO11rA7_4core7convert4FromNtNtNtCscqTumPH0Ix7_3std2io5error5ErrorE4from
FNDA:0,_RNvXs5_NtNtCsk7yOOz582FI_16payjoin_mailroom2db5filesNtB5_5ErrorNtNtCs2hl1TO11rA7_4core5error5Error6source
FNDA:0,_RNvXs6_NtNtCsk7yOOz582FI_16payjoin_mailroom2db5filesNtB5_5ErrorNtNtCs2hl1TO11rA7_4core3fmt7Display3fmt
FNDA:12,_RINvMNtNtCsk7yOOz582FI_16payjoin_mailroom2db5filesNtB3_11DiskStorage10try_insertRINtNtCs3JibHiv1CSv_5alloc3vec3VechEEB7_
FNDA:12,_RNCINvMNtNtCsk7yOOz582FI_16payjoin_mailroom2db5filesNtB5_11DiskStorage10try_insertRINtNtCs3JibHiv1CSv_5alloc3vec3VechEE0B9_
FNDA:20,_RNCNCNvMs0_NtNtCsk7yOOz582FI_16payjoin_mailroom2db5filesNtB9_7FilesDb22spawn_background_prune00Bd_
FNDA:2,_RNCNCNvMs2_NtNtCsk7yOOz582FI_16payjoin_mailroom2db5filesNtB9_9Mailboxes20post_v1_req_and_wait00Bd_
FNDA:0,_RNCNCNvMs2_NtNtCsk7yOOz582FI_16payjoin_mailroom2db5filesNtB9_9Mailboxes5prune00Bd_
FNDA:0,_RNCNCNvMs2_NtNtCsk7yOOz582FI_16payjoin_mailroom2db5filesNtB9_9Mailboxes5prune0s0_0Bd_
FNDA:6,_RNCNCNvMs2_NtNtCsk7yOOz582FI_16payjoin_mailroom2db5filesNtB9_9Mailboxes7wait_v200Bd_
FNDA:12,_RNCNvMNtNtCsk7yOOz582FI_16payjoin_mailroom2db5filesNtB4_11DiskStorage12contains_key0B8_
FNDA:23,_RNCNvMNtNtCsk7yOOz582FI_16payjoin_mailroom2db5filesNtB4_11DiskStorage12insert_order0B8_
FNDA:18,_RNCNvMNtNtCsk7yOOz582FI_16payjoin_mailroom2db5filesNtB4_11DiskStorage3get0B8_
FNDA:23,_RNCNvMNtNtCsk7yOOz582FI_16payjoin_mailroom2db5filesNtB4_11DiskStorage4init0B8_
FNDA:0,_RNCNvMNtNtCsk7yOOz582FI_16payjoin_mailroom2db5filesNtB4_11DiskStorage6remove0B8_
FNDA:23,_RNCNvMs0_NtNtCsk7yOOz582FI_16payjoin_mailroom2db5filesNtB7_7FilesDb22spawn_background_prune0Bb_
FNDA:23,_RNCNvMs0_NtNtCsk7yOOz582FI_16payjoin_mailroom2db5filesNtB7_7FilesDb4init0Bb_
FNDA:7,_RNCNvMs2_NtNtCsk7yOOz582FI_16payjoin_mailroom2db5filesNtB7_9Mailboxes10next_prune0Bb_
FNDA:20,_RNCNvMs2_NtNtCsk7yOOz582FI_16payjoin_mailroom2db5filesNtB7_9Mailboxes11maybe_prune0Bb_
FNDA:1,_RNCNvMs2_NtNtCsk7yOOz582FI_16payjoin_mailroom2db5filesNtB7_9Mailboxes11post_v1_res0Bb_
FNDA:20,_RNCNvMs2_NtNtCsk7yOOz582FI_16payjoin_mailroom2db5filesNtB7_9Mailboxes12has_capacity0Bb_
FNDA:2,_RNCNvMs2_NtNtCsk7yOOz582FI_16payjoin_mailroom2db5filesNtB7_9Mailboxes20post_v1_req_and_wait0Bb_
FNDA:19,_RNCNvMs2_NtNtCsk7yOOz582FI_16payjoin_mailroom2db5filesNtB7_9Mailboxes4read0Bb_
FNDA:40,_RNCNvMs2_NtNtCsk7yOOz582FI_16payjoin_mailroom2db5filesNtB7_9Mailboxes5prune0Bb_
FNDA:0,_RNCNvMs2_NtNtCsk7yOOz582FI_16payjoin_mailroom2db5filesNtB7_9Mailboxes6remove0Bb_
FNDA:12,_RNCNvMs2_NtNtCsk7yOOz582FI_16payjoin_mailroom2db5filesNtB7_9Mailboxes7post_v20Bb_
FNDA:6,_RNCNvMs2_NtNtCsk7yOOz582FI_16payjoin_mailroom2db5filesNtB7_9Mailboxes7wait_v20Bb_
FNDA:23,_RNCNvMs_NtNtCsk7yOOz582FI_16payjoin_mailroom2db5filesNtB6_9Mailboxes4init0Ba_
FNDA:12,_RNCNvXs1_NtNtCsk7yOOz582FI_16payjoin_mailroom2db5filesNtB7_7FilesDbNtB9_2Db15post_v2_payload0Bb_
FNDA:1,_RNCNvXs1_NtNtCsk7yOOz582FI_16payjoin_mailroom2db5filesNtB7_7FilesDbNtB9_2Db16post_v1_response0Bb_
FNDA:19,_RNCNvXs1_NtNtCsk7yOOz582FI_16payjoin_mailroom2db5filesNtB7_7FilesDbNtB9_2Db19wait_for_v2_payload0Bb_
FNDA:2,_RNCNvXs1_NtNtCsk7yOOz582FI_16payjoin_mailroom2db5filesNtB7_7FilesDbNtB9_2Db37post_v1_request_and_wait_for_response0Bb_
FNDA:0,_RNvXs5_NtNtCs8YpBKXcegdX_16payjoin_mailroom2db5filesNtB5_5ErrorNtNtCs2hl1TO11rA7_4core5error5Error6source
FNDA:0,_RNvXs6_NtNtCs8YpBKXcegdX_16payjoin_mailroom2db5filesNtB5_5ErrorNtNtCs2hl1TO11rA7_4core3fmt7Display3fmt
FNDA:18,_RNvMNtNtCs8YpBKXcegdX_16payjoin_mailroom2db5filesNtB2_11DiskStorage10xor_buffer
FNDA:15,_RNvMNtNtCs8YpBKXcegdX_16payjoin_mailroom2db5filesNtB2_11DiskStorage12contains_key
FNDA:22,_RNvMNtNtCs8YpBKXcegdX_16payjoin_mailroom2db5filesNtB2_11DiskStorage12insert_order
FNDA:52,_RNvMNtNtCs8YpBKXcegdX_16payjoin_mailroom2db5filesNtB2_11DiskStorage12mailbox_path
FNDA:9,_RNvMNtNtCs8YpBKXcegdX_16payjoin_mailroom2db5filesNtB2_11DiskStorage19insert_mailbox_path
FNDA:21,_RNvMNtNtCs8YpBKXcegdX_16payjoin_mailroom2db5filesNtB2_11DiskStorage3get
FNDA:23,_RNvMNtNtCs8YpBKXcegdX_16payjoin_mailroom2db5filesNtB2_11DiskStorage4init
FNDA:3,_RNvMNtNtCs8YpBKXcegdX_16payjoin_mailroom2db5filesNtB2_11DiskStorage6remove
FNDA:5,_RNvMs0_NtNtCs8YpBKXcegdX_16payjoin_mailroom2db5filesNtB5_7FilesDb22spawn_background_prune
FNDA:20,_RNvMs0_NtNtCs8YpBKXcegdX_16payjoin_mailroom2db5filesNtB5_7FilesDb4init
FNDA:5,_RNvMs0_NtNtCs8YpBKXcegdX_16payjoin_mailroom2db5filesNtB5_7FilesDb5prune
FNDA:39,_RNvMs2_NtNtCs8YpBKXcegdX_16payjoin_mailroom2db5filesNtB5_9Mailboxes10next_prune
FNDA:31,_RNvMs2_NtNtCs8YpBKXcegdX_16payjoin_mailroom2db5filesNtB5_9Mailboxes11maybe_prune
FNDA:3,_RNvMs2_NtNtCs8YpBKXcegdX_16payjoin_mailroom2db5filesNtB5_9Mailboxes11post_v1_res
FNDA:31,_RNvMs2_NtNtCs8YpBKXcegdX_16payjoin_mailroom2db5filesNtB5_9Mailboxes12has_capacity
FNDA:10,_RNvMs2_NtNtCs8YpBKXcegdX_16payjoin_mailroom2db5filesNtB5_9Mailboxes20post_v1_req_and_wait
FNDA:3,_RNvMs2_NtNtCs8YpBKXcegdX_16payjoin_mailroom2db5filesNtB5_9Mailboxes24maybe_cleanup_v2_waitmap
FNDA:44,_RNvMs2_NtNtCs8YpBKXcegdX_16payjoin_mailroom2db5filesNtB5_9Mailboxes3len
FNDA:15,_RNvMs2_NtNtCs8YpBKXcegdX_16payjoin_mailroom2db5filesNtB5_9Mailboxes4read
FNDA:39,_RNvMs2_NtNtCs8YpBKXcegdX_16payjoin_mailroom2db5filesNtB5_9Mailboxes5prune
FNDA:1,_RNvMs2_NtNtCs8YpBKXcegdX_16payjoin_mailroom2db5filesNtB5_9Mailboxes6remove
FNDA:11,_RNvMs2_NtNtCs8YpBKXcegdX_16payjoin_mailroom2db5filesNtB5_9Mailboxes7post_v2
FNDA:10,_RNvMs2_NtNtCs8YpBKXcegdX_16payjoin_mailroom2db5filesNtB5_9Mailboxes7wait_v2
FNDA:20,_RNvMs_NtNtCs8YpBKXcegdX_16payjoin_mailroom2db5filesNtB4_9Mailboxes4init
FNDA:11,_RNvXs1_NtNtCs8YpBKXcegdX_16payjoin_mailroom2db5filesNtB5_7FilesDbNtB7_2Db15post_v2_payload
FNDA:3,_RNvXs1_NtNtCs8YpBKXcegdX_16payjoin_mailroom2db5filesNtB5_7FilesDbNtB7_2Db16post_v1_response
FNDA:15,_RNvXs1_NtNtCs8YpBKXcegdX_16payjoin_mailroom2db5filesNtB5_7FilesDbNtB7_2Db19wait_for_v2_payload
FNDA:10,_RNvXs1_NtNtCs8YpBKXcegdX_16payjoin_mailroom2db5filesNtB5_7FilesDbNtB7_2Db37post_v1_request_and_wait_for_response
FNDA:0,_RNvXs3_NtNtCs8YpBKXcegdX_16payjoin_mailroom2db5filesNtB5_5ErrorINtNtCs2hl1TO11rA7_4core7convert4FromNtNtNtCscqTumPH0Ix7_3std2io5error5ErrorE4from
FNDA:11,_RNvXs4_NtNtCs8YpBKXcegdX_16payjoin_mailroom2db5filesINtB7_5ErrorNtNtNtCscqTumPH0Ix7_3std2io5error5ErrorEINtNtCs2hl1TO11rA7_4core7convert4FromNtB5_5ErrorE4from
FNDA:2,_RINvMNtNtCs8YpBKXcegdX_16payjoin_mailroom2db5filesNtB3_11DiskStorage10try_insertRAhj6_EB7_
FNDA:2,_RINvMNtNtCs8YpBKXcegdX_16payjoin_mailroom2db5filesNtB3_11DiskStorage10try_insertRAhj7_EB7_
FNDA:8,_RINvMNtNtCs8YpBKXcegdX_16payjoin_mailroom2db5filesNtB3_11DiskStorage10try_insertRINtNtCs3JibHiv1CSv_5alloc3vec3VechEEB7_
FNDA:2,_RNCINvMNtNtCs8YpBKXcegdX_16payjoin_mailroom2db5filesNtB5_11DiskStorage10try_insertRAhj6_E0B9_
FNDA:2,_RNCINvMNtNtCs8YpBKXcegdX_16payjoin_mailroom2db5filesNtB5_11DiskStorage10try_insertRAhj7_E0B9_
FNDA:8,_RNCINvMNtNtCs8YpBKXcegdX_16payjoin_mailroom2db5filesNtB5_11DiskStorage10try_insertRINtNtCs3JibHiv1CSv_5alloc3vec3VechEE0B9_
FNDA:3,_RNCNCNvMs0_NtNtCs8YpBKXcegdX_16payjoin_mailroom2db5filesNtB9_7FilesDb22spawn_background_prune00Bd_
FNDA:6,_RNCNCNvMs2_NtNtCs8YpBKXcegdX_16payjoin_mailroom2db5filesNtB9_9Mailboxes20post_v1_req_and_wait00Bd_
FNDA:13,_RNCNCNvMs2_NtNtCs8YpBKXcegdX_16payjoin_mailroom2db5filesNtB9_9Mailboxes5prune00Bd_
FNDA:14,_RNCNCNvMs2_NtNtCs8YpBKXcegdX_16payjoin_mailroom2db5filesNtB9_9Mailboxes5prune0s0_0Bd_
FNDA:6,_RNCNCNvMs2_NtNtCs8YpBKXcegdX_16payjoin_mailroom2db5filesNtB9_9Mailboxes7wait_v200Bd_
FNDA:15,_RNCNvMNtNtCs8YpBKXcegdX_16payjoin_mailroom2db5filesNtB4_11DiskStorage12contains_key0B8_
FNDA:22,_RNCNvMNtNtCs8YpBKXcegdX_16payjoin_mailroom2db5filesNtB4_11DiskStorage12insert_order0B8_
FNDA:21,_RNCNvMNtNtCs8YpBKXcegdX_16payjoin_mailroom2db5filesNtB4_11DiskStorage3get0B8_
FNDA:23,_RNCNvMNtNtCs8YpBKXcegdX_16payjoin_mailroom2db5filesNtB4_11DiskStorage4init0B8_
FNDA:3,_RNCNvMNtNtCs8YpBKXcegdX_16payjoin_mailroom2db5filesNtB4_11DiskStorage6remove0B8_
FNDA:5,_RNCNvMs0_NtNtCs8YpBKXcegdX_16payjoin_mailroom2db5filesNtB7_7FilesDb22spawn_background_prune0Bb_
FNDA:20,_RNCNvMs0_NtNtCs8YpBKXcegdX_16payjoin_mailroom2db5filesNtB7_7FilesDb4init0Bb_
FNDA:5,_RNCNvMs0_NtNtCs8YpBKXcegdX_16payjoin_mailroom2db5filesNtB7_7FilesDb5prune0Bb_
FNDA:7,_RNCNvMs2_NtNtCs8YpBKXcegdX_16payjoin_mailroom2db5filesNtB7_9Mailboxes10next_prune0Bb_
FNDA:31,_RNCNvMs2_NtNtCs8YpBKXcegdX_16payjoin_mailroom2db5filesNtB7_9Mailboxes11maybe_prune0Bb_
FNDA:3,_RNCNvMs2_NtNtCs8YpBKXcegdX_16payjoin_mailroom2db5filesNtB7_9Mailboxes11post_v1_res0Bb_
FNDA:31,_RNCNvMs2_NtNtCs8YpBKXcegdX_16payjoin_mailroom2db5filesNtB7_9Mailboxes12has_capacity0Bb_
FNDA:10,_RNCNvMs2_NtNtCs8YpBKXcegdX_16payjoin_mailroom2db5filesNtB7_9Mailboxes20post_v1_req_and_wait0Bb_
FNDA:15,_RNCNvMs2_NtNtCs8YpBKXcegdX_16payjoin_mailroom2db5filesNtB7_9Mailboxes4read0Bb_
FNDA:39,_RNCNvMs2_NtNtCs8YpBKXcegdX_16payjoin_mailroom2db5filesNtB7_9Mailboxes5prune0Bb_
FNDA:1,_RNCNvMs2_NtNtCs8YpBKXcegdX_16payjoin_mailroom2db5filesNtB7_9Mailboxes6remove0Bb_
FNDA:11,_RNCNvMs2_NtNtCs8YpBKXcegdX_16payjoin_mailroom2db5filesNtB7_9Mailboxes7post_v20Bb_
FNDA:10,_RNCNvMs2_NtNtCs8YpBKXcegdX_16payjoin_mailroom2db5filesNtB7_9Mailboxes7wait_v20Bb_
FNDA:20,_RNCNvMs_NtNtCs8YpBKXcegdX_16payjoin_mailroom2db5filesNtB6_9Mailboxes4init0Ba_
FNDA:11,_RNCNvXs1_NtNtCs8YpBKXcegdX_16payjoin_mailroom2db5filesNtB7_7FilesDbNtB9_2Db15post_v2_payload0Bb_
FNDA:3,_RNCNvXs1_NtNtCs8YpBKXcegdX_16payjoin_mailroom2db5filesNtB7_7FilesDbNtB9_2Db16post_v1_response0Bb_
FNDA:15,_RNCNvXs1_NtNtCs8YpBKXcegdX_16payjoin_mailroom2db5filesNtB7_7FilesDbNtB9_2Db19wait_for_v2_payload0Bb_
FNDA:10,_RNCNvXs1_NtNtCs8YpBKXcegdX_16payjoin_mailroom2db5filesNtB7_7FilesDbNtB9_2Db37post_v1_request_and_wait_for_response0Bb_
FNDA:3,_RNvNtNtNtCs8YpBKXcegdX_16payjoin_mailroom2db5files5tests30assert_all_paths_over_capacity
FNDA:1,_RNvNtNtNtCs8YpBKXcegdX_16payjoin_mailroom2db5files5testss_10test_prune
FNDA:1,_RNvNtNtNtCs8YpBKXcegdX_16payjoin_mailroom2db5files5testss_12test_v1_wait
FNDA:1,_RNvNtNtNtCs8YpBKXcegdX_16payjoin_mailroom2db5files5testss_12test_v2_wait
FNDA:1,_RNvNtNtNtCs8YpBKXcegdX_16payjoin_mailroom2db5files5testss_20test_mailbox_storage
FNDA:1,_RNvNtNtNtCs8YpBKXcegdX_16payjoin_mailroom2db5files5testss_21test_capacity_post_v2
FNDA:1,_RNvNtNtNtCs8YpBKXcegdX_16payjoin_mailroom2db5files5testss_21test_capacity_wait_v2
FNDA:1,_RNvNtNtNtCs8YpBKXcegdX_16payjoin_mailroom2db5files5testss_25test_v1_data_minimization
FNDA:1,_RNvNtNtNtCs8YpBKXcegdX_16payjoin_mailroom2db5files5testss_27test_disk_storage_mailboxes
FNDA:1,_RNvNtNtNtCs8YpBKXcegdX_16payjoin_mailroom2db5files5testss_32test_disk_storage_initialization
FNDA:1,_RNvNtNtNtCs8YpBKXcegdX_16payjoin_mailroom2db5files5testss_34test_capacity_post_v1_req_and_wait
FNDA:1,_RNCNCNvNtNtNtCs8YpBKXcegdX_16payjoin_mailroom2db5files5testss_10test_prune00Bb_
FNDA:1,_RNCNCNvNtNtNtCs8YpBKXcegdX_16payjoin_mailroom2db5files5testss_12test_v1_wait00Bb_
FNDA:1,_RNCNCNvNtNtNtCs8YpBKXcegdX_16payjoin_mailroom2db5files5testss_12test_v2_wait00Bb_
FNDA:1,_RNCNCNvNtNtNtCs8YpBKXcegdX_16payjoin_mailroom2db5files5testss_12test_v2_wait0s_0Bb_
FNDA:3,_RNCNCNvNtNtNtCs8YpBKXcegdX_16payjoin_mailroom2db5files5testss_21test_capacity_wait_v200Bb_
FNDA:1,_RNCNCNvNtNtNtCs8YpBKXcegdX_16payjoin_mailroom2db5files5testss_25test_v1_data_minimization00Bb_
FNDA:1,_RNCNCNvNtNtNtCs8YpBKXcegdX_16payjoin_mailroom2db5files5testss_25test_v1_data_minimization0s_0Bb_
FNDA:3,_RNCNCNvNtNtNtCs8YpBKXcegdX_16payjoin_mailroom2db5files5testss_34test_capacity_post_v1_req_and_wait00Bb_
FNDA:3,_RNCNvNtNtNtCs8YpBKXcegdX_16payjoin_mailroom2db5files5tests30assert_all_paths_over_capacity0B9_
FNDA:1,_RNCNvNtNtNtCs8YpBKXcegdX_16payjoin_mailroom2db5files5testss_10test_prune0B9_
FNDA:1,_RNCNvNtNtNtCs8YpBKXcegdX_16payjoin_mailroom2db5files5testss_12test_v1_wait0B9_
FNDA:1,_RNCNvNtNtNtCs8YpBKXcegdX_16payjoin_mailroom2db5files5testss_12test_v2_wait0B9_
FNDA:1,_RNCNvNtNtNtCs8YpBKXcegdX_16payjoin_mailroom2db5files5testss_20test_mailbox_storage0B9_
FNDA:1,_RNCNvNtNtNtCs8YpBKXcegdX_16payjoin_mailroom2db5files5testss_21test_capacity_post_v20B9_
FNDA:1,_RNCNvNtNtNtCs8YpBKXcegdX_16payjoin_mailroom2db5files5testss_21test_capacity_wait_v20B9_
FNDA:1,_RNCNvNtNtNtCs8YpBKXcegdX_16payjoin_mailroom2db5files5testss_25test_v1_data_minimization0B9_
FNDA:1,_RNCNvNtNtNtCs8YpBKXcegdX_16payjoin_mailroom2db5files5testss_27test_disk_storage_mailboxes0B9_
FNDA:1,_RNCNvNtNtNtCs8YpBKXcegdX_16payjoin_mailroom2db5files5testss_32test_disk_storage_initialization0B9_
FNDA:1,_RNCNvNtNtNtCs8YpBKXcegdX_16payjoin_mailroom2db5files5testss_34test_capacity_post_v1_req_and_wait0B9_
FNF:92
FNH:89
DA:55,46
DA:56,46
DA:57,46
DA:59,1
DA:60,45
DA:61,46
DA:66,46
DA:67,46
DA:68,1
DA:70,45
DA:71,45
DA:72,45
DA:73,45
DA:76,46
DA:77,46
DA:79,94
DA:81,21
DA:82,21
DA:83,21
DA:85,27
DA:86,27
DA:87,27
DA:89,39
DA:91,39
DA:92,20
DA:93,19
DA:94,0
DA:97,20
DA:99,20
DA:100,20
DA:101,20
DA:103,20
DA:104,39
DA:106,24
DA:107,24
DA:108,24
DA:109,24
DA:110,24
DA:111,24
DA:117,24
DA:120,3
DA:121,3
DA:122,1
DA:123,2
DA:124,0
DA:126,2
DA:127,21
DA:131,21
DA:132,21
DA:135,21
DA:136,21
DA:137,21
DA:138,21
DA:142,21
DA:143,21
DA:146,0
DA:147,21
DA:148,0
DA:149,0
DA:151,24
DA:153,42
DA:154,172163
DA:155,172163
DA:156,172163
DA:157,42
DA:159,3
DA:160,3
DA:161,1
DA:162,2
DA:163,0
DA:165,3
DA:168,45
DA:171,45
DA:173,45
DA:174,138
DA:175,93
DA:176,93
DA:177,3
DA:178,3
DA:179,90
DA:180,0
DA:183,45
DA:185,45
DA:186,45
DA:190,43
DA:191,43
DA:192,43
DA:193,43
DA:194,43
DA:195,43
DA:196,43
DA:197,43
DA:198,43
DA:199,43
DA:200,43
DA:201,43
DA:211,43
DA:212,43
DA:213,43
DA:215,5
DA:217,28
DA:218,28
DA:219,28
DA:222,23
DA:223,23
DA:224,23
DA:227,28
DA:232,23
DA:233,23
DA:234,23
DA:235,23
DA:236,23
DA:237,23
DA:238,23
DA:239,23
DA:241,34
DA:242,34
DA:243,34
DA:244,34
DA:245,12
DA:246,34
DA:248,34
DA:249,18
DA:251,16
DA:255,12
DA:256,1
DA:257,8
DA:260,9
DA:262,9
DA:263,31
DA:265,12
DA:266,12
DA:267,12
DA:268,12
DA:269,12
DA:270,8
DA:271,12
DA:272,12
DA:273,12
DA:274,12
DA:275,12
DA:276,9
DA:279,8
DA:281,8
DA:282,3
DA:283,2
DA:289,5
DA:291,5
DA:292,9
DA:294,4
DA:295,4
DA:296,4
DA:297,4
DA:298,4
DA:299,4
DA:300,4
DA:301,4
DA:310,34
DA:314,34
DA:315,3
DA:316,2
DA:317,1
DA:318,31
DA:321,32
DA:322,16
DA:323,16
DA:325,16
DA:326,34
DA:328,51
DA:329,51
DA:330,51
DA:331,51
DA:333,16
DA:334,16
DA:335,16
DA:336,16
DA:337,16
DA:338,3
DA:339,13
DA:341,13
DA:342,1
DA:343,0
DA:344,1
DA:345,1
DA:346,12
DA:348,12
DA:349,12
DA:350,12
DA:351,12
DA:352,12
DA:353,12
DA:354,12
DA:355,12
DA:357,12
DA:359,12
DA:360,16
DA:362,9
DA:363,9
DA:364,8
DA:365,8
DA:366,8
DA:367,1
DA:368,9
DA:370,23
DA:371,23
DA:372,3
DA:373,20
DA:375,20
DA:376,1
DA:379,19
DA:382,19
DA:383,0
DA:385,0
DA:386,0
DA:387,0
DA:388,0
DA:389,19
DA:391,19
DA:392,23
DA:394,12
DA:395,12
DA:396,12
DA:397,12
DA:398,12
DA:401,12
DA:402,3
DA:403,9
DA:405,9
DA:406,9
DA:409,9
DA:410,8
DA:411,8
DA:412,8
DA:413,8
DA:414,8
DA:418,9
DA:419,1
DA:420,1
DA:421,1
DA:422,1
DA:423,1
DA:424,8
DA:426,9
DA:427,12
DA:429,1
DA:430,1
DA:431,1
DA:433,4
DA:434,4
DA:435,1
DA:436,3
DA:437,3
DA:439,4
DA:441,64
DA:442,64
DA:443,64
DA:445,51
DA:448,51
DA:449,51
DA:458,79
DA:459,79
DA:460,79
DA:462,79
DA:465,79
DA:468,80
DA:469,15
DA:470,1
DA:471,1
DA:472,0
DA:474,1
DA:477,14
DA:481,79
DA:482,79
DA:484,79
DA:485,79
DA:486,79
DA:487,79
DA:488,14
DA:489,14
DA:490,14
DA:491,14
DA:492,79
DA:493,79
DA:511,0
DA:516,11
DA:517,11
DA:518,1
DA:519,9
DA:520,1
DA:521,0
DA:523,11
DA:527,0
DA:528,0
DA:529,0
DA:530,0
DA:532,0
DA:536,0
DA:538,0
DA:539,0
DA:540,0
DA:541,0
DA:542,0
DA:544,0
DA:561,1
DA:562,1
DA:563,1
DA:564,1
DA:568,1
DA:569,1
DA:570,1
DA:571,1
DA:573,1
DA:574,1
DA:575,1
DA:579,1
DA:581,1
DA:584,1
DA:585,1
DA:588,1
DA:589,1
DA:590,1
DA:592,1
DA:593,1
DA:597,1
DA:599,2
DA:600,1
DA:603,1
DA:604,1
DA:606,1
DA:607,1
DA:608,1
DA:610,1
DA:611,1
DA:613,1
DA:614,1
DA:615,1
DA:616,1
DA:617,1
DA:618,1
DA:619,1
DA:620,1
DA:621,1
DA:622,1
DA:624,1
DA:625,1
DA:627,1
DA:628,1
DA:629,1
DA:630,1
DA:631,1
DA:633,1
DA:634,1
DA:635,1
DA:636,1
DA:638,0
DA:639,0
DA:640,0
DA:643,1
DA:645,1
DA:646,1
DA:647,1
DA:648,1
DA:649,1
DA:650,1
DA:654,1
DA:655,1
DA:656,1
DA:660,1
DA:662,1
DA:663,1
DA:664,1
DA:665,1
DA:666,1
DA:668,1
DA:670,1
DA:671,1
DA:672,1
DA:676,1
DA:677,1
DA:679,1
DA:680,1
DA:682,1
DA:683,1
DA:685,1
DA:686,1
DA:687,1
DA:690,1
DA:692,1
DA:693,1
DA:694,1
DA:698,2
DA:699,1
DA:702,1
DA:703,1
DA:705,1
DA:706,1
DA:707,1
DA:708,1
DA:709,1
DA:710,1
DA:711,1
DA:713,1
DA:714,1
DA:715,1
DA:716,1
DA:717,1
DA:718,1
DA:720,1
DA:721,1
DA:723,2
DA:724,1
DA:727,1
DA:728,1
DA:730,1
DA:731,1
DA:732,1
DA:733,1
DA:734,1
DA:735,1
DA:736,1
DA:738,1
DA:739,1
DA:741,1
DA:742,1
DA:743,0
DA:746,1
DA:747,1
DA:748,1
DA:750,1
DA:751,1
DA:752,1
DA:755,1
DA:756,1
DA:757,1
DA:758,1
DA:760,1
DA:761,1
DA:762,1
DA:763,1
DA:764,1
DA:766,1
DA:767,1
DA:768,1
DA:769,1
DA:770,1
DA:772,1
DA:773,1
DA:774,1
DA:775,1
DA:776,1
DA:780,1
DA:781,1
DA:783,2
DA:784,1
DA:787,1
DA:788,1
DA:790,1
DA:791,1
DA:792,1
DA:793,1
DA:794,1
DA:795,1
DA:796,1
DA:797,1
DA:800,1
DA:802,1
DA:803,1
DA:804,1
DA:807,1
DA:808,1
DA:810,1
DA:811,0
DA:812,1
DA:818,1
DA:819,1
DA:820,1
DA:822,1
DA:823,1
DA:824,1
DA:825,1
DA:826,1
DA:828,1
DA:829,0
DA:830,1
DA:836,2
DA:837,1
DA:840,1
DA:841,1
DA:843,1
DA:844,1
DA:845,1
DA:846,1
DA:847,1
DA:848,1
DA:849,1
DA:850,1
DA:853,1
DA:856,1
DA:857,1
DA:858,1
DA:862,1
DA:865,1
DA:866,1
DA:869,1
DA:870,1
DA:876,1
DA:877,1
DA:878,1
DA:879,1
DA:885,1
DA:886,1
DA:887,1
DA:889,1
DA:890,1
DA:891,1
DA:892,1
DA:893,1
DA:895,2
DA:896,1
DA:902,1
DA:903,1
DA:905,1
DA:906,1
DA:907,1
DA:908,1
DA:909,1
DA:910,1
DA:911,1
DA:913,1
DA:916,1
DA:917,1
DA:918,1
DA:921,1
DA:922,1
DA:923,1
DA:925,1
DA:926,1
DA:929,1
DA:930,1
DA:931,1
DA:934,1
DA:935,1
DA:937,1
DA:938,1
DA:939,0
DA:942,1
DA:943,1
DA:946,1
DA:947,1
DA:948,1
DA:949,1
DA:951,1
DA:952,1
DA:953,1
DA:957,1
DA:958,1
DA:959,1
DA:960,1
DA:963,1
DA:964,1
DA:965,1
DA:968,1
DA:969,1
DA:971,2
DA:972,1
DA:974,3
DA:975,3
DA:977,3
DA:978,3
DA:982,3
DA:983,3
DA:987,3
DA:988,3
DA:991,1
DA:992,1
DA:994,1
DA:995,1
DA:996,1
DA:997,1
DA:998,1
DA:999,1
DA:1001,1
DA:1003,3
DA:1004,3
DA:1007,1
DA:1009,2
DA:1010,1
DA:1013,1
DA:1014,1
DA:1016,1
DA:1017,1
DA:1018,1
DA:1019,1
DA:1020,1
DA:1021,1
DA:1023,1
DA:1025,3
DA:1026,3
DA:1027,3
DA:1028,3
DA:1029,3
DA:1030,3
DA:1031,0
DA:1035,2
DA:1036,1
DA:1039,1
DA:1041,2
DA:1042,1
DA:1045,1
DA:1046,1
DA:1048,1
DA:1049,1
DA:1050,1
DA:1051,1
DA:1052,1
DA:1053,1
DA:1055,1
DA:1057,3
DA:1058,3
DA:1059,3
DA:1060,3
DA:1061,0
DA:1065,2
DA:1066,1
DA:1069,1
DA:1071,2
DA:1072,1
BRF:0
BRH:0
LF:680
LH:642
end_of_record
SF:/Users/bene/bitcoin/rust-payjoin/payjoin-mailroom/src/db/mod.rs
FN:131,_RNCNvXs4_NtCsewJmtgcsYNl_16payjoin_mailroom2dbNtB7_14FilesDbServiceINtCspbhVovv5hz_13tower_service7ServiceNtB7_9DbRequestE4call0B9_
FN:175,_RNCNvXs6_NtCsewJmtgcsYNl_16payjoin_mailroom2dbNtB7_16DbServiceAdapterNtB7_2Db15post_v2_payload0B9_
FN:206,_RNCNvXs6_NtCsewJmtgcsYNl_16payjoin_mailroom2dbNtB7_16DbServiceAdapterNtB7_2Db16post_v1_response0B9_
FN:190,_RNCNvXs6_NtCsewJmtgcsYNl_16payjoin_mailroom2dbNtB7_16DbServiceAdapterNtB7_2Db19wait_for_v2_payload0B9_
FN:222,_RNCNvXs6_NtCsewJmtgcsYNl_16payjoin_mailroom2dbNtB7_16DbServiceAdapterNtB7_2Db37post_v1_request_and_wait_for_response0B9_
FN:258,_RNCNvXs8_NtCsewJmtgcsYNl_16payjoin_mailroom2dbINtB7_9MetricsDbNtB7_16DbServiceAdapterENtB7_2Db15post_v2_payload0B9_
FN:277,_RNCNvXs8_NtCsewJmtgcsYNl_16payjoin_mailroom2dbINtB7_9MetricsDbNtB7_16DbServiceAdapterENtB7_2Db16post_v1_response0B9_
FN:269,_RNCNvXs8_NtCsewJmtgcsYNl_16payjoin_mailroom2dbINtB7_9MetricsDbNtB7_16DbServiceAdapterENtB7_2Db19wait_for_v2_payload0B9_
FN:285,_RNCNvXs8_NtCsewJmtgcsYNl_16payjoin_mailroom2dbINtB7_9MetricsDbNtB7_16DbServiceAdapterENtB7_2Db37post_v1_request_and_wait_for_response0B9_
FN:248,_RNvMs7_NtCsewJmtgcsYNl_16payjoin_mailroom2dbINtB5_9MetricsDbNtB5_16DbServiceAdapterE3newB7_
FN:31,_RNvXs0_NtCsewJmtgcsYNl_16payjoin_mailroom2dbINtB5_5ErrorNtNtNtCscqTumPH0Ix7_3std2io5error5ErrorEINtNtCs2hl1TO11rA7_4core7convert4FromBS_E4fromB7_
FN:35,_RNvXs1_NtCsewJmtgcsYNl_16payjoin_mailroom2dbINtB5_5ErrorNtNtNtCscqTumPH0Ix7_3std2io5error5ErrorENtNtCs2hl1TO11rA7_4core3fmt7Display3fmtB7_
FN:48,_RNvXs2_NtCsewJmtgcsYNl_16payjoin_mailroom2dbINtB5_5ErrorNtNtNtCscqTumPH0Ix7_3std2io5error5ErrorENtNtCs2hl1TO11rA7_4core5error5Error6sourceB7_
FN:254,_RNvXs8_NtCsewJmtgcsYNl_16payjoin_mailroom2dbINtB5_9MetricsDbNtB5_16DbServiceAdapterENtB5_2Db15post_v2_payloadB7_
FN:273,_RNvXs8_NtCsewJmtgcsYNl_16payjoin_mailroom2dbINtB5_9MetricsDbNtB5_16DbServiceAdapterENtB5_2Db16post_v1_responseB7_
FN:266,_RNvXs8_NtCsewJmtgcsYNl_16payjoin_mailroom2dbINtB5_9MetricsDbNtB5_16DbServiceAdapterENtB5_2Db19wait_for_v2_payloadB7_
FN:281,_RNvXs8_NtCsewJmtgcsYNl_16payjoin_mailroom2dbINtB5_9MetricsDbNtB5_16DbServiceAdapterENtB5_2Db37post_v1_request_and_wait_for_responseB7_
FN:112,_RNvMs3_NtCsewJmtgcsYNl_16payjoin_mailroom2dbNtB5_14FilesDbService3new
FN:161,_RNvMs5_NtCsewJmtgcsYNl_16payjoin_mailroom2dbNtB5_16DbServiceAdapter16invalid_response
FN:156,_RNvMs5_NtCsewJmtgcsYNl_16payjoin_mailroom2dbNtB5_16DbServiceAdapter3new
FN:122,_RNvXs4_NtCsewJmtgcsYNl_16payjoin_mailroom2dbNtB5_14FilesDbServiceINtCspbhVovv5hz_13tower_service7ServiceNtB5_9DbRequestE10poll_ready
FN:129,_RNvXs4_NtCsewJmtgcsYNl_16payjoin_mailroom2dbNtB5_14FilesDbServiceINtCspbhVovv5hz_13tower_service7ServiceNtB5_9DbRequestE4call
FN:171,_RNvXs6_NtCsewJmtgcsYNl_16payjoin_mailroom2dbNtB5_16DbServiceAdapterNtB5_2Db15post_v2_payload
FN:202,_RNvXs6_NtCsewJmtgcsYNl_16payjoin_mailroom2dbNtB5_16DbServiceAdapterNtB5_2Db16post_v1_response
FN:187,_RNvXs6_NtCsewJmtgcsYNl_16payjoin_mailroom2dbNtB5_16DbServiceAdapterNtB5_2Db19wait_for_v2_payload
FN:218,_RNvXs6_NtCsewJmtgcsYNl_16payjoin_mailroom2dbNtB5_16DbServiceAdapterNtB5_2Db37post_v1_request_and_wait_for_response
FN:131,_RNCNvXs4_NtCsk7yOOz582FI_16payjoin_mailroom2dbNtB7_14FilesDbServiceINtCspbhVovv5hz_13tower_service7ServiceNtB7_9DbRequestE4call0B9_
FN:175,_RNCNvXs6_NtCsk7yOOz582FI_16payjoin_mailroom2dbNtB7_16DbServiceAdapterNtB7_2Db15post_v2_payload0B9_
FN:206,_RNCNvXs6_NtCsk7yOOz582FI_16payjoin_mailroom2dbNtB7_16DbServiceAdapterNtB7_2Db16post_v1_response0B9_
FN:190,_RNCNvXs6_NtCsk7yOOz582FI_16payjoin_mailroom2dbNtB7_16DbServiceAdapterNtB7_2Db19wait_for_v2_payload0B9_
FN:222,_RNCNvXs6_NtCsk7yOOz582FI_16payjoin_mailroom2dbNtB7_16DbServiceAdapterNtB7_2Db37post_v1_request_and_wait_for_response0B9_
FN:258,_RNCNvXs8_NtCsk7yOOz582FI_16payjoin_mailroom2dbINtB7_9MetricsDbNtB7_16DbServiceAdapterENtB7_2Db15post_v2_payload0B9_
FN:277,_RNCNvXs8_NtCsk7yOOz582FI_16payjoin_mailroom2dbINtB7_9MetricsDbNtB7_16DbServiceAdapterENtB7_2Db16post_v1_response0B9_
FN:269,_RNCNvXs8_NtCsk7yOOz582FI_16payjoin_mailroom2dbINtB7_9MetricsDbNtB7_16DbServiceAdapterENtB7_2Db19wait_for_v2_payload0B9_
FN:285,_RNCNvXs8_NtCsk7yOOz582FI_16payjoin_mailroom2dbINtB7_9MetricsDbNtB7_16DbServiceAdapterENtB7_2Db37post_v1_request_and_wait_for_response0B9_
FN:248,_RNvMs7_NtCsk7yOOz582FI_16payjoin_mailroom2dbINtB5_9MetricsDbNtB5_16DbServiceAdapterE3newB7_
FN:31,_RNvXs0_NtCsk7yOOz582FI_16payjoin_mailroom2dbINtB5_5ErrorNtNtNtCscqTumPH0Ix7_3std2io5error5ErrorEINtNtCs2hl1TO11rA7_4core7convert4FromBS_E4fromB7_
FN:35,_RNvXs1_NtCsk7yOOz582FI_16payjoin_mailroom2dbINtB5_5ErrorNtNtNtCscqTumPH0Ix7_3std2io5error5ErrorENtNtCs2hl1TO11rA7_4core3fmt7Display3fmtB7_
FN:48,_RNvXs2_NtCsk7yOOz582FI_16payjoin_mailroom2dbINtB5_5ErrorNtNtNtCscqTumPH0Ix7_3std2io5error5ErrorENtNtCs2hl1TO11rA7_4core5error5Error6sourceB7_
FN:254,_RNvXs8_NtCsk7yOOz582FI_16payjoin_mailroom2dbINtB5_9MetricsDbNtB5_16DbServiceAdapterENtB5_2Db15post_v2_payloadB7_
FN:273,_RNvXs8_NtCsk7yOOz582FI_16payjoin_mailroom2dbINtB5_9MetricsDbNtB5_16DbServiceAdapterENtB5_2Db16post_v1_responseB7_
FN:266,_RNvXs8_NtCsk7yOOz582FI_16payjoin_mailroom2dbINtB5_9MetricsDbNtB5_16DbServiceAdapterENtB5_2Db19wait_for_v2_payloadB7_
FN:281,_RNvXs8_NtCsk7yOOz582FI_16payjoin_mailroom2dbINtB5_9MetricsDbNtB5_16DbServiceAdapterENtB5_2Db37post_v1_request_and_wait_for_responseB7_
FN:112,_RNvMs3_NtCsk7yOOz582FI_16payjoin_mailroom2dbNtB5_14FilesDbService3new
FN:161,_RNvMs5_NtCsk7yOOz582FI_16payjoin_mailroom2dbNtB5_16DbServiceAdapter16invalid_response
FN:156,_RNvMs5_NtCsk7yOOz582FI_16payjoin_mailroom2dbNtB5_16DbServiceAdapter3new
FN:122,_RNvXs4_NtCsk7yOOz582FI_16payjoin_mailroom2dbNtB5_14FilesDbServiceINtCspbhVovv5hz_13tower_service7ServiceNtB5_9DbRequestE10poll_ready
FN:129,_RNvXs4_NtCsk7yOOz582FI_16payjoin_mailroom2dbNtB5_14FilesDbServiceINtCspbhVovv5hz_13tower_service7ServiceNtB5_9DbRequestE4call
FN:171,_RNvXs6_NtCsk7yOOz582FI_16payjoin_mailroom2dbNtB5_16DbServiceAdapterNtB5_2Db15post_v2_payload
FN:202,_RNvXs6_NtCsk7yOOz582FI_16payjoin_mailroom2dbNtB5_16DbServiceAdapterNtB5_2Db16post_v1_response
FN:187,_RNvXs6_NtCsk7yOOz582FI_16payjoin_mailroom2dbNtB5_16DbServiceAdapterNtB5_2Db19wait_for_v2_payload
FN:218,_RNvXs6_NtCsk7yOOz582FI_16payjoin_mailroom2dbNtB5_16DbServiceAdapterNtB5_2Db37post_v1_request_and_wait_for_response
FN:112,_RNvMs3_NtCs8YpBKXcegdX_16payjoin_mailroom2dbNtB5_14FilesDbService3new
FN:161,_RNvMs5_NtCs8YpBKXcegdX_16payjoin_mailroom2dbNtB5_16DbServiceAdapter16invalid_response
FN:156,_RNvMs5_NtCs8YpBKXcegdX_16payjoin_mailroom2dbNtB5_16DbServiceAdapter3new
FN:122,_RNvXs4_NtCs8YpBKXcegdX_16payjoin_mailroom2dbNtB5_14FilesDbServiceINtCspbhVovv5hz_13tower_service7ServiceNtB5_9DbRequestE10poll_ready
FN:129,_RNvXs4_NtCs8YpBKXcegdX_16payjoin_mailroom2dbNtB5_14FilesDbServiceINtCspbhVovv5hz_13tower_service7ServiceNtB5_9DbRequestE4call
FN:171,_RNvXs6_NtCs8YpBKXcegdX_16payjoin_mailroom2dbNtB5_16DbServiceAdapterNtB5_2Db15post_v2_payload
FN:202,_RNvXs6_NtCs8YpBKXcegdX_16payjoin_mailroom2dbNtB5_16DbServiceAdapterNtB5_2Db16post_v1_response
FN:187,_RNvXs6_NtCs8YpBKXcegdX_16payjoin_mailroom2dbNtB5_16DbServiceAdapterNtB5_2Db19wait_for_v2_payload
FN:218,_RNvXs6_NtCs8YpBKXcegdX_16payjoin_mailroom2dbNtB5_16DbServiceAdapterNtB5_2Db37post_v1_request_and_wait_for_response
FN:131,_RNCNvXs4_NtCs8YpBKXcegdX_16payjoin_mailroom2dbNtB7_14FilesDbServiceINtCspbhVovv5hz_13tower_service7ServiceNtB7_9DbRequestE4call0B9_
FN:175,_RNCNvXs6_NtCs8YpBKXcegdX_16payjoin_mailroom2dbNtB7_16DbServiceAdapterNtB7_2Db15post_v2_payload0B9_
FN:206,_RNCNvXs6_NtCs8YpBKXcegdX_16payjoin_mailroom2dbNtB7_16DbServiceAdapterNtB7_2Db16post_v1_response0B9_
FN:190,_RNCNvXs6_NtCs8YpBKXcegdX_16payjoin_mailroom2dbNtB7_16DbServiceAdapterNtB7_2Db19wait_for_v2_payload0B9_
FN:222,_RNCNvXs6_NtCs8YpBKXcegdX_16payjoin_mailroom2dbNtB7_16DbServiceAdapterNtB7_2Db37post_v1_request_and_wait_for_response0B9_
FN:258,_RNCNvXs8_NtCs8YpBKXcegdX_16payjoin_mailroom2dbINtB7_9MetricsDbNtB7_16DbServiceAdapterENtB7_2Db15post_v2_payload0B9_
FN:277,_RNCNvXs8_NtCs8YpBKXcegdX_16payjoin_mailroom2dbINtB7_9MetricsDbNtB7_16DbServiceAdapterENtB7_2Db16post_v1_response0B9_
FN:269,_RNCNvXs8_NtCs8YpBKXcegdX_16payjoin_mailroom2dbINtB7_9MetricsDbNtB7_16DbServiceAdapterENtB7_2Db19wait_for_v2_payload0B9_
FN:285,_RNCNvXs8_NtCs8YpBKXcegdX_16payjoin_mailroom2dbINtB7_9MetricsDbNtB7_16DbServiceAdapterENtB7_2Db37post_v1_request_and_wait_for_response0B9_
FN:258,_RNCNvXs8_NtCs8YpBKXcegdX_16payjoin_mailroom2dbINtB7_9MetricsDbNtNtB7_5files7FilesDbENtB7_2Db15post_v2_payload0B9_
FN:248,_RNvMs7_NtCs8YpBKXcegdX_16payjoin_mailroom2dbINtB5_9MetricsDbNtB5_16DbServiceAdapterE3newB7_
FN:248,_RNvMs7_NtCs8YpBKXcegdX_16payjoin_mailroom2dbINtB5_9MetricsDbNtNtB5_5files7FilesDbE3newB7_
FN:31,_RNvXs0_NtCs8YpBKXcegdX_16payjoin_mailroom2dbINtB5_5ErrorNtNtNtCscqTumPH0Ix7_3std2io5error5ErrorEINtNtCs2hl1TO11rA7_4core7convert4FromBS_E4fromB7_
FN:35,_RNvXs1_NtCs8YpBKXcegdX_16payjoin_mailroom2dbINtB5_5ErrorNtNtNtCscqTumPH0Ix7_3std2io5error5ErrorENtNtCs2hl1TO11rA7_4core3fmt7Display3fmtB7_
FN:48,_RNvXs2_NtCs8YpBKXcegdX_16payjoin_mailroom2dbINtB5_5ErrorNtNtNtCscqTumPH0Ix7_3std2io5error5ErrorENtNtCs2hl1TO11rA7_4core5error5Error6sourceB7_
FN:254,_RNvXs8_NtCs8YpBKXcegdX_16payjoin_mailroom2dbINtB5_9MetricsDbNtB5_16DbServiceAdapterENtB5_2Db15post_v2_payloadB7_
FN:273,_RNvXs8_NtCs8YpBKXcegdX_16payjoin_mailroom2dbINtB5_9MetricsDbNtB5_16DbServiceAdapterENtB5_2Db16post_v1_responseB7_
FN:266,_RNvXs8_NtCs8YpBKXcegdX_16payjoin_mailroom2dbINtB5_9MetricsDbNtB5_16DbServiceAdapterENtB5_2Db19wait_for_v2_payloadB7_
FN:281,_RNvXs8_NtCs8YpBKXcegdX_16payjoin_mailroom2dbINtB5_9MetricsDbNtB5_16DbServiceAdapterENtB5_2Db37post_v1_request_and_wait_for_responseB7_
FN:254,_RNvXs8_NtCs8YpBKXcegdX_16payjoin_mailroom2dbINtB5_9MetricsDbNtNtB5_5files7FilesDbENtB5_2Db15post_v2_payloadB7_
FNDA:0,_RNCNvXs4_NtCsewJmtgcsYNl_16payjoin_mailroom2dbNtB7_14FilesDbServiceINtCspbhVovv5hz_13tower_service7ServiceNtB7_9DbRequestE4call0B9_
FNDA:0,_RNCNvXs6_NtCsewJmtgcsYNl_16payjoin_mailroom2dbNtB7_16DbServiceAdapterNtB7_2Db15post_v2_payload0B9_
FNDA:0,_RNCNvXs6_NtCsewJmtgcsYNl_16payjoin_mailroom2dbNtB7_16DbServiceAdapterNtB7_2Db16post_v1_response0B9_
FNDA:0,_RNCNvXs6_NtCsewJmtgcsYNl_16payjoin_mailroom2dbNtB7_16DbServiceAdapterNtB7_2Db19wait_for_v2_payload0B9_
FNDA:0,_RNCNvXs6_NtCsewJmtgcsYNl_16payjoin_mailroom2dbNtB7_16DbServiceAdapterNtB7_2Db37post_v1_request_and_wait_for_response0B9_
FNDA:0,_RNCNvXs8_NtCsewJmtgcsYNl_16payjoin_mailroom2dbINtB7_9MetricsDbNtB7_16DbServiceAdapterENtB7_2Db15post_v2_payload0B9_
FNDA:0,_RNCNvXs8_NtCsewJmtgcsYNl_16payjoin_mailroom2dbINtB7_9MetricsDbNtB7_16DbServiceAdapterENtB7_2Db16post_v1_response0B9_
FNDA:0,_RNCNvXs8_NtCsewJmtgcsYNl_16payjoin_mailroom2dbINtB7_9MetricsDbNtB7_16DbServiceAdapterENtB7_2Db19wait_for_v2_payload0B9_
FNDA:0,_RNCNvXs8_NtCsewJmtgcsYNl_16payjoin_mailroom2dbINtB7_9MetricsDbNtB7_16DbServiceAdapterENtB7_2Db37post_v1_request_and_wait_for_response0B9_
FNDA:0,_RNvMs7_NtCsewJmtgcsYNl_16payjoin_mailroom2dbINtB5_9MetricsDbNtB5_16DbServiceAdapterE3newB7_
FNDA:0,_RNvXs0_NtCsewJmtgcsYNl_16payjoin_mailroom2dbINtB5_5ErrorNtNtNtCscqTumPH0Ix7_3std2io5error5ErrorEINtNtCs2hl1TO11rA7_4core7convert4FromBS_E4fromB7_
FNDA:0,_RNvXs1_NtCsewJmtgcsYNl_16payjoin_mailroom2dbINtB5_5ErrorNtNtNtCscqTumPH0Ix7_3std2io5error5ErrorENtNtCs2hl1TO11rA7_4core3fmt7Display3fmtB7_
FNDA:0,_RNvXs2_NtCsewJmtgcsYNl_16payjoin_mailroom2dbINtB5_5ErrorNtNtNtCscqTumPH0Ix7_3std2io5error5ErrorENtNtCs2hl1TO11rA7_4core5error5Error6sourceB7_
FNDA:0,_RNvXs8_NtCsewJmtgcsYNl_16payjoin_mailroom2dbINtB5_9MetricsDbNtB5_16DbServiceAdapterENtB5_2Db15post_v2_payloadB7_
FNDA:0,_RNvXs8_NtCsewJmtgcsYNl_16payjoin_mailroom2dbINtB5_9MetricsDbNtB5_16DbServiceAdapterENtB5_2Db16post_v1_responseB7_
FNDA:0,_RNvXs8_NtCsewJmtgcsYNl_16payjoin_mailroom2dbINtB5_9MetricsDbNtB5_16DbServiceAdapterENtB5_2Db19wait_for_v2_payloadB7_
FNDA:0,_RNvXs8_NtCsewJmtgcsYNl_16payjoin_mailroom2dbINtB5_9MetricsDbNtB5_16DbServiceAdapterENtB5_2Db37post_v1_request_and_wait_for_responseB7_
FNDA:0,_RNvMs3_NtCsewJmtgcsYNl_16payjoin_mailroom2dbNtB5_14FilesDbService3new
FNDA:0,_RNvMs5_NtCsewJmtgcsYNl_16payjoin_mailroom2dbNtB5_16DbServiceAdapter16invalid_response
FNDA:0,_RNvMs5_NtCsewJmtgcsYNl_16payjoin_mailroom2dbNtB5_16DbServiceAdapter3new
FNDA:0,_RNvXs4_NtCsewJmtgcsYNl_16payjoin_mailroom2dbNtB5_14FilesDbServiceINtCspbhVovv5hz_13tower_service7ServiceNtB5_9DbRequestE10poll_ready
FNDA:0,_RNvXs4_NtCsewJmtgcsYNl_16payjoin_mailroom2dbNtB5_14FilesDbServiceINtCspbhVovv5hz_13tower_service7ServiceNtB5_9DbRequestE4call
FNDA:0,_RNvXs6_NtCsewJmtgcsYNl_16payjoin_mailroom2dbNtB5_16DbServiceAdapterNtB5_2Db15post_v2_payload
FNDA:0,_RNvXs6_NtCsewJmtgcsYNl_16payjoin_mailroom2dbNtB5_16DbServiceAdapterNtB5_2Db16post_v1_response
FNDA:0,_RNvXs6_NtCsewJmtgcsYNl_16payjoin_mailroom2dbNtB5_16DbServiceAdapterNtB5_2Db19wait_for_v2_payload
FNDA:0,_RNvXs6_NtCsewJmtgcsYNl_16payjoin_mailroom2dbNtB5_16DbServiceAdapterNtB5_2Db37post_v1_request_and_wait_for_response
FNDA:34,_RNCNvXs4_NtCsk7yOOz582FI_16payjoin_mailroom2dbNtB7_14FilesDbServiceINtCspbhVovv5hz_13tower_service7ServiceNtB7_9DbRequestE4call0B9_
FNDA:12,_RNCNvXs6_NtCsk7yOOz582FI_16payjoin_mailroom2dbNtB7_16DbServiceAdapterNtB7_2Db15post_v2_payload0B9_
FNDA:1,_RNCNvXs6_NtCsk7yOOz582FI_16payjoin_mailroom2dbNtB7_16DbServiceAdapterNtB7_2Db16post_v1_response0B9_
FNDA:19,_RNCNvXs6_NtCsk7yOOz582FI_16payjoin_mailroom2dbNtB7_16DbServiceAdapterNtB7_2Db19wait_for_v2_payload0B9_
FNDA:2,_RNCNvXs6_NtCsk7yOOz582FI_16payjoin_mailroom2dbNtB7_16DbServiceAdapterNtB7_2Db37post_v1_request_and_wait_for_response0B9_
FNDA:12,_RNCNvXs8_NtCsk7yOOz582FI_16payjoin_mailroom2dbINtB7_9MetricsDbNtB7_16DbServiceAdapterENtB7_2Db15post_v2_payload0B9_
FNDA:1,_RNCNvXs8_NtCsk7yOOz582FI_16payjoin_mailroom2dbINtB7_9MetricsDbNtB7_16DbServiceAdapterENtB7_2Db16post_v1_response0B9_
FNDA:19,_RNCNvXs8_NtCsk7yOOz582FI_16payjoin_mailroom2dbINtB7_9MetricsDbNtB7_16DbServiceAdapterENtB7_2Db19wait_for_v2_payload0B9_
FNDA:2,_RNCNvXs8_NtCsk7yOOz582FI_16payjoin_mailroom2dbINtB7_9MetricsDbNtB7_16DbServiceAdapterENtB7_2Db37post_v1_request_and_wait_for_response0B9_
FNDA:23,_RNvMs7_NtCsk7yOOz582FI_16payjoin_mailroom2dbINtB5_9MetricsDbNtB5_16DbServiceAdapterE3newB7_
FNDA:0,_RNvXs0_NtCsk7yOOz582FI_16payjoin_mailroom2dbINtB5_5ErrorNtNtNtCscqTumPH0Ix7_3std2io5error5ErrorEINtNtCs2hl1TO11rA7_4core7convert4FromBS_E4fromB7_
FNDA:0,_RNvXs1_NtCsk7yOOz582FI_16payjoin_mailroom2dbINtB5_5ErrorNtNtNtCscqTumPH0Ix7_3std2io5error5ErrorENtNtCs2hl1TO11rA7_4core3fmt7Display3fmtB7_
FNDA:0,_RNvXs2_NtCsk7yOOz582FI_16payjoin_mailroom2dbINtB5_5ErrorNtNtNtCscqTumPH0Ix7_3std2io5error5ErrorENtNtCs2hl1TO11rA7_4core5error5Error6sourceB7_
FNDA:12,_RNvXs8_NtCsk7yOOz582FI_16payjoin_mailroom2dbINtB5_9MetricsDbNtB5_16DbServiceAdapterENtB5_2Db15post_v2_payloadB7_
FNDA:1,_RNvXs8_NtCsk7yOOz582FI_16payjoin_mailroom2dbINtB5_9MetricsDbNtB5_16DbServiceAdapterENtB5_2Db16post_v1_responseB7_
FNDA:19,_RNvXs8_NtCsk7yOOz582FI_16payjoin_mailroom2dbINtB5_9MetricsDbNtB5_16DbServiceAdapterENtB5_2Db19wait_for_v2_payloadB7_
FNDA:2,_RNvXs8_NtCsk7yOOz582FI_16payjoin_mailroom2dbINtB5_9MetricsDbNtB5_16DbServiceAdapterENtB5_2Db37post_v1_request_and_wait_for_responseB7_
FNDA:23,_RNvMs3_NtCsk7yOOz582FI_16payjoin_mailroom2dbNtB5_14FilesDbService3new
FNDA:0,_RNvMs5_NtCsk7yOOz582FI_16payjoin_mailroom2dbNtB5_16DbServiceAdapter16invalid_response
FNDA:23,_RNvMs5_NtCsk7yOOz582FI_16payjoin_mailroom2dbNtB5_16DbServiceAdapter3new
FNDA:34,_RNvXs4_NtCsk7yOOz582FI_16payjoin_mailroom2dbNtB5_14FilesDbServiceINtCspbhVovv5hz_13tower_service7ServiceNtB5_9DbRequestE10poll_ready
FNDA:34,_RNvXs4_NtCsk7yOOz582FI_16payjoin_mailroom2dbNtB5_14FilesDbServiceINtCspbhVovv5hz_13tower_service7ServiceNtB5_9DbRequestE4call
FNDA:12,_RNvXs6_NtCsk7yOOz582FI_16payjoin_mailroom2dbNtB5_16DbServiceAdapterNtB5_2Db15post_v2_payload
FNDA:1,_RNvXs6_NtCsk7yOOz582FI_16payjoin_mailroom2dbNtB5_16DbServiceAdapterNtB5_2Db16post_v1_response
FNDA:19,_RNvXs6_NtCsk7yOOz582FI_16payjoin_mailroom2dbNtB5_16DbServiceAdapterNtB5_2Db19wait_for_v2_payload
FNDA:2,_RNvXs6_NtCsk7yOOz582FI_16payjoin_mailroom2dbNtB5_16DbServiceAdapterNtB5_2Db37post_v1_request_and_wait_for_response
FNDA:5,_RNvMs3_NtCs8YpBKXcegdX_16payjoin_mailroom2dbNtB5_14FilesDbService3new
FNDA:0,_RNvMs5_NtCs8YpBKXcegdX_16payjoin_mailroom2dbNtB5_16DbServiceAdapter16invalid_response
FNDA:5,_RNvMs5_NtCs8YpBKXcegdX_16payjoin_mailroom2dbNtB5_16DbServiceAdapter3new
FNDA:0,_RNvXs4_NtCs8YpBKXcegdX_16payjoin_mailroom2dbNtB5_14FilesDbServiceINtCspbhVovv5hz_13tower_service7ServiceNtB5_9DbRequestE10poll_ready
FNDA:0,_RNvXs4_NtCs8YpBKXcegdX_16payjoin_mailroom2dbNtB5_14FilesDbServiceINtCspbhVovv5hz_13tower_service7ServiceNtB5_9DbRequestE4call
FNDA:0,_RNvXs6_NtCs8YpBKXcegdX_16payjoin_mailroom2dbNtB5_16DbServiceAdapterNtB5_2Db15post_v2_payload
FNDA:0,_RNvXs6_NtCs8YpBKXcegdX_16payjoin_mailroom2dbNtB5_16DbServiceAdapterNtB5_2Db16post_v1_response
FNDA:0,_RNvXs6_NtCs8YpBKXcegdX_16payjoin_mailroom2dbNtB5_16DbServiceAdapterNtB5_2Db19wait_for_v2_payload
FNDA:0,_RNvXs6_NtCs8YpBKXcegdX_16payjoin_mailroom2dbNtB5_16DbServiceAdapterNtB5_2Db37post_v1_request_and_wait_for_response
FNDA:0,_RNCNvXs4_NtCs8YpBKXcegdX_16payjoin_mailroom2dbNtB7_14FilesDbServiceINtCspbhVovv5hz_13tower_service7ServiceNtB7_9DbRequestE4call0B9_
FNDA:0,_RNCNvXs6_NtCs8YpBKXcegdX_16payjoin_mailroom2dbNtB7_16DbServiceAdapterNtB7_2Db15post_v2_payload0B9_
FNDA:0,_RNCNvXs6_NtCs8YpBKXcegdX_16payjoin_mailroom2dbNtB7_16DbServiceAdapterNtB7_2Db16post_v1_response0B9_
FNDA:0,_RNCNvXs6_NtCs8YpBKXcegdX_16payjoin_mailroom2dbNtB7_16DbServiceAdapterNtB7_2Db19wait_for_v2_payload0B9_
FNDA:0,_RNCNvXs6_NtCs8YpBKXcegdX_16payjoin_mailroom2dbNtB7_16DbServiceAdapterNtB7_2Db37post_v1_request_and_wait_for_response0B9_
FNDA:0,_RNCNvXs8_NtCs8YpBKXcegdX_16payjoin_mailroom2dbINtB7_9MetricsDbNtB7_16DbServiceAdapterENtB7_2Db15post_v2_payload0B9_
FNDA:0,_RNCNvXs8_NtCs8YpBKXcegdX_16payjoin_mailroom2dbINtB7_9MetricsDbNtB7_16DbServiceAdapterENtB7_2Db16post_v1_response0B9_
FNDA:0,_RNCNvXs8_NtCs8YpBKXcegdX_16payjoin_mailroom2dbINtB7_9MetricsDbNtB7_16DbServiceAdapterENtB7_2Db19wait_for_v2_payload0B9_
FNDA:0,_RNCNvXs8_NtCs8YpBKXcegdX_16payjoin_mailroom2dbINtB7_9MetricsDbNtB7_16DbServiceAdapterENtB7_2Db37post_v1_request_and_wait_for_response0B9_
FNDA:1,_RNCNvXs8_NtCs8YpBKXcegdX_16payjoin_mailroom2dbINtB7_9MetricsDbNtNtB7_5files7FilesDbENtB7_2Db15post_v2_payload0B9_
FNDA:5,_RNvMs7_NtCs8YpBKXcegdX_16payjoin_mailroom2dbINtB5_9MetricsDbNtB5_16DbServiceAdapterE3newB7_
FNDA:1,_RNvMs7_NtCs8YpBKXcegdX_16payjoin_mailroom2dbINtB5_9MetricsDbNtNtB5_5files7FilesDbE3newB7_
FNDA:0,_RNvXs0_NtCs8YpBKXcegdX_16payjoin_mailroom2dbINtB5_5ErrorNtNtNtCscqTumPH0Ix7_3std2io5error5ErrorEINtNtCs2hl1TO11rA7_4core7convert4FromBS_E4fromB7_
FNDA:0,_RNvXs1_NtCs8YpBKXcegdX_16payjoin_mailroom2dbINtB5_5ErrorNtNtNtCscqTumPH0Ix7_3std2io5error5ErrorENtNtCs2hl1TO11rA7_4core3fmt7Display3fmtB7_
FNDA:0,_RNvXs2_NtCs8YpBKXcegdX_16payjoin_mailroom2dbINtB5_5ErrorNtNtNtCscqTumPH0Ix7_3std2io5error5ErrorENtNtCs2hl1TO11rA7_4core5error5Error6sourceB7_
FNDA:0,_RNvXs8_NtCs8YpBKXcegdX_16payjoin_mailroom2dbINtB5_9MetricsDbNtB5_16DbServiceAdapterENtB5_2Db15post_v2_payloadB7_
FNDA:0,_RNvXs8_NtCs8YpBKXcegdX_16payjoin_mailroom2dbINtB5_9MetricsDbNtB5_16DbServiceAdapterENtB5_2Db16post_v1_responseB7_
FNDA:0,_RNvXs8_NtCs8YpBKXcegdX_16payjoin_mailroom2dbINtB5_9MetricsDbNtB5_16DbServiceAdapterENtB5_2Db19wait_for_v2_payloadB7_
FNDA:0,_RNvXs8_NtCs8YpBKXcegdX_16payjoin_mailroom2dbINtB5_9MetricsDbNtB5_16DbServiceAdapterENtB5_2Db37post_v1_request_and_wait_for_responseB7_
FNDA:1,_RNvXs8_NtCs8YpBKXcegdX_16payjoin_mailroom2dbINtB5_9MetricsDbNtNtB5_5files7FilesDbENtB5_2Db15post_v2_payloadB7_
FNF:26
FNH:22
DA:31,0
DA:35,0
DA:37,0
DA:38,0
DA:39,0
DA:40,0
DA:41,0
DA:42,0
DA:44,0
DA:48,0
DA:50,0
DA:51,0
DA:52,0
DA:53,0
DA:55,0
DA:112,28
DA:122,34
DA:123,34
DA:124,34
DA:125,34
DA:126,34
DA:127,34
DA:129,34
DA:130,34
DA:131,34
DA:132,34
DA:133,12
DA:134,12
DA:135,19
DA:136,19
DA:137,1
DA:138,1
DA:139,1
DA:141,2
DA:143,2
DA:146,34
DA:147,34
DA:156,28
DA:157,28
DA:158,28
DA:159,28
DA:161,0
DA:162,0
DA:163,0
DA:164,0
DA:165,0
DA:171,12
DA:172,12
DA:173,12
DA:174,12
DA:175,12
DA:176,12
DA:177,12
DA:178,12
DA:179,12
DA:180,12
DA:181,12
DA:182,12
DA:183,0
DA:185,12
DA:187,19
DA:188,19
DA:189,19
DA:190,19
DA:191,19
DA:192,19
DA:193,19
DA:194,19
DA:195,19
DA:196,13
DA:197,13
DA:198,0
DA:200,19
DA:202,1
DA:203,1
DA:204,1
DA:205,1
DA:206,1
DA:207,1
DA:208,1
DA:209,1
DA:210,1
DA:211,1
DA:212,1
DA:213,1
DA:214,0
DA:216,1
DA:218,2
DA:219,2
DA:220,2
DA:221,2
DA:222,2
DA:223,2
DA:224,2
DA:225,2
DA:226,2
DA:227,2
DA:228,2
DA:229,2
DA:230,2
DA:231,1
DA:232,1
DA:233,0
DA:235,2
DA:248,29
DA:254,13
DA:255,13
DA:256,13
DA:257,13
DA:258,13
DA:259,13
DA:260,13
DA:261,13
DA:262,13
DA:263,13
DA:264,13
DA:266,19
DA:267,19
DA:268,19
DA:269,19
DA:270,19
DA:271,19
DA:273,1
DA:274,1
DA:275,1
DA:276,1
DA:277,1
DA:278,1
DA:279,1
DA:281,2
DA:282,2
DA:283,2
DA:284,2
DA:285,2
DA:286,2
DA:287,1
DA:288,1
DA:289,2
BRF:0
BRH:0
LF:147
LH:123
end_of_record
SF:/Users/bene/bitcoin/rust-payjoin/payjoin-mailroom/src/directory.rs
FN:52,_RNvMNtCsewJmtgcsYNl_16payjoin_mailroom9directoryNtB2_16BlockedAddresses17update_from_lines
FN:46,_RNvMNtCsewJmtgcsYNl_16payjoin_mailroom9directoryNtB2_16BlockedAddresses18from_address_lines
FN:42,_RNvMNtCsewJmtgcsYNl_16payjoin_mailroom9directoryNtB2_16BlockedAddresses5empty
FN:470,_RNvMs2_NtCsewJmtgcsYNl_16payjoin_mailroom9directoryNtB5_12HandlerError11to_response
FN:70,_RNvMs_NtCsewJmtgcsYNl_16payjoin_mailroom9directoryNtB4_2V13new
FN:438,_RNvNtCsewJmtgcsYNl_16payjoin_mailroom9directory17landing_page_html
FN:73,_RNvNtCsewJmtgcsYNl_16payjoin_mailroom9directory19parse_address_lines
FN:538,_RNvNtCsewJmtgcsYNl_16payjoin_mailroom9directory19screen_v1_addresses
FN:448,_RNvNtCsewJmtgcsYNl_16payjoin_mailroom9directory26handle_directory_home_path
FN:528,_RNvNtCsewJmtgcsYNl_16payjoin_mailroom9directory5empty
FN:522,_RNvNtCsewJmtgcsYNl_16payjoin_mailroom9directory9not_found
FN:513,_RNvXs3_NtCsewJmtgcsYNl_16payjoin_mailroom9directoryNtB5_12HandlerErrorINtNtCs2hl1TO11rA7_4core7convert4FromNtNtCs8E9Z5UEjpQ7_4http5error5ErrorE4from
FN:517,_RNvXs4_NtCsewJmtgcsYNl_16payjoin_mailroom9directoryNtB5_12HandlerErrorINtNtCs2hl1TO11rA7_4core7convert4FromNtNtCs9T6n9XKryM2_7payjoin9directory12ShortIdErrorE4from
FN:52,_RNCNvMNtCsewJmtgcsYNl_16payjoin_mailroom9directoryNtB4_16BlockedAddresses17update_from_lines0B6_
FN:109,_RNvXININtCsewJmtgcsYNl_16payjoin_mailroom9directorys0_0ppEINtB5_7ServicepEINtCspbhVovv5hz_13tower_service7ServiceINtNtCs8E9Z5UEjpQ7_4http7request7RequestpEE10poll_readyB7_
FN:124,_RINvMs1_NtCsewJmtgcsYNl_16payjoin_mailroom9directoryINtB6_7ServiceINtNtB8_2db9MetricsDbNtB15_16DbServiceAdapterEE13serve_requestNtNtCsbhYi8O17gzz_9axum_core4body4BodyEB8_
FN:171,_RINvMs1_NtCsewJmtgcsYNl_16payjoin_mailroom9directoryINtB6_7ServiceINtNtB8_2db9MetricsDbNtB15_16DbServiceAdapterEE14handle_post_v1NtNtCsbhYi8O17gzz_9axum_core4body4BodyEB8_
FN:338,_RINvMs1_NtCsewJmtgcsYNl_16payjoin_mailroom9directoryINtB6_7ServiceINtNtB8_2db9MetricsDbNtB15_16DbServiceAdapterEE16post_fallback_v1NtNtCsbhYi8O17gzz_9axum_core4body4BodyEB8_
FN:192,_RINvMs1_NtCsewJmtgcsYNl_16payjoin_mailroom9directoryINtB6_7ServiceINtNtB8_2db9MetricsDbNtB15_16DbServiceAdapterEE20handle_ohttp_gatewayNtNtCsbhYi8O17gzz_9axum_core4body4BodyEB8_
FN:415,_RINvNtCsewJmtgcsYNl_16payjoin_mailroom9directory11handle_peekNtNtNtCscqTumPH0Ix7_3std2io5error5ErrorEB4_
FN:530,_RINvNtCsewJmtgcsYNl_16payjoin_mailroom9directory4fullINtNtCs3JibHiv1CSv_5alloc3vec3VechEEB4_
FN:530,_RINvNtCsewJmtgcsYNl_16payjoin_mailroom9directory4fullNtNtCs3JibHiv1CSv_5alloc6string6StringEB4_
FN:530,_RINvNtCsewJmtgcsYNl_16payjoin_mailroom9directory4fullNtNtCsaaYEsrDHBtF_5bytes5bytes5BytesEB4_
FN:530,_RINvNtCsewJmtgcsYNl_16payjoin_mailroom9directory4fullReEB4_
FN:128,_RNCINvMs1_NtCsewJmtgcsYNl_16payjoin_mailroom9directoryINtB8_7ServiceINtNtBa_2db9MetricsDbNtB17_16DbServiceAdapterEE13serve_requestNtNtCsbhYi8O17gzz_9axum_core4body4BodyE0Ba_
FN:180,_RNCINvMs1_NtCsewJmtgcsYNl_16payjoin_mailroom9directoryINtB8_7ServiceINtNtBa_2db9MetricsDbNtB17_16DbServiceAdapterEE14handle_post_v1NtNtCsbhYi8O17gzz_9axum_core4body4BodyE0Ba_
FN:347,_RNCINvMs1_NtCsewJmtgcsYNl_16payjoin_mailroom9directoryINtB8_7ServiceINtNtBa_2db9MetricsDbNtB17_16DbServiceAdapterEE16post_fallback_v1NtNtCsbhYi8O17gzz_9axum_core4body4BodyE0Ba_
FN:196,_RNCINvMs1_NtCsewJmtgcsYNl_16payjoin_mailroom9directoryINtB8_7ServiceINtNtBa_2db9MetricsDbNtB17_16DbServiceAdapterEE20handle_ohttp_gatewayNtNtCsbhYi8O17gzz_9axum_core4body4BodyE0Ba_
FN:140,_RNCNCINvMs1_NtCsewJmtgcsYNl_16payjoin_mailroom9directoryINtBa_7ServiceINtNtBc_2db9MetricsDbNtB19_16DbServiceAdapterEE13serve_requestNtNtCsbhYi8O17gzz_9axum_core4body4BodyE00Bc_
FN:163,_RNCNCINvMs1_NtCsewJmtgcsYNl_16payjoin_mailroom9directoryINtBa_7ServiceINtNtBc_2db9MetricsDbNtB19_16DbServiceAdapterEE13serve_requestNtNtCsbhYi8O17gzz_9axum_core4body4BodyE0s_0Bc_
FN:200,_RNCNCINvMs1_NtCsewJmtgcsYNl_16payjoin_mailroom9directoryINtBa_7ServiceINtNtBc_2db9MetricsDbNtB19_16DbServiceAdapterEE20handle_ohttp_gatewayNtNtCsbhYi8O17gzz_9axum_core4body4BodyE00Bc_
FN:210,_RNCNCINvMs1_NtCsewJmtgcsYNl_16payjoin_mailroom9directoryINtBa_7ServiceINtNtBc_2db9MetricsDbNtB19_16DbServiceAdapterEE20handle_ohttp_gatewayNtNtCsbhYi8O17gzz_9axum_core4body4BodyE0s0_0Bc_
FN:231,_RNCNCINvMs1_NtCsewJmtgcsYNl_16payjoin_mailroom9directoryINtBa_7ServiceINtNtBc_2db9MetricsDbNtB19_16DbServiceAdapterEE20handle_ohttp_gatewayNtNtCsbhYi8O17gzz_9axum_core4body4BodyE0s1_0Bc_
FN:239,_RNCNCINvMs1_NtCsewJmtgcsYNl_16payjoin_mailroom9directoryINtBa_7ServiceINtNtBc_2db9MetricsDbNtB19_16DbServiceAdapterEE20handle_ohttp_gatewayNtNtCsbhYi8O17gzz_9axum_core4body4BodyE0s2_0Bc_
FN:245,_RNCNCINvMs1_NtCsewJmtgcsYNl_16payjoin_mailroom9directoryINtBa_7ServiceINtNtBc_2db9MetricsDbNtB19_16DbServiceAdapterEE20handle_ohttp_gatewayNtNtCsbhYi8O17gzz_9axum_core4body4BodyE0s3_0Bc_
FN:249,_RNCNCINvMs1_NtCsewJmtgcsYNl_16payjoin_mailroom9directoryINtBa_7ServiceINtNtBc_2db9MetricsDbNtB19_16DbServiceAdapterEE20handle_ohttp_gatewayNtNtCsbhYi8O17gzz_9axum_core4body4BodyE0s4_0Bc_
FN:207,_RNCNCINvMs1_NtCsewJmtgcsYNl_16payjoin_mailroom9directoryINtBa_7ServiceINtNtBc_2db9MetricsDbNtB19_16DbServiceAdapterEE20handle_ohttp_gatewayNtNtCsbhYi8O17gzz_9axum_core4body4BodyE0s_0Bc_
FN:277,_RNCNCNvMs1_NtCsewJmtgcsYNl_16payjoin_mailroom9directoryINtB9_7ServiceINtNtBb_2db9MetricsDbNtB18_16DbServiceAdapterEE12post_mailbox00Bb_
FN:385,_RNCNCNvMs1_NtCsewJmtgcsYNl_16payjoin_mailroom9directoryINtB9_7ServiceINtNtBb_2db9MetricsDbNtB18_16DbServiceAdapterEE14get_ohttp_keys00Bb_
FN:323,_RNCNCNvMs1_NtCsewJmtgcsYNl_16payjoin_mailroom9directoryINtB9_7ServiceINtNtBb_2db9MetricsDbNtB18_16DbServiceAdapterEE14put_payjoin_v100Bb_
FN:329,_RNCNCNvMs1_NtCsewJmtgcsYNl_16payjoin_mailroom9directoryINtB9_7ServiceINtNtBb_2db9MetricsDbNtB18_16DbServiceAdapterEE14put_payjoin_v10s_0Bb_
FN:299,_RNCNCNvMs1_NtCsewJmtgcsYNl_16payjoin_mailroom9directoryINtB9_7ServiceINtNtBb_2db9MetricsDbNtB18_16DbServiceAdapterEE18check_v1_blocklist00Bb_
FN:288,_RNCNvMs1_NtCsewJmtgcsYNl_16payjoin_mailroom9directoryINtB7_7ServiceINtNtB9_2db9MetricsDbNtB16_16DbServiceAdapterEE11get_mailbox0B9_
FN:406,_RNCNvMs1_NtCsewJmtgcsYNl_16payjoin_mailroom9directoryINtB7_7ServiceINtNtB9_2db9MetricsDbNtB16_16DbServiceAdapterEE12health_check0B9_
FN:270,_RNCNvMs1_NtCsewJmtgcsYNl_16payjoin_mailroom9directoryINtB7_7ServiceINtNtB9_2db9MetricsDbNtB16_16DbServiceAdapterEE12post_mailbox0B9_
FN:380,_RNCNvMs1_NtCsewJmtgcsYNl_16payjoin_mailroom9directoryINtB7_7ServiceINtNtB9_2db9MetricsDbNtB16_16DbServiceAdapterEE14get_ohttp_keys0B9_
FN:316,_RNCNvMs1_NtCsewJmtgcsYNl_16payjoin_mailroom9directoryINtB7_7ServiceINtNtB9_2db9MetricsDbNtB16_16DbServiceAdapterEE14put_payjoin_v10B9_
FN:298,_RNCNvMs1_NtCsewJmtgcsYNl_16payjoin_mailroom9directoryINtB7_7ServiceINtNtB9_2db9MetricsDbNtB16_16DbServiceAdapterEE18check_v1_blocklist0B9_
FN:373,_RNCNvMs1_NtCsewJmtgcsYNl_16payjoin_mailroom9directoryINtB7_7ServiceINtNtB9_2db9MetricsDbNtB16_16DbServiceAdapterEE24handle_ohttp_gateway_get0B9_
FN:391,_RNCNvMs1_NtCsewJmtgcsYNl_16payjoin_mailroom9directoryINtB7_7ServiceINtNtB9_2db9MetricsDbNtB16_16DbServiceAdapterEE26get_ohttp_allowed_purposes0B9_
FN:257,_RNCNvMs1_NtCsewJmtgcsYNl_16payjoin_mailroom9directoryINtB7_7ServiceINtNtB9_2db9MetricsDbNtB16_16DbServiceAdapterEE27handle_decapsulated_request0B9_
FN:75,_RNCNvNtCsewJmtgcsYNl_16payjoin_mailroom9directory19parse_address_lines0B5_
FN:448,_RNCNvNtCsewJmtgcsYNl_16payjoin_mailroom9directory26handle_directory_home_path0B5_
FN:115,_RNCNvXs0_NtCsewJmtgcsYNl_16payjoin_mailroom9directoryINtB7_7ServiceINtNtB9_2db9MetricsDbNtB16_16DbServiceAdapterEEINtCspbhVovv5hz_13tower_service7ServiceINtNtCs8E9Z5UEjpQ7_4http7request7RequestNtNtCsbhYi8O17gzz_9axum_core4body4BodyEE4call0B9_
FN:288,_RNvMs1_NtCsewJmtgcsYNl_16payjoin_mailroom9directoryINtB5_7ServiceINtNtB7_2db9MetricsDbNtB14_16DbServiceAdapterEE11get_mailboxB7_
FN:406,_RNvMs1_NtCsewJmtgcsYNl_16payjoin_mailroom9directoryINtB5_7ServiceINtNtB7_2db9MetricsDbNtB14_16DbServiceAdapterEE12health_checkB7_
FN:270,_RNvMs1_NtCsewJmtgcsYNl_16payjoin_mailroom9directoryINtB5_7ServiceINtNtB7_2db9MetricsDbNtB14_16DbServiceAdapterEE12post_mailboxB7_
FN:380,_RNvMs1_NtCsewJmtgcsYNl_16payjoin_mailroom9directoryINtB5_7ServiceINtNtB7_2db9MetricsDbNtB14_16DbServiceAdapterEE14get_ohttp_keysB7_
FN:316,_RNvMs1_NtCsewJmtgcsYNl_16payjoin_mailroom9directoryINtB5_7ServiceINtNtB7_2db9MetricsDbNtB14_16DbServiceAdapterEE14put_payjoin_v1B7_
FN:298,_RNvMs1_NtCsewJmtgcsYNl_16payjoin_mailroom9directoryINtB5_7ServiceINtNtB7_2db9MetricsDbNtB14_16DbServiceAdapterEE18check_v1_blocklistB7_
FN:373,_RNvMs1_NtCsewJmtgcsYNl_16payjoin_mailroom9directoryINtB5_7ServiceINtNtB7_2db9MetricsDbNtB14_16DbServiceAdapterEE24handle_ohttp_gateway_getB7_
FN:391,_RNvMs1_NtCsewJmtgcsYNl_16payjoin_mailroom9directoryINtB5_7ServiceINtNtB7_2db9MetricsDbNtB14_16DbServiceAdapterEE26get_ohttp_allowed_purposesB7_
FN:254,_RNvMs1_NtCsewJmtgcsYNl_16payjoin_mailroom9directoryINtB5_7ServiceINtNtB7_2db9MetricsDbNtB14_16DbServiceAdapterEE27handle_decapsulated_requestB7_
FN:120,_RNvMs1_NtCsewJmtgcsYNl_16payjoin_mailroom9directoryINtB5_7ServiceINtNtB7_2db9MetricsDbNtB14_16DbServiceAdapterEE3newB7_
FN:113,_RNvXs0_NtCsewJmtgcsYNl_16payjoin_mailroom9directoryINtB5_7ServiceINtNtB7_2db9MetricsDbNtB14_16DbServiceAdapterEEINtCspbhVovv5hz_13tower_service7ServiceINtNtCs8E9Z5UEjpQ7_4http7request7RequestNtNtCsbhYi8O17gzz_9axum_core4body4BodyEE4callB7_
FN:109,_RNvXININtCsk7yOOz582FI_16payjoin_mailroom9directorys0_0ppEINtB5_7ServicepEINtCspbhVovv5hz_13tower_service7ServiceINtNtCs8E9Z5UEjpQ7_4http7request7RequestpEE10poll_readyB7_
FN:52,_RNvMNtCsk7yOOz582FI_16payjoin_mailroom9directoryNtB2_16BlockedAddresses17update_from_lines
FN:46,_RNvMNtCsk7yOOz582FI_16payjoin_mailroom9directoryNtB2_16BlockedAddresses18from_address_lines
FN:42,_RNvMNtCsk7yOOz582FI_16payjoin_mailroom9directoryNtB2_16BlockedAddresses5empty
FN:470,_RNvMs2_NtCsk7yOOz582FI_16payjoin_mailroom9directoryNtB5_12HandlerError11to_response
FN:70,_RNvMs_NtCsk7yOOz582FI_16payjoin_mailroom9directoryNtB4_2V13new
FN:438,_RNvNtCsk7yOOz582FI_16payjoin_mailroom9directory17landing_page_html
FN:73,_RNvNtCsk7yOOz582FI_16payjoin_mailroom9directory19parse_address_lines
FN:538,_RNvNtCsk7yOOz582FI_16payjoin_mailroom9directory19screen_v1_addresses
FN:448,_RNvNtCsk7yOOz582FI_16payjoin_mailroom9directory26handle_directory_home_path
FN:528,_RNvNtCsk7yOOz582FI_16payjoin_mailroom9directory5empty
FN:522,_RNvNtCsk7yOOz582FI_16payjoin_mailroom9directory9not_found
FN:513,_RNvXs3_NtCsk7yOOz582FI_16payjoin_mailroom9directoryNtB5_12HandlerErrorINtNtCs2hl1TO11rA7_4core7convert4FromNtNtCs8E9Z5UEjpQ7_4http5error5ErrorE4from
FN:517,_RNvXs4_NtCsk7yOOz582FI_16payjoin_mailroom9directoryNtB5_12HandlerErrorINtNtCs2hl1TO11rA7_4core7convert4FromNtNtCsgunIiAgq1He_7payjoin9directory12ShortIdErrorE4from
FN:124,_RINvMs1_NtCsk7yOOz582FI_16payjoin_mailroom9directoryINtB6_7ServiceINtNtB8_2db9MetricsDbNtB15_16DbServiceAdapterEE13serve_requestNtNtCsbGkwFBM7K7x_9axum_core4body4BodyEB8_
FN:171,_RINvMs1_NtCsk7yOOz582FI_16payjoin_mailroom9directoryINtB6_7ServiceINtNtB8_2db9MetricsDbNtB15_16DbServiceAdapterEE14handle_post_v1NtNtCsbGkwFBM7K7x_9axum_core4body4BodyEB8_
FN:338,_RINvMs1_NtCsk7yOOz582FI_16payjoin_mailroom9directoryINtB6_7ServiceINtNtB8_2db9MetricsDbNtB15_16DbServiceAdapterEE16post_fallback_v1NtNtCsbGkwFBM7K7x_9axum_core4body4BodyEB8_
FN:192,_RINvMs1_NtCsk7yOOz582FI_16payjoin_mailroom9directoryINtB6_7ServiceINtNtB8_2db9MetricsDbNtB15_16DbServiceAdapterEE20handle_ohttp_gatewayNtNtCsbGkwFBM7K7x_9axum_core4body4BodyEB8_
FN:415,_RINvNtCsk7yOOz582FI_16payjoin_mailroom9directory11handle_peekNtNtNtCscqTumPH0Ix7_3std2io5error5ErrorEB4_
FN:530,_RINvNtCsk7yOOz582FI_16payjoin_mailroom9directory4fullINtNtCs3JibHiv1CSv_5alloc3vec3VechEEB4_
FN:530,_RINvNtCsk7yOOz582FI_16payjoin_mailroom9directory4fullNtNtCs3JibHiv1CSv_5alloc6string6StringEB4_
FN:530,_RINvNtCsk7yOOz582FI_16payjoin_mailroom9directory4fullNtNtCsaaYEsrDHBtF_5bytes5bytes5BytesEB4_
FN:530,_RINvNtCsk7yOOz582FI_16payjoin_mailroom9directory4fullReEB4_
FN:128,_RNCINvMs1_NtCsk7yOOz582FI_16payjoin_mailroom9directoryINtB8_7ServiceINtNtBa_2db9MetricsDbNtB17_16DbServiceAdapterEE13serve_requestNtNtCsbGkwFBM7K7x_9axum_core4body4BodyE0Ba_
FN:180,_RNCINvMs1_NtCsk7yOOz582FI_16payjoin_mailroom9directoryINtB8_7ServiceINtNtBa_2db9MetricsDbNtB17_16DbServiceAdapterEE14handle_post_v1NtNtCsbGkwFBM7K7x_9axum_core4body4BodyE0Ba_
FN:347,_RNCINvMs1_NtCsk7yOOz582FI_16payjoin_mailroom9directoryINtB8_7ServiceINtNtBa_2db9MetricsDbNtB17_16DbServiceAdapterEE16post_fallback_v1NtNtCsbGkwFBM7K7x_9axum_core4body4BodyE0Ba_
FN:196,_RNCINvMs1_NtCsk7yOOz582FI_16payjoin_mailroom9directoryINtB8_7ServiceINtNtBa_2db9MetricsDbNtB17_16DbServiceAdapterEE20handle_ohttp_gatewayNtNtCsbGkwFBM7K7x_9axum_core4body4BodyE0Ba_
FN:140,_RNCNCINvMs1_NtCsk7yOOz582FI_16payjoin_mailroom9directoryINtBa_7ServiceINtNtBc_2db9MetricsDbNtB19_16DbServiceAdapterEE13serve_requestNtNtCsbGkwFBM7K7x_9axum_core4body4BodyE00Bc_
FN:163,_RNCNCINvMs1_NtCsk7yOOz582FI_16payjoin_mailroom9directoryINtBa_7ServiceINtNtBc_2db9MetricsDbNtB19_16DbServiceAdapterEE13serve_requestNtNtCsbGkwFBM7K7x_9axum_core4body4BodyE0s_0Bc_
FN:200,_RNCNCINvMs1_NtCsk7yOOz582FI_16payjoin_mailroom9directoryINtBa_7ServiceINtNtBc_2db9MetricsDbNtB19_16DbServiceAdapterEE20handle_ohttp_gatewayNtNtCsbGkwFBM7K7x_9axum_core4body4BodyE00Bc_
FN:210,_RNCNCINvMs1_NtCsk7yOOz582FI_16payjoin_mailroom9directoryINtBa_7ServiceINtNtBc_2db9MetricsDbNtB19_16DbServiceAdapterEE20handle_ohttp_gatewayNtNtCsbGkwFBM7K7x_9axum_core4body4BodyE0s0_0Bc_
FN:231,_RNCNCINvMs1_NtCsk7yOOz582FI_16payjoin_mailroom9directoryINtBa_7ServiceINtNtBc_2db9MetricsDbNtB19_16DbServiceAdapterEE20handle_ohttp_gatewayNtNtCsbGkwFBM7K7x_9axum_core4body4BodyE0s1_0Bc_
FN:239,_RNCNCINvMs1_NtCsk7yOOz582FI_16payjoin_mailroom9directoryINtBa_7ServiceINtNtBc_2db9MetricsDbNtB19_16DbServiceAdapterEE20handle_ohttp_gatewayNtNtCsbGkwFBM7K7x_9axum_core4body4BodyE0s2_0Bc_
FN:245,_RNCNCINvMs1_NtCsk7yOOz582FI_16payjoin_mailroom9directoryINtBa_7ServiceINtNtBc_2db9MetricsDbNtB19_16DbServiceAdapterEE20handle_ohttp_gatewayNtNtCsbGkwFBM7K7x_9axum_core4body4BodyE0s3_0Bc_
FN:249,_RNCNCINvMs1_NtCsk7yOOz582FI_16payjoin_mailroom9directoryINtBa_7ServiceINtNtBc_2db9MetricsDbNtB19_16DbServiceAdapterEE20handle_ohttp_gatewayNtNtCsbGkwFBM7K7x_9axum_core4body4BodyE0s4_0Bc_
FN:207,_RNCNCINvMs1_NtCsk7yOOz582FI_16payjoin_mailroom9directoryINtBa_7ServiceINtNtBc_2db9MetricsDbNtB19_16DbServiceAdapterEE20handle_ohttp_gatewayNtNtCsbGkwFBM7K7x_9axum_core4body4BodyE0s_0Bc_
FN:277,_RNCNCNvMs1_NtCsk7yOOz582FI_16payjoin_mailroom9directoryINtB9_7ServiceINtNtBb_2db9MetricsDbNtB18_16DbServiceAdapterEE12post_mailbox00Bb_
FN:385,_RNCNCNvMs1_NtCsk7yOOz582FI_16payjoin_mailroom9directoryINtB9_7ServiceINtNtBb_2db9MetricsDbNtB18_16DbServiceAdapterEE14get_ohttp_keys00Bb_
FN:323,_RNCNCNvMs1_NtCsk7yOOz582FI_16payjoin_mailroom9directoryINtB9_7ServiceINtNtBb_2db9MetricsDbNtB18_16DbServiceAdapterEE14put_payjoin_v100Bb_
FN:329,_RNCNCNvMs1_NtCsk7yOOz582FI_16payjoin_mailroom9directoryINtB9_7ServiceINtNtBb_2db9MetricsDbNtB18_16DbServiceAdapterEE14put_payjoin_v10s_0Bb_
FN:299,_RNCNCNvMs1_NtCsk7yOOz582FI_16payjoin_mailroom9directoryINtB9_7ServiceINtNtBb_2db9MetricsDbNtB18_16DbServiceAdapterEE18check_v1_blocklist00Bb_
FN:52,_RNCNvMNtCsk7yOOz582FI_16payjoin_mailroom9directoryNtB4_16BlockedAddresses17update_from_lines0B6_
FN:288,_RNCNvMs1_NtCsk7yOOz582FI_16payjoin_mailroom9directoryINtB7_7ServiceINtNtB9_2db9MetricsDbNtB16_16DbServiceAdapterEE11get_mailbox0B9_
FN:406,_RNCNvMs1_NtCsk7yOOz582FI_16payjoin_mailroom9directoryINtB7_7ServiceINtNtB9_2db9MetricsDbNtB16_16DbServiceAdapterEE12health_check0B9_
FN:270,_RNCNvMs1_NtCsk7yOOz582FI_16payjoin_mailroom9directoryINtB7_7ServiceINtNtB9_2db9MetricsDbNtB16_16DbServiceAdapterEE12post_mailbox0B9_
FN:380,_RNCNvMs1_NtCsk7yOOz582FI_16payjoin_mailroom9directoryINtB7_7ServiceINtNtB9_2db9MetricsDbNtB16_16DbServiceAdapterEE14get_ohttp_keys0B9_
FN:316,_RNCNvMs1_NtCsk7yOOz582FI_16payjoin_mailroom9directoryINtB7_7ServiceINtNtB9_2db9MetricsDbNtB16_16DbServiceAdapterEE14put_payjoin_v10B9_
FN:298,_RNCNvMs1_NtCsk7yOOz582FI_16payjoin_mailroom9directoryINtB7_7ServiceINtNtB9_2db9MetricsDbNtB16_16DbServiceAdapterEE18check_v1_blocklist0B9_
FN:373,_RNCNvMs1_NtCsk7yOOz582FI_16payjoin_mailroom9directoryINtB7_7ServiceINtNtB9_2db9MetricsDbNtB16_16DbServiceAdapterEE24handle_ohttp_gateway_get0B9_
FN:391,_RNCNvMs1_NtCsk7yOOz582FI_16payjoin_mailroom9directoryINtB7_7ServiceINtNtB9_2db9MetricsDbNtB16_16DbServiceAdapterEE26get_ohttp_allowed_purposes0B9_
FN:257,_RNCNvMs1_NtCsk7yOOz582FI_16payjoin_mailroom9directoryINtB7_7ServiceINtNtB9_2db9MetricsDbNtB16_16DbServiceAdapterEE27handle_decapsulated_request0B9_
FN:75,_RNCNvNtCsk7yOOz582FI_16payjoin_mailroom9directory19parse_address_lines0B5_
FN:448,_RNCNvNtCsk7yOOz582FI_16payjoin_mailroom9directory26handle_directory_home_path0B5_
FN:115,_RNCNvXs0_NtCsk7yOOz582FI_16payjoin_mailroom9directoryINtB7_7ServiceINtNtB9_2db9MetricsDbNtB16_16DbServiceAdapterEEINtCspbhVovv5hz_13tower_service7ServiceINtNtCs8E9Z5UEjpQ7_4http7request7RequestNtNtCsbGkwFBM7K7x_9axum_core4body4BodyEE4call0B9_
FN:288,_RNvMs1_NtCsk7yOOz582FI_16payjoin_mailroom9directoryINtB5_7ServiceINtNtB7_2db9MetricsDbNtB14_16DbServiceAdapterEE11get_mailboxB7_
FN:406,_RNvMs1_NtCsk7yOOz582FI_16payjoin_mailroom9directoryINtB5_7ServiceINtNtB7_2db9MetricsDbNtB14_16DbServiceAdapterEE12health_checkB7_
FN:270,_RNvMs1_NtCsk7yOOz582FI_16payjoin_mailroom9directoryINtB5_7ServiceINtNtB7_2db9MetricsDbNtB14_16DbServiceAdapterEE12post_mailboxB7_
FN:380,_RNvMs1_NtCsk7yOOz582FI_16payjoin_mailroom9directoryINtB5_7ServiceINtNtB7_2db9MetricsDbNtB14_16DbServiceAdapterEE14get_ohttp_keysB7_
FN:316,_RNvMs1_NtCsk7yOOz582FI_16payjoin_mailroom9directoryINtB5_7ServiceINtNtB7_2db9MetricsDbNtB14_16DbServiceAdapterEE14put_payjoin_v1B7_
FN:298,_RNvMs1_NtCsk7yOOz582FI_16payjoin_mailroom9directoryINtB5_7ServiceINtNtB7_2db9MetricsDbNtB14_16DbServiceAdapterEE18check_v1_blocklistB7_
FN:373,_RNvMs1_NtCsk7yOOz582FI_16payjoin_mailroom9directoryINtB5_7ServiceINtNtB7_2db9MetricsDbNtB14_16DbServiceAdapterEE24handle_ohttp_gateway_getB7_
FN:391,_RNvMs1_NtCsk7yOOz582FI_16payjoin_mailroom9directoryINtB5_7ServiceINtNtB7_2db9MetricsDbNtB14_16DbServiceAdapterEE26get_ohttp_allowed_purposesB7_
FN:254,_RNvMs1_NtCsk7yOOz582FI_16payjoin_mailroom9directoryINtB5_7ServiceINtNtB7_2db9MetricsDbNtB14_16DbServiceAdapterEE27handle_decapsulated_requestB7_
FN:120,_RNvMs1_NtCsk7yOOz582FI_16payjoin_mailroom9directoryINtB5_7ServiceINtNtB7_2db9MetricsDbNtB14_16DbServiceAdapterEE3newB7_
FN:113,_RNvXs0_NtCsk7yOOz582FI_16payjoin_mailroom9directoryINtB5_7ServiceINtNtB7_2db9MetricsDbNtB14_16DbServiceAdapterEEINtCspbhVovv5hz_13tower_service7ServiceINtNtCs8E9Z5UEjpQ7_4http7request7RequestNtNtCsbGkwFBM7K7x_9axum_core4body4BodyEE4callB7_
FN:109,_RNvXININtCs8YpBKXcegdX_16payjoin_mailroom9directorys0_0ppEINtB5_7ServicepEINtCspbhVovv5hz_13tower_service7ServiceINtNtCs8E9Z5UEjpQ7_4http7request7RequestpEE10poll_readyB7_
FN:52,_RNvMNtCs8YpBKXcegdX_16payjoin_mailroom9directoryNtB2_16BlockedAddresses17update_from_lines
FN:46,_RNvMNtCs8YpBKXcegdX_16payjoin_mailroom9directoryNtB2_16BlockedAddresses18from_address_lines
FN:42,_RNvMNtCs8YpBKXcegdX_16payjoin_mailroom9directoryNtB2_16BlockedAddresses5empty
FN:470,_RNvMs2_NtCs8YpBKXcegdX_16payjoin_mailroom9directoryNtB5_12HandlerError11to_response
FN:70,_RNvMs_NtCs8YpBKXcegdX_16payjoin_mailroom9directoryNtB4_2V13new
FN:438,_RNvNtCs8YpBKXcegdX_16payjoin_mailroom9directory17landing_page_html
FN:73,_RNvNtCs8YpBKXcegdX_16payjoin_mailroom9directory19parse_address_lines
FN:538,_RNvNtCs8YpBKXcegdX_16payjoin_mailroom9directory19screen_v1_addresses
FN:448,_RNvNtCs8YpBKXcegdX_16payjoin_mailroom9directory26handle_directory_home_path
FN:528,_RNvNtCs8YpBKXcegdX_16payjoin_mailroom9directory5empty
FN:522,_RNvNtCs8YpBKXcegdX_16payjoin_mailroom9directory9not_found
FN:513,_RNvXs3_NtCs8YpBKXcegdX_16payjoin_mailroom9directoryNtB5_12HandlerErrorINtNtCs2hl1TO11rA7_4core7convert4FromNtNtCs8E9Z5UEjpQ7_4http5error5ErrorE4from
FN:517,_RNvXs4_NtCs8YpBKXcegdX_16payjoin_mailroom9directoryNtB5_12HandlerErrorINtNtCs2hl1TO11rA7_4core7convert4FromNtNtCsgunIiAgq1He_7payjoin9directory12ShortIdErrorE4from
FN:124,_RINvMs1_NtCs8YpBKXcegdX_16payjoin_mailroom9directoryINtB6_7ServiceINtNtB8_2db9MetricsDbNtB15_16DbServiceAdapterEE13serve_requestNtNtCsbGkwFBM7K7x_9axum_core4body4BodyEB8_
FN:171,_RINvMs1_NtCs8YpBKXcegdX_16payjoin_mailroom9directoryINtB6_7ServiceINtNtB8_2db9MetricsDbNtB15_16DbServiceAdapterEE14handle_post_v1NtNtCsbGkwFBM7K7x_9axum_core4body4BodyEB8_
FN:338,_RINvMs1_NtCs8YpBKXcegdX_16payjoin_mailroom9directoryINtB6_7ServiceINtNtB8_2db9MetricsDbNtB15_16DbServiceAdapterEE16post_fallback_v1NtNtCsbGkwFBM7K7x_9axum_core4body4BodyEB8_
FN:192,_RINvMs1_NtCs8YpBKXcegdX_16payjoin_mailroom9directoryINtB6_7ServiceINtNtB8_2db9MetricsDbNtB15_16DbServiceAdapterEE20handle_ohttp_gatewayNtNtCsbGkwFBM7K7x_9axum_core4body4BodyEB8_
FN:124,_RINvMs1_NtCs8YpBKXcegdX_16payjoin_mailroom9directoryINtB6_7ServiceNtNtNtB8_2db5files7FilesDbE13serve_requestNtNtCsbGkwFBM7K7x_9axum_core4body4BodyEB8_
FN:171,_RINvMs1_NtCs8YpBKXcegdX_16payjoin_mailroom9directoryINtB6_7ServiceNtNtNtB8_2db5files7FilesDbE14handle_post_v1NtNtCsbGkwFBM7K7x_9axum_core4body4BodyEB8_
FN:338,_RINvMs1_NtCs8YpBKXcegdX_16payjoin_mailroom9directoryINtB6_7ServiceNtNtNtB8_2db5files7FilesDbE16post_fallback_v1NtNtCsbGkwFBM7K7x_9axum_core4body4BodyEB8_
FN:192,_RINvMs1_NtCs8YpBKXcegdX_16payjoin_mailroom9directoryINtB6_7ServiceNtNtNtB8_2db5files7FilesDbE20handle_ohttp_gatewayNtNtCsbGkwFBM7K7x_9axum_core4body4BodyEB8_
FN:415,_RINvNtCs8YpBKXcegdX_16payjoin_mailroom9directory11handle_peekNtNtNtCscqTumPH0Ix7_3std2io5error5ErrorEB4_
FN:530,_RINvNtCs8YpBKXcegdX_16payjoin_mailroom9directory4fullINtNtCs3JibHiv1CSv_5alloc3vec3VechEEB4_
FN:530,_RINvNtCs8YpBKXcegdX_16payjoin_mailroom9directory4fullNtNtCs3JibHiv1CSv_5alloc6string6StringEB4_
FN:530,_RINvNtCs8YpBKXcegdX_16payjoin_mailroom9directory4fullNtNtCsaaYEsrDHBtF_5bytes5bytes5BytesEB4_
FN:530,_RINvNtCs8YpBKXcegdX_16payjoin_mailroom9directory4fullReEB4_
FN:128,_RNCINvMs1_NtCs8YpBKXcegdX_16payjoin_mailroom9directoryINtB8_7ServiceINtNtBa_2db9MetricsDbNtB17_16DbServiceAdapterEE13serve_requestNtNtCsbGkwFBM7K7x_9axum_core4body4BodyE0Ba_
FN:180,_RNCINvMs1_NtCs8YpBKXcegdX_16payjoin_mailroom9directoryINtB8_7ServiceINtNtBa_2db9MetricsDbNtB17_16DbServiceAdapterEE14handle_post_v1NtNtCsbGkwFBM7K7x_9axum_core4body4BodyE0Ba_
FN:347,_RNCINvMs1_NtCs8YpBKXcegdX_16payjoin_mailroom9directoryINtB8_7ServiceINtNtBa_2db9MetricsDbNtB17_16DbServiceAdapterEE16post_fallback_v1NtNtCsbGkwFBM7K7x_9axum_core4body4BodyE0Ba_
FN:196,_RNCINvMs1_NtCs8YpBKXcegdX_16payjoin_mailroom9directoryINtB8_7ServiceINtNtBa_2db9MetricsDbNtB17_16DbServiceAdapterEE20handle_ohttp_gatewayNtNtCsbGkwFBM7K7x_9axum_core4body4BodyE0Ba_
FN:128,_RNCINvMs1_NtCs8YpBKXcegdX_16payjoin_mailroom9directoryINtB8_7ServiceNtNtNtBa_2db5files7FilesDbE13serve_requestNtNtCsbGkwFBM7K7x_9axum_core4body4BodyE0Ba_
FN:180,_RNCINvMs1_NtCs8YpBKXcegdX_16payjoin_mailroom9directoryINtB8_7ServiceNtNtNtBa_2db5files7FilesDbE14handle_post_v1NtNtCsbGkwFBM7K7x_9axum_core4body4BodyE0Ba_
FN:347,_RNCINvMs1_NtCs8YpBKXcegdX_16payjoin_mailroom9directoryINtB8_7ServiceNtNtNtBa_2db5files7FilesDbE16post_fallback_v1NtNtCsbGkwFBM7K7x_9axum_core4body4BodyE0Ba_
FN:196,_RNCINvMs1_NtCs8YpBKXcegdX_16payjoin_mailroom9directoryINtB8_7ServiceNtNtNtBa_2db5files7FilesDbE20handle_ohttp_gatewayNtNtCsbGkwFBM7K7x_9axum_core4body4BodyE0Ba_
FN:140,_RNCNCINvMs1_NtCs8YpBKXcegdX_16payjoin_mailroom9directoryINtBa_7ServiceINtNtBc_2db9MetricsDbNtB19_16DbServiceAdapterEE13serve_requestNtNtCsbGkwFBM7K7x_9axum_core4body4BodyE00Bc_
FN:163,_RNCNCINvMs1_NtCs8YpBKXcegdX_16payjoin_mailroom9directoryINtBa_7ServiceINtNtBc_2db9MetricsDbNtB19_16DbServiceAdapterEE13serve_requestNtNtCsbGkwFBM7K7x_9axum_core4body4BodyE0s_0Bc_
FN:200,_RNCNCINvMs1_NtCs8YpBKXcegdX_16payjoin_mailroom9directoryINtBa_7ServiceINtNtBc_2db9MetricsDbNtB19_16DbServiceAdapterEE20handle_ohttp_gatewayNtNtCsbGkwFBM7K7x_9axum_core4body4BodyE00Bc_
FN:210,_RNCNCINvMs1_NtCs8YpBKXcegdX_16payjoin_mailroom9directoryINtBa_7ServiceINtNtBc_2db9MetricsDbNtB19_16DbServiceAdapterEE20handle_ohttp_gatewayNtNtCsbGkwFBM7K7x_9axum_core4body4BodyE0s0_0Bc_
FN:231,_RNCNCINvMs1_NtCs8YpBKXcegdX_16payjoin_mailroom9directoryINtBa_7ServiceINtNtBc_2db9MetricsDbNtB19_16DbServiceAdapterEE20handle_ohttp_gatewayNtNtCsbGkwFBM7K7x_9axum_core4body4BodyE0s1_0Bc_
FN:239,_RNCNCINvMs1_NtCs8YpBKXcegdX_16payjoin_mailroom9directoryINtBa_7ServiceINtNtBc_2db9MetricsDbNtB19_16DbServiceAdapterEE20handle_ohttp_gatewayNtNtCsbGkwFBM7K7x_9axum_core4body4BodyE0s2_0Bc_
FN:245,_RNCNCINvMs1_NtCs8YpBKXcegdX_16payjoin_mailroom9directoryINtBa_7ServiceINtNtBc_2db9MetricsDbNtB19_16DbServiceAdapterEE20handle_ohttp_gatewayNtNtCsbGkwFBM7K7x_9axum_core4body4BodyE0s3_0Bc_
FN:249,_RNCNCINvMs1_NtCs8YpBKXcegdX_16payjoin_mailroom9directoryINtBa_7ServiceINtNtBc_2db9MetricsDbNtB19_16DbServiceAdapterEE20handle_ohttp_gatewayNtNtCsbGkwFBM7K7x_9axum_core4body4BodyE0s4_0Bc_
FN:207,_RNCNCINvMs1_NtCs8YpBKXcegdX_16payjoin_mailroom9directoryINtBa_7ServiceINtNtBc_2db9MetricsDbNtB19_16DbServiceAdapterEE20handle_ohttp_gatewayNtNtCsbGkwFBM7K7x_9axum_core4body4BodyE0s_0Bc_
FN:140,_RNCNCINvMs1_NtCs8YpBKXcegdX_16payjoin_mailroom9directoryINtBa_7ServiceNtNtNtBc_2db5files7FilesDbE13serve_requestNtNtCsbGkwFBM7K7x_9axum_core4body4BodyE00Bc_
FN:163,_RNCNCINvMs1_NtCs8YpBKXcegdX_16payjoin_mailroom9directoryINtBa_7ServiceNtNtNtBc_2db5files7FilesDbE13serve_requestNtNtCsbGkwFBM7K7x_9axum_core4body4BodyE0s_0Bc_
FN:200,_RNCNCINvMs1_NtCs8YpBKXcegdX_16payjoin_mailroom9directoryINtBa_7ServiceNtNtNtBc_2db5files7FilesDbE20handle_ohttp_gatewayNtNtCsbGkwFBM7K7x_9axum_core4body4BodyE00Bc_
FN:210,_RNCNCINvMs1_NtCs8YpBKXcegdX_16payjoin_mailroom9directoryINtBa_7ServiceNtNtNtBc_2db5files7FilesDbE20handle_ohttp_gatewayNtNtCsbGkwFBM7K7x_9axum_core4body4BodyE0s0_0Bc_
FN:231,_RNCNCINvMs1_NtCs8YpBKXcegdX_16payjoin_mailroom9directoryINtBa_7ServiceNtNtNtBc_2db5files7FilesDbE20handle_ohttp_gatewayNtNtCsbGkwFBM7K7x_9axum_core4body4BodyE0s1_0Bc_
FN:239,_RNCNCINvMs1_NtCs8YpBKXcegdX_16payjoin_mailroom9directoryINtBa_7ServiceNtNtNtBc_2db5files7FilesDbE20handle_ohttp_gatewayNtNtCsbGkwFBM7K7x_9axum_core4body4BodyE0s2_0Bc_
FN:245,_RNCNCINvMs1_NtCs8YpBKXcegdX_16payjoin_mailroom9directoryINtBa_7ServiceNtNtNtBc_2db5files7FilesDbE20handle_ohttp_gatewayNtNtCsbGkwFBM7K7x_9axum_core4body4BodyE0s3_0Bc_
FN:249,_RNCNCINvMs1_NtCs8YpBKXcegdX_16payjoin_mailroom9directoryINtBa_7ServiceNtNtNtBc_2db5files7FilesDbE20handle_ohttp_gatewayNtNtCsbGkwFBM7K7x_9axum_core4body4BodyE0s4_0Bc_
FN:207,_RNCNCINvMs1_NtCs8YpBKXcegdX_16payjoin_mailroom9directoryINtBa_7ServiceNtNtNtBc_2db5files7FilesDbE20handle_ohttp_gatewayNtNtCsbGkwFBM7K7x_9axum_core4body4BodyE0s_0Bc_
FN:277,_RNCNCNvMs1_NtCs8YpBKXcegdX_16payjoin_mailroom9directoryINtB9_7ServiceINtNtBb_2db9MetricsDbNtB18_16DbServiceAdapterEE12post_mailbox00Bb_
FN:385,_RNCNCNvMs1_NtCs8YpBKXcegdX_16payjoin_mailroom9directoryINtB9_7ServiceINtNtBb_2db9MetricsDbNtB18_16DbServiceAdapterEE14get_ohttp_keys00Bb_
FN:323,_RNCNCNvMs1_NtCs8YpBKXcegdX_16payjoin_mailroom9directoryINtB9_7ServiceINtNtBb_2db9MetricsDbNtB18_16DbServiceAdapterEE14put_payjoin_v100Bb_
FN:329,_RNCNCNvMs1_NtCs8YpBKXcegdX_16payjoin_mailroom9directoryINtB9_7ServiceINtNtBb_2db9MetricsDbNtB18_16DbServiceAdapterEE14put_payjoin_v10s_0Bb_
FN:299,_RNCNCNvMs1_NtCs8YpBKXcegdX_16payjoin_mailroom9directoryINtB9_7ServiceINtNtBb_2db9MetricsDbNtB18_16DbServiceAdapterEE18check_v1_blocklist00Bb_
FN:277,_RNCNCNvMs1_NtCs8YpBKXcegdX_16payjoin_mailroom9directoryINtB9_7ServiceINtNtBb_2db9MetricsDbNtNtB18_5files7FilesDbEE12post_mailbox00Bb_
FN:277,_RNCNCNvMs1_NtCs8YpBKXcegdX_16payjoin_mailroom9directoryINtB9_7ServiceNtNtNtBb_2db5files7FilesDbE12post_mailbox00Bb_
FN:385,_RNCNCNvMs1_NtCs8YpBKXcegdX_16payjoin_mailroom9directoryINtB9_7ServiceNtNtNtBb_2db5files7FilesDbE14get_ohttp_keys00Bb_
FN:323,_RNCNCNvMs1_NtCs8YpBKXcegdX_16payjoin_mailroom9directoryINtB9_7ServiceNtNtNtBb_2db5files7FilesDbE14put_payjoin_v100Bb_
FN:329,_RNCNCNvMs1_NtCs8YpBKXcegdX_16payjoin_mailroom9directoryINtB9_7ServiceNtNtNtBb_2db5files7FilesDbE14put_payjoin_v10s_0Bb_
FN:299,_RNCNCNvMs1_NtCs8YpBKXcegdX_16payjoin_mailroom9directoryINtB9_7ServiceNtNtNtBb_2db5files7FilesDbE18check_v1_blocklist00Bb_
FN:52,_RNCNvMNtCs8YpBKXcegdX_16payjoin_mailroom9directoryNtB4_16BlockedAddresses17update_from_lines0B6_
FN:288,_RNCNvMs1_NtCs8YpBKXcegdX_16payjoin_mailroom9directoryINtB7_7ServiceINtNtB9_2db9MetricsDbNtB16_16DbServiceAdapterEE11get_mailbox0B9_
FN:406,_RNCNvMs1_NtCs8YpBKXcegdX_16payjoin_mailroom9directoryINtB7_7ServiceINtNtB9_2db9MetricsDbNtB16_16DbServiceAdapterEE12health_check0B9_
FN:270,_RNCNvMs1_NtCs8YpBKXcegdX_16payjoin_mailroom9directoryINtB7_7ServiceINtNtB9_2db9MetricsDbNtB16_16DbServiceAdapterEE12post_mailbox0B9_
FN:380,_RNCNvMs1_NtCs8YpBKXcegdX_16payjoin_mailroom9directoryINtB7_7ServiceINtNtB9_2db9MetricsDbNtB16_16DbServiceAdapterEE14get_ohttp_keys0B9_
FN:316,_RNCNvMs1_NtCs8YpBKXcegdX_16payjoin_mailroom9directoryINtB7_7ServiceINtNtB9_2db9MetricsDbNtB16_16DbServiceAdapterEE14put_payjoin_v10B9_
FN:298,_RNCNvMs1_NtCs8YpBKXcegdX_16payjoin_mailroom9directoryINtB7_7ServiceINtNtB9_2db9MetricsDbNtB16_16DbServiceAdapterEE18check_v1_blocklist0B9_
FN:373,_RNCNvMs1_NtCs8YpBKXcegdX_16payjoin_mailroom9directoryINtB7_7ServiceINtNtB9_2db9MetricsDbNtB16_16DbServiceAdapterEE24handle_ohttp_gateway_get0B9_
FN:391,_RNCNvMs1_NtCs8YpBKXcegdX_16payjoin_mailroom9directoryINtB7_7ServiceINtNtB9_2db9MetricsDbNtB16_16DbServiceAdapterEE26get_ohttp_allowed_purposes0B9_
FN:257,_RNCNvMs1_NtCs8YpBKXcegdX_16payjoin_mailroom9directoryINtB7_7ServiceINtNtB9_2db9MetricsDbNtB16_16DbServiceAdapterEE27handle_decapsulated_request0B9_
FN:270,_RNCNvMs1_NtCs8YpBKXcegdX_16payjoin_mailroom9directoryINtB7_7ServiceINtNtB9_2db9MetricsDbNtNtB16_5files7FilesDbEE12post_mailbox0B9_
FN:288,_RNCNvMs1_NtCs8YpBKXcegdX_16payjoin_mailroom9directoryINtB7_7ServiceNtNtNtB9_2db5files7FilesDbE11get_mailbox0B9_
FN:406,_RNCNvMs1_NtCs8YpBKXcegdX_16payjoin_mailroom9directoryINtB7_7ServiceNtNtNtB9_2db5files7FilesDbE12health_check0B9_
FN:270,_RNCNvMs1_NtCs8YpBKXcegdX_16payjoin_mailroom9directoryINtB7_7ServiceNtNtNtB9_2db5files7FilesDbE12post_mailbox0B9_
FN:380,_RNCNvMs1_NtCs8YpBKXcegdX_16payjoin_mailroom9directoryINtB7_7ServiceNtNtNtB9_2db5files7FilesDbE14get_ohttp_keys0B9_
FN:316,_RNCNvMs1_NtCs8YpBKXcegdX_16payjoin_mailroom9directoryINtB7_7ServiceNtNtNtB9_2db5files7FilesDbE14put_payjoin_v10B9_
FN:298,_RNCNvMs1_NtCs8YpBKXcegdX_16payjoin_mailroom9directoryINtB7_7ServiceNtNtNtB9_2db5files7FilesDbE18check_v1_blocklist0B9_
FN:373,_RNCNvMs1_NtCs8YpBKXcegdX_16payjoin_mailroom9directoryINtB7_7ServiceNtNtNtB9_2db5files7FilesDbE24handle_ohttp_gateway_get0B9_
FN:391,_RNCNvMs1_NtCs8YpBKXcegdX_16payjoin_mailroom9directoryINtB7_7ServiceNtNtNtB9_2db5files7FilesDbE26get_ohttp_allowed_purposes0B9_
FN:257,_RNCNvMs1_NtCs8YpBKXcegdX_16payjoin_mailroom9directoryINtB7_7ServiceNtNtNtB9_2db5files7FilesDbE27handle_decapsulated_request0B9_
FN:75,_RNCNvNtCs8YpBKXcegdX_16payjoin_mailroom9directory19parse_address_lines0B5_
FN:448,_RNCNvNtCs8YpBKXcegdX_16payjoin_mailroom9directory26handle_directory_home_path0B5_
FN:115,_RNCNvXs0_NtCs8YpBKXcegdX_16payjoin_mailroom9directoryINtB7_7ServiceINtNtB9_2db9MetricsDbNtB16_16DbServiceAdapterEEINtCspbhVovv5hz_13tower_service7ServiceINtNtCs8E9Z5UEjpQ7_4http7request7RequestNtNtCsbGkwFBM7K7x_9axum_core4body4BodyEE4call0B9_
FN:115,_RNCNvXs0_NtCs8YpBKXcegdX_16payjoin_mailroom9directoryINtB7_7ServiceNtNtNtB9_2db5files7FilesDbEINtCspbhVovv5hz_13tower_service7ServiceINtNtCs8E9Z5UEjpQ7_4http7request7RequestNtNtCsbGkwFBM7K7x_9axum_core4body4BodyEE4call0B9_
FN:288,_RNvMs1_NtCs8YpBKXcegdX_16payjoin_mailroom9directoryINtB5_7ServiceINtNtB7_2db9MetricsDbNtB14_16DbServiceAdapterEE11get_mailboxB7_
FN:406,_RNvMs1_NtCs8YpBKXcegdX_16payjoin_mailroom9directoryINtB5_7ServiceINtNtB7_2db9MetricsDbNtB14_16DbServiceAdapterEE12health_checkB7_
FN:270,_RNvMs1_NtCs8YpBKXcegdX_16payjoin_mailroom9directoryINtB5_7ServiceINtNtB7_2db9MetricsDbNtB14_16DbServiceAdapterEE12post_mailboxB7_
FN:380,_RNvMs1_NtCs8YpBKXcegdX_16payjoin_mailroom9directoryINtB5_7ServiceINtNtB7_2db9MetricsDbNtB14_16DbServiceAdapterEE14get_ohttp_keysB7_
FN:316,_RNvMs1_NtCs8YpBKXcegdX_16payjoin_mailroom9directoryINtB5_7ServiceINtNtB7_2db9MetricsDbNtB14_16DbServiceAdapterEE14put_payjoin_v1B7_
FN:298,_RNvMs1_NtCs8YpBKXcegdX_16payjoin_mailroom9directoryINtB5_7ServiceINtNtB7_2db9MetricsDbNtB14_16DbServiceAdapterEE18check_v1_blocklistB7_
FN:373,_RNvMs1_NtCs8YpBKXcegdX_16payjoin_mailroom9directoryINtB5_7ServiceINtNtB7_2db9MetricsDbNtB14_16DbServiceAdapterEE24handle_ohttp_gateway_getB7_
FN:391,_RNvMs1_NtCs8YpBKXcegdX_16payjoin_mailroom9directoryINtB5_7ServiceINtNtB7_2db9MetricsDbNtB14_16DbServiceAdapterEE26get_ohttp_allowed_purposesB7_
FN:254,_RNvMs1_NtCs8YpBKXcegdX_16payjoin_mailroom9directoryINtB5_7ServiceINtNtB7_2db9MetricsDbNtB14_16DbServiceAdapterEE27handle_decapsulated_requestB7_
FN:120,_RNvMs1_NtCs8YpBKXcegdX_16payjoin_mailroom9directoryINtB5_7ServiceINtNtB7_2db9MetricsDbNtB14_16DbServiceAdapterEE3newB7_
FN:270,_RNvMs1_NtCs8YpBKXcegdX_16payjoin_mailroom9directoryINtB5_7ServiceINtNtB7_2db9MetricsDbNtNtB14_5files7FilesDbEE12post_mailboxB7_
FN:120,_RNvMs1_NtCs8YpBKXcegdX_16payjoin_mailroom9directoryINtB5_7ServiceINtNtB7_2db9MetricsDbNtNtB14_5files7FilesDbEE3newB7_
FN:288,_RNvMs1_NtCs8YpBKXcegdX_16payjoin_mailroom9directoryINtB5_7ServiceNtNtNtB7_2db5files7FilesDbE11get_mailboxB7_
FN:406,_RNvMs1_NtCs8YpBKXcegdX_16payjoin_mailroom9directoryINtB5_7ServiceNtNtNtB7_2db5files7FilesDbE12health_checkB7_
FN:270,_RNvMs1_NtCs8YpBKXcegdX_16payjoin_mailroom9directoryINtB5_7ServiceNtNtNtB7_2db5files7FilesDbE12post_mailboxB7_
FN:380,_RNvMs1_NtCs8YpBKXcegdX_16payjoin_mailroom9directoryINtB5_7ServiceNtNtNtB7_2db5files7FilesDbE14get_ohttp_keysB7_
FN:316,_RNvMs1_NtCs8YpBKXcegdX_16payjoin_mailroom9directoryINtB5_7ServiceNtNtNtB7_2db5files7FilesDbE14put_payjoin_v1B7_
FN:298,_RNvMs1_NtCs8YpBKXcegdX_16payjoin_mailroom9directoryINtB5_7ServiceNtNtNtB7_2db5files7FilesDbE18check_v1_blocklistB7_
FN:373,_RNvMs1_NtCs8YpBKXcegdX_16payjoin_mailroom9directoryINtB5_7ServiceNtNtNtB7_2db5files7FilesDbE24handle_ohttp_gateway_getB7_
FN:391,_RNvMs1_NtCs8YpBKXcegdX_16payjoin_mailroom9directoryINtB5_7ServiceNtNtNtB7_2db5files7FilesDbE26get_ohttp_allowed_purposesB7_
FN:254,_RNvMs1_NtCs8YpBKXcegdX_16payjoin_mailroom9directoryINtB5_7ServiceNtNtNtB7_2db5files7FilesDbE27handle_decapsulated_requestB7_
FN:120,_RNvMs1_NtCs8YpBKXcegdX_16payjoin_mailroom9directoryINtB5_7ServiceNtNtNtB7_2db5files7FilesDbE3newB7_
FN:113,_RNvXs0_NtCs8YpBKXcegdX_16payjoin_mailroom9directoryINtB5_7ServiceINtNtB7_2db9MetricsDbNtB14_16DbServiceAdapterEEINtCspbhVovv5hz_13tower_service7ServiceINtNtCs8E9Z5UEjpQ7_4http7request7RequestNtNtCsbGkwFBM7K7x_9axum_core4body4BodyEE4callB7_
FN:113,_RNvXs0_NtCs8YpBKXcegdX_16payjoin_mailroom9directoryINtB5_7ServiceNtNtNtB7_2db5files7FilesDbEINtCspbhVovv5hz_13tower_service7ServiceINtNtCs8E9Z5UEjpQ7_4http7request7RequestNtNtCsbGkwFBM7K7x_9axum_core4body4BodyEE4callB7_
FN:612,_RNvNtNtCs8YpBKXcegdX_16payjoin_mailroom9directory5tests12collect_body
FN:592,_RNvNtNtCs8YpBKXcegdX_16payjoin_mailroom9directory5tests12test_service
FN:693,_RNvNtNtCs8YpBKXcegdX_16payjoin_mailroom9directory5tests14addr_to_script
FN:607,_RNvNtNtCs8YpBKXcegdX_16payjoin_mailroom9directory5tests19valid_short_id_path
FN:673,_RNvNtNtCs8YpBKXcegdX_16payjoin_mailroom9directory5tests21make_test_psbt_base64
FN:793,_RNvNtNtCs8YpBKXcegdX_16payjoin_mailroom9directory5testss_20health_check_with_v1
FN:777,_RNvNtNtCs8YpBKXcegdX_16payjoin_mailroom9directory5testss_23health_check_without_v1
FN:729,_RNvNtNtCs8YpBKXcegdX_16payjoin_mailroom9directory5testss_24screen_allows_clean_psbt
FN:766,_RNvNtNtCs8YpBKXcegdX_16payjoin_mailroom9directory5testss_28screen_blocks_bech32_address
FN:811,_RNvNtNtCs8YpBKXcegdX_16payjoin_mailroom9directory5testss_29landing_page_contains_version
FN:737,_RNvNtNtCs8YpBKXcegdX_16payjoin_mailroom9directory5testss_33screen_allows_non_blocked_address
FN:757,_RNvNtNtCs8YpBKXcegdX_16payjoin_mailroom9directory5testss_34screen_parse_error_on_invalid_psbt
FN:720,_RNvNtNtCs8YpBKXcegdX_16payjoin_mailroom9directory5testss_36screen_blocks_blocked_output_address
FN:747,_RNvNtNtCs8YpBKXcegdX_16payjoin_mailroom9directory5testss_36screen_parse_error_on_invalid_base64
FN:638,_RNvNtNtCs8YpBKXcegdX_16payjoin_mailroom9directory5testss_40post_v1_with_invalid_body_returns_reject
FN:819,_RNvNtNtCs8YpBKXcegdX_16payjoin_mailroom9directory5testss_42post_mailbox_increments_v2_db_entry_metric
FN:655,_RNvNtNtCs8YpBKXcegdX_16payjoin_mailroom9directory5testss_44post_v1_with_no_receiver_returns_unavailable
FN:700,_RNvNtNtCs8YpBKXcegdX_16payjoin_mailroom9directory5testss_48post_v1_with_blocked_address_returns_bad_request
FN:621,_RNvNtNtCs8YpBKXcegdX_16payjoin_mailroom9directory5testss_49post_v1_when_disabled_returns_version_unsupported
FN:856,_RNCNCNvNtNtCs8YpBKXcegdX_16payjoin_mailroom9directory5testss_42post_mailbox_increments_v2_db_entry_metric00B9_
FN:858,_RNCNCNvNtNtCs8YpBKXcegdX_16payjoin_mailroom9directory5testss_42post_mailbox_increments_v2_db_entry_metric0s0_0B9_
FN:857,_RNCNCNvNtNtCs8YpBKXcegdX_16payjoin_mailroom9directory5testss_42post_mailbox_increments_v2_db_entry_metric0s_0B9_
FN:612,_RNCNvNtNtCs8YpBKXcegdX_16payjoin_mailroom9directory5tests12collect_body0B7_
FN:592,_RNCNvNtNtCs8YpBKXcegdX_16payjoin_mailroom9directory5tests12test_service0B7_
FN:793,_RNCNvNtNtCs8YpBKXcegdX_16payjoin_mailroom9directory5testss_20health_check_with_v10B7_
FN:777,_RNCNvNtNtCs8YpBKXcegdX_16payjoin_mailroom9directory5testss_23health_check_without_v10B7_
FN:638,_RNCNvNtNtCs8YpBKXcegdX_16payjoin_mailroom9directory5testss_40post_v1_with_invalid_body_returns_reject0B7_
FN:819,_RNCNvNtNtCs8YpBKXcegdX_16payjoin_mailroom9directory5testss_42post_mailbox_increments_v2_db_entry_metric0B7_
FN:655,_RNCNvNtNtCs8YpBKXcegdX_16payjoin_mailroom9directory5testss_44post_v1_with_no_receiver_returns_unavailable0B7_
FN:700,_RNCNvNtNtCs8YpBKXcegdX_16payjoin_mailroom9directory5testss_48post_v1_with_blocked_address_returns_bad_request0B7_
FN:621,_RNCNvNtNtCs8YpBKXcegdX_16payjoin_mailroom9directory5testss_49post_v1_when_disabled_returns_version_unsupported0B7_
FNDA:0,_RNvMNtCsewJmtgcsYNl_16payjoin_mailroom9directoryNtB2_16BlockedAddresses17update_from_lines
FNDA:0,_RNvMNtCsewJmtgcsYNl_16payjoin_mailroom9directoryNtB2_16BlockedAddresses18from_address_lines
FNDA:0,_RNvMNtCsewJmtgcsYNl_16payjoin_mailroom9directoryNtB2_16BlockedAddresses5empty
FNDA:0,_RNvMs2_NtCsewJmtgcsYNl_16payjoin_mailroom9directoryNtB5_12HandlerError11to_response
FNDA:0,_RNvMs_NtCsewJmtgcsYNl_16payjoin_mailroom9directoryNtB4_2V13new
FNDA:0,_RNvNtCsewJmtgcsYNl_16payjoin_mailroom9directory17landing_page_html
FNDA:0,_RNvNtCsewJmtgcsYNl_16payjoin_mailroom9directory19parse_address_lines
FNDA:0,_RNvNtCsewJmtgcsYNl_16payjoin_mailroom9directory19screen_v1_addresses
FNDA:0,_RNvNtCsewJmtgcsYNl_16payjoin_mailroom9directory26handle_directory_home_path
FNDA:0,_RNvNtCsewJmtgcsYNl_16payjoin_mailroom9directory5empty
FNDA:0,_RNvNtCsewJmtgcsYNl_16payjoin_mailroom9directory9not_found
FNDA:0,_RNvXs3_NtCsewJmtgcsYNl_16payjoin_mailroom9directoryNtB5_12HandlerErrorINtNtCs2hl1TO11rA7_4core7convert4FromNtNtCs8E9Z5UEjpQ7_4http5error5ErrorE4from
FNDA:0,_RNvXs4_NtCsewJmtgcsYNl_16payjoin_mailroom9directoryNtB5_12HandlerErrorINtNtCs2hl1TO11rA7_4core7convert4FromNtNtCs9T6n9XKryM2_7payjoin9directory12ShortIdErrorE4from
FNDA:0,_RNCNvMNtCsewJmtgcsYNl_16payjoin_mailroom9directoryNtB4_16BlockedAddresses17update_from_lines0B6_
FNDA:0,_RNvXININtCsewJmtgcsYNl_16payjoin_mailroom9directorys0_0ppEINtB5_7ServicepEINtCspbhVovv5hz_13tower_service7ServiceINtNtCs8E9Z5UEjpQ7_4http7request7RequestpEE10poll_readyB7_
FNDA:0,_RINvMs1_NtCsewJmtgcsYNl_16payjoin_mailroom9directoryINtB6_7ServiceINtNtB8_2db9MetricsDbNtB15_16DbServiceAdapterEE13serve_requestNtNtCsbhYi8O17gzz_9axum_core4body4BodyEB8_
FNDA:0,_RINvMs1_NtCsewJmtgcsYNl_16payjoin_mailroom9directoryINtB6_7ServiceINtNtB8_2db9MetricsDbNtB15_16DbServiceAdapterEE14handle_post_v1NtNtCsbhYi8O17gzz_9axum_core4body4BodyEB8_
FNDA:0,_RINvMs1_NtCsewJmtgcsYNl_16payjoin_mailroom9directoryINtB6_7ServiceINtNtB8_2db9MetricsDbNtB15_16DbServiceAdapterEE16post_fallback_v1NtNtCsbhYi8O17gzz_9axum_core4body4BodyEB8_
FNDA:0,_RINvMs1_NtCsewJmtgcsYNl_16payjoin_mailroom9directoryINtB6_7ServiceINtNtB8_2db9MetricsDbNtB15_16DbServiceAdapterEE20handle_ohttp_gatewayNtNtCsbhYi8O17gzz_9axum_core4body4BodyEB8_
FNDA:0,_RINvNtCsewJmtgcsYNl_16payjoin_mailroom9directory11handle_peekNtNtNtCscqTumPH0Ix7_3std2io5error5ErrorEB4_
FNDA:0,_RINvNtCsewJmtgcsYNl_16payjoin_mailroom9directory4fullINtNtCs3JibHiv1CSv_5alloc3vec3VechEEB4_
FNDA:0,_RINvNtCsewJmtgcsYNl_16payjoin_mailroom9directory4fullNtNtCs3JibHiv1CSv_5alloc6string6StringEB4_
FNDA:0,_RINvNtCsewJmtgcsYNl_16payjoin_mailroom9directory4fullNtNtCsaaYEsrDHBtF_5bytes5bytes5BytesEB4_
FNDA:0,_RINvNtCsewJmtgcsYNl_16payjoin_mailroom9directory4fullReEB4_
FNDA:0,_RNCINvMs1_NtCsewJmtgcsYNl_16payjoin_mailroom9directoryINtB8_7ServiceINtNtBa_2db9MetricsDbNtB17_16DbServiceAdapterEE13serve_requestNtNtCsbhYi8O17gzz_9axum_core4body4BodyE0Ba_
FNDA:0,_RNCINvMs1_NtCsewJmtgcsYNl_16payjoin_mailroom9directoryINtB8_7ServiceINtNtBa_2db9MetricsDbNtB17_16DbServiceAdapterEE14handle_post_v1NtNtCsbhYi8O17gzz_9axum_core4body4BodyE0Ba_
FNDA:0,_RNCINvMs1_NtCsewJmtgcsYNl_16payjoin_mailroom9directoryINtB8_7ServiceINtNtBa_2db9MetricsDbNtB17_16DbServiceAdapterEE16post_fallback_v1NtNtCsbhYi8O17gzz_9axum_core4body4BodyE0Ba_
FNDA:0,_RNCINvMs1_NtCsewJmtgcsYNl_16payjoin_mailroom9directoryINtB8_7ServiceINtNtBa_2db9MetricsDbNtB17_16DbServiceAdapterEE20handle_ohttp_gatewayNtNtCsbhYi8O17gzz_9axum_core4body4BodyE0Ba_
FNDA:0,_RNCNCINvMs1_NtCsewJmtgcsYNl_16payjoin_mailroom9directoryINtBa_7ServiceINtNtBc_2db9MetricsDbNtB19_16DbServiceAdapterEE13serve_requestNtNtCsbhYi8O17gzz_9axum_core4body4BodyE00Bc_
FNDA:0,_RNCNCINvMs1_NtCsewJmtgcsYNl_16payjoin_mailroom9directoryINtBa_7ServiceINtNtBc_2db9MetricsDbNtB19_16DbServiceAdapterEE13serve_requestNtNtCsbhYi8O17gzz_9axum_core4body4BodyE0s_0Bc_
FNDA:0,_RNCNCINvMs1_NtCsewJmtgcsYNl_16payjoin_mailroom9directoryINtBa_7ServiceINtNtBc_2db9MetricsDbNtB19_16DbServiceAdapterEE20handle_ohttp_gatewayNtNtCsbhYi8O17gzz_9axum_core4body4BodyE00Bc_
FNDA:0,_RNCNCINvMs1_NtCsewJmtgcsYNl_16payjoin_mailroom9directoryINtBa_7ServiceINtNtBc_2db9MetricsDbNtB19_16DbServiceAdapterEE20handle_ohttp_gatewayNtNtCsbhYi8O17gzz_9axum_core4body4BodyE0s0_0Bc_
FNDA:0,_RNCNCINvMs1_NtCsewJmtgcsYNl_16payjoin_mailroom9directoryINtBa_7ServiceINtNtBc_2db9MetricsDbNtB19_16DbServiceAdapterEE20handle_ohttp_gatewayNtNtCsbhYi8O17gzz_9axum_core4body4BodyE0s1_0Bc_
FNDA:0,_RNCNCINvMs1_NtCsewJmtgcsYNl_16payjoin_mailroom9directoryINtBa_7ServiceINtNtBc_2db9MetricsDbNtB19_16DbServiceAdapterEE20handle_ohttp_gatewayNtNtCsbhYi8O17gzz_9axum_core4body4BodyE0s2_0Bc_
FNDA:0,_RNCNCINvMs1_NtCsewJmtgcsYNl_16payjoin_mailroom9directoryINtBa_7ServiceINtNtBc_2db9MetricsDbNtB19_16DbServiceAdapterEE20handle_ohttp_gatewayNtNtCsbhYi8O17gzz_9axum_core4body4BodyE0s3_0Bc_
FNDA:0,_RNCNCINvMs1_NtCsewJmtgcsYNl_16payjoin_mailroom9directoryINtBa_7ServiceINtNtBc_2db9MetricsDbNtB19_16DbServiceAdapterEE20handle_ohttp_gatewayNtNtCsbhYi8O17gzz_9axum_core4body4BodyE0s4_0Bc_
FNDA:0,_RNCNCINvMs1_NtCsewJmtgcsYNl_16payjoin_mailroom9directoryINtBa_7ServiceINtNtBc_2db9MetricsDbNtB19_16DbServiceAdapterEE20handle_ohttp_gatewayNtNtCsbhYi8O17gzz_9axum_core4body4BodyE0s_0Bc_
FNDA:0,_RNCNCNvMs1_NtCsewJmtgcsYNl_16payjoin_mailroom9directoryINtB9_7ServiceINtNtBb_2db9MetricsDbNtB18_16DbServiceAdapterEE12post_mailbox00Bb_
FNDA:0,_RNCNCNvMs1_NtCsewJmtgcsYNl_16payjoin_mailroom9directoryINtB9_7ServiceINtNtBb_2db9MetricsDbNtB18_16DbServiceAdapterEE14get_ohttp_keys00Bb_
FNDA:0,_RNCNCNvMs1_NtCsewJmtgcsYNl_16payjoin_mailroom9directoryINtB9_7ServiceINtNtBb_2db9MetricsDbNtB18_16DbServiceAdapterEE14put_payjoin_v100Bb_
FNDA:0,_RNCNCNvMs1_NtCsewJmtgcsYNl_16payjoin_mailroom9directoryINtB9_7ServiceINtNtBb_2db9MetricsDbNtB18_16DbServiceAdapterEE14put_payjoin_v10s_0Bb_
FNDA:0,_RNCNCNvMs1_NtCsewJmtgcsYNl_16payjoin_mailroom9directoryINtB9_7ServiceINtNtBb_2db9MetricsDbNtB18_16DbServiceAdapterEE18check_v1_blocklist00Bb_
FNDA:0,_RNCNvMs1_NtCsewJmtgcsYNl_16payjoin_mailroom9directoryINtB7_7ServiceINtNtB9_2db9MetricsDbNtB16_16DbServiceAdapterEE11get_mailbox0B9_
FNDA:0,_RNCNvMs1_NtCsewJmtgcsYNl_16payjoin_mailroom9directoryINtB7_7ServiceINtNtB9_2db9MetricsDbNtB16_16DbServiceAdapterEE12health_check0B9_
FNDA:0,_RNCNvMs1_NtCsewJmtgcsYNl_16payjoin_mailroom9directoryINtB7_7ServiceINtNtB9_2db9MetricsDbNtB16_16DbServiceAdapterEE12post_mailbox0B9_
FNDA:0,_RNCNvMs1_NtCsewJmtgcsYNl_16payjoin_mailroom9directoryINtB7_7ServiceINtNtB9_2db9MetricsDbNtB16_16DbServiceAdapterEE14get_ohttp_keys0B9_
FNDA:0,_RNCNvMs1_NtCsewJmtgcsYNl_16payjoin_mailroom9directoryINtB7_7ServiceINtNtB9_2db9MetricsDbNtB16_16DbServiceAdapterEE14put_payjoin_v10B9_
FNDA:0,_RNCNvMs1_NtCsewJmtgcsYNl_16payjoin_mailroom9directoryINtB7_7ServiceINtNtB9_2db9MetricsDbNtB16_16DbServiceAdapterEE18check_v1_blocklist0B9_
FNDA:0,_RNCNvMs1_NtCsewJmtgcsYNl_16payjoin_mailroom9directoryINtB7_7ServiceINtNtB9_2db9MetricsDbNtB16_16DbServiceAdapterEE24handle_ohttp_gateway_get0B9_
FNDA:0,_RNCNvMs1_NtCsewJmtgcsYNl_16payjoin_mailroom9directoryINtB7_7ServiceINtNtB9_2db9MetricsDbNtB16_16DbServiceAdapterEE26get_ohttp_allowed_purposes0B9_
FNDA:0,_RNCNvMs1_NtCsewJmtgcsYNl_16payjoin_mailroom9directoryINtB7_7ServiceINtNtB9_2db9MetricsDbNtB16_16DbServiceAdapterEE27handle_decapsulated_request0B9_
FNDA:0,_RNCNvNtCsewJmtgcsYNl_16payjoin_mailroom9directory19parse_address_lines0B5_
FNDA:0,_RNCNvNtCsewJmtgcsYNl_16payjoin_mailroom9directory26handle_directory_home_path0B5_
FNDA:0,_RNCNvXs0_NtCsewJmtgcsYNl_16payjoin_mailroom9directoryINtB7_7ServiceINtNtB9_2db9MetricsDbNtB16_16DbServiceAdapterEEINtCspbhVovv5hz_13tower_service7ServiceINtNtCs8E9Z5UEjpQ7_4http7request7RequestNtNtCsbhYi8O17gzz_9axum_core4body4BodyEE4call0B9_
FNDA:0,_RNvMs1_NtCsewJmtgcsYNl_16payjoin_mailroom9directoryINtB5_7ServiceINtNtB7_2db9MetricsDbNtB14_16DbServiceAdapterEE11get_mailboxB7_
FNDA:0,_RNvMs1_NtCsewJmtgcsYNl_16payjoin_mailroom9directoryINtB5_7ServiceINtNtB7_2db9MetricsDbNtB14_16DbServiceAdapterEE12health_checkB7_
FNDA:0,_RNvMs1_NtCsewJmtgcsYNl_16payjoin_mailroom9directoryINtB5_7ServiceINtNtB7_2db9MetricsDbNtB14_16DbServiceAdapterEE12post_mailboxB7_
FNDA:0,_RNvMs1_NtCsewJmtgcsYNl_16payjoin_mailroom9directoryINtB5_7ServiceINtNtB7_2db9MetricsDbNtB14_16DbServiceAdapterEE14get_ohttp_keysB7_
FNDA:0,_RNvMs1_NtCsewJmtgcsYNl_16payjoin_mailroom9directoryINtB5_7ServiceINtNtB7_2db9MetricsDbNtB14_16DbServiceAdapterEE14put_payjoin_v1B7_
FNDA:0,_RNvMs1_NtCsewJmtgcsYNl_16payjoin_mailroom9directoryINtB5_7ServiceINtNtB7_2db9MetricsDbNtB14_16DbServiceAdapterEE18check_v1_blocklistB7_
FNDA:0,_RNvMs1_NtCsewJmtgcsYNl_16payjoin_mailroom9directoryINtB5_7ServiceINtNtB7_2db9MetricsDbNtB14_16DbServiceAdapterEE24handle_ohttp_gateway_getB7_
FNDA:0,_RNvMs1_NtCsewJmtgcsYNl_16payjoin_mailroom9directoryINtB5_7ServiceINtNtB7_2db9MetricsDbNtB14_16DbServiceAdapterEE26get_ohttp_allowed_purposesB7_
FNDA:0,_RNvMs1_NtCsewJmtgcsYNl_16payjoin_mailroom9directoryINtB5_7ServiceINtNtB7_2db9MetricsDbNtB14_16DbServiceAdapterEE27handle_decapsulated_requestB7_
FNDA:0,_RNvMs1_NtCsewJmtgcsYNl_16payjoin_mailroom9directoryINtB5_7ServiceINtNtB7_2db9MetricsDbNtB14_16DbServiceAdapterEE3newB7_
FNDA:0,_RNvXs0_NtCsewJmtgcsYNl_16payjoin_mailroom9directoryINtB5_7ServiceINtNtB7_2db9MetricsDbNtB14_16DbServiceAdapterEEINtCspbhVovv5hz_13tower_service7ServiceINtNtCs8E9Z5UEjpQ7_4http7request7RequestNtNtCsbhYi8O17gzz_9axum_core4body4BodyEE4callB7_
FNDA:0,_RNvXININtCsk7yOOz582FI_16payjoin_mailroom9directorys0_0ppEINtB5_7ServicepEINtCspbhVovv5hz_13tower_service7ServiceINtNtCs8E9Z5UEjpQ7_4http7request7RequestpEE10poll_readyB7_
FNDA:0,_RNvMNtCsk7yOOz582FI_16payjoin_mailroom9directoryNtB2_16BlockedAddresses17update_from_lines
FNDA:0,_RNvMNtCsk7yOOz582FI_16payjoin_mailroom9directoryNtB2_16BlockedAddresses18from_address_lines
FNDA:0,_RNvMNtCsk7yOOz582FI_16payjoin_mailroom9directoryNtB2_16BlockedAddresses5empty
FNDA:1,_RNvMs2_NtCsk7yOOz582FI_16payjoin_mailroom9directoryNtB5_12HandlerError11to_response
FNDA:10,_RNvMs_NtCsk7yOOz582FI_16payjoin_mailroom9directoryNtB4_2V13new
FNDA:0,_RNvNtCsk7yOOz582FI_16payjoin_mailroom9directory17landing_page_html
FNDA:0,_RNvNtCsk7yOOz582FI_16payjoin_mailroom9directory19parse_address_lines
FNDA:0,_RNvNtCsk7yOOz582FI_16payjoin_mailroom9directory19screen_v1_addresses
FNDA:0,_RNvNtCsk7yOOz582FI_16payjoin_mailroom9directory26handle_directory_home_path
FNDA:33,_RNvNtCsk7yOOz582FI_16payjoin_mailroom9directory5empty
FNDA:0,_RNvNtCsk7yOOz582FI_16payjoin_mailroom9directory9not_found
FNDA:0,_RNvXs3_NtCsk7yOOz582FI_16payjoin_mailroom9directoryNtB5_12HandlerErrorINtNtCs2hl1TO11rA7_4core7convert4FromNtNtCs8E9Z5UEjpQ7_4http5error5ErrorE4from
FNDA:0,_RNvXs4_NtCsk7yOOz582FI_16payjoin_mailroom9directoryNtB5_12HandlerErrorINtNtCs2hl1TO11rA7_4core7convert4FromNtNtCsgunIiAgq1He_7payjoin9directory12ShortIdErrorE4from
FNDA:76,_RINvMs1_NtCsk7yOOz582FI_16payjoin_mailroom9directoryINtB6_7ServiceINtNtB8_2db9MetricsDbNtB15_16DbServiceAdapterEE13serve_requestNtNtCsbGkwFBM7K7x_9axum_core4body4BodyEB8_
FNDA:2,_RINvMs1_NtCsk7yOOz582FI_16payjoin_mailroom9directoryINtB6_7ServiceINtNtB8_2db9MetricsDbNtB15_16DbServiceAdapterEE14handle_post_v1NtNtCsbGkwFBM7K7x_9axum_core4body4BodyEB8_
FNDA:2,_RINvMs1_NtCsk7yOOz582FI_16payjoin_mailroom9directoryINtB6_7ServiceINtNtB8_2db9MetricsDbNtB15_16DbServiceAdapterEE16post_fallback_v1NtNtCsbGkwFBM7K7x_9axum_core4body4BodyEB8_
FNDA:33,_RINvMs1_NtCsk7yOOz582FI_16payjoin_mailroom9directoryINtB6_7ServiceINtNtB8_2db9MetricsDbNtB15_16DbServiceAdapterEE20handle_ohttp_gatewayNtNtCsbGkwFBM7K7x_9axum_core4body4BodyEB8_
FNDA:21,_RINvNtCsk7yOOz582FI_16payjoin_mailroom9directory11handle_peekNtNtNtCscqTumPH0Ix7_3std2io5error5ErrorEB4_
FNDA:90,_RINvNtCsk7yOOz582FI_16payjoin_mailroom9directory4fullINtNtCs3JibHiv1CSv_5alloc3vec3VechEEB4_
FNDA:20,_RINvNtCsk7yOOz582FI_16payjoin_mailroom9directory4fullNtNtCs3JibHiv1CSv_5alloc6string6StringEB4_
FNDA:9,_RINvNtCsk7yOOz582FI_16payjoin_mailroom9directory4fullNtNtCsaaYEsrDHBtF_5bytes5bytes5BytesEB4_
FNDA:5,_RINvNtCsk7yOOz582FI_16payjoin_mailroom9directory4fullReEB4_
FNDA:76,_RNCINvMs1_NtCsk7yOOz582FI_16payjoin_mailroom9directoryINtB8_7ServiceINtNtBa_2db9MetricsDbNtB17_16DbServiceAdapterEE13serve_requestNtNtCsbGkwFBM7K7x_9axum_core4body4BodyE0Ba_
FNDA:2,_RNCINvMs1_NtCsk7yOOz582FI_16payjoin_mailroom9directoryINtB8_7ServiceINtNtBa_2db9MetricsDbNtB17_16DbServiceAdapterEE14handle_post_v1NtNtCsbGkwFBM7K7x_9axum_core4body4BodyE0Ba_
FNDA:2,_RNCINvMs1_NtCsk7yOOz582FI_16payjoin_mailroom9directoryINtB8_7ServiceINtNtBa_2db9MetricsDbNtB17_16DbServiceAdapterEE16post_fallback_v1NtNtCsbGkwFBM7K7x_9axum_core4body4BodyE0Ba_
FNDA:33,_RNCINvMs1_NtCsk7yOOz582FI_16payjoin_mailroom9directoryINtB8_7ServiceINtNtBa_2db9MetricsDbNtB17_16DbServiceAdapterEE20handle_ohttp_gatewayNtNtCsbGkwFBM7K7x_9axum_core4body4BodyE0Ba_
FNDA:33,_RNCNCINvMs1_NtCsk7yOOz582FI_16payjoin_mailroom9directoryINtBa_7ServiceINtNtBc_2db9MetricsDbNtB19_16DbServiceAdapterEE13serve_requestNtNtCsbGkwFBM7K7x_9axum_core4body4BodyE00Bc_
FNDA:1,_RNCNCINvMs1_NtCsk7yOOz582FI_16payjoin_mailroom9directoryINtBa_7ServiceINtNtBc_2db9MetricsDbNtB19_16DbServiceAdapterEE13serve_requestNtNtCsbGkwFBM7K7x_9axum_core4body4BodyE0s_0Bc_
FNDA:0,_RNCNCINvMs1_NtCsk7yOOz582FI_16payjoin_mailroom9directoryINtBa_7ServiceINtNtBc_2db9MetricsDbNtB19_16DbServiceAdapterEE20handle_ohttp_gatewayNtNtCsbGkwFBM7K7x_9axum_core4body4BodyE00Bc_
FNDA:0,_RNCNCINvMs1_NtCsk7yOOz582FI_16payjoin_mailroom9directoryINtBa_7ServiceINtNtBc_2db9MetricsDbNtB19_16DbServiceAdapterEE20handle_ohttp_gatewayNtNtCsbGkwFBM7K7x_9axum_core4body4BodyE0s0_0Bc_
FNDA:0,_RNCNCINvMs1_NtCsk7yOOz582FI_16payjoin_mailroom9directoryINtBa_7ServiceINtNtBc_2db9MetricsDbNtB19_16DbServiceAdapterEE20handle_ohttp_gatewayNtNtCsbGkwFBM7K7x_9axum_core4body4BodyE0s1_0Bc_
FNDA:0,_RNCNCINvMs1_NtCsk7yOOz582FI_16payjoin_mailroom9directoryINtBa_7ServiceINtNtBc_2db9MetricsDbNtB19_16DbServiceAdapterEE20handle_ohttp_gatewayNtNtCsbGkwFBM7K7x_9axum_core4body4BodyE0s2_0Bc_
FNDA:0,_RNCNCINvMs1_NtCsk7yOOz582FI_16payjoin_mailroom9directoryINtBa_7ServiceINtNtBc_2db9MetricsDbNtB19_16DbServiceAdapterEE20handle_ohttp_gatewayNtNtCsbGkwFBM7K7x_9axum_core4body4BodyE0s3_0Bc_
FNDA:0,_RNCNCINvMs1_NtCsk7yOOz582FI_16payjoin_mailroom9directoryINtBa_7ServiceINtNtBc_2db9MetricsDbNtB19_16DbServiceAdapterEE20handle_ohttp_gatewayNtNtCsbGkwFBM7K7x_9axum_core4body4BodyE0s4_0Bc_
FNDA:1,_RNCNCINvMs1_NtCsk7yOOz582FI_16payjoin_mailroom9directoryINtBa_7ServiceINtNtBc_2db9MetricsDbNtB19_16DbServiceAdapterEE20handle_ohttp_gatewayNtNtCsbGkwFBM7K7x_9axum_core4body4BodyE0s_0Bc_
FNDA:0,_RNCNCNvMs1_NtCsk7yOOz582FI_16payjoin_mailroom9directoryINtB9_7ServiceINtNtBb_2db9MetricsDbNtB18_16DbServiceAdapterEE12post_mailbox00Bb_
FNDA:0,_RNCNCNvMs1_NtCsk7yOOz582FI_16payjoin_mailroom9directoryINtB9_7ServiceINtNtBb_2db9MetricsDbNtB18_16DbServiceAdapterEE14get_ohttp_keys00Bb_
FNDA:0,_RNCNCNvMs1_NtCsk7yOOz582FI_16payjoin_mailroom9directoryINtB9_7ServiceINtNtBb_2db9MetricsDbNtB18_16DbServiceAdapterEE14put_payjoin_v100Bb_
FNDA:0,_RNCNCNvMs1_NtCsk7yOOz582FI_16payjoin_mailroom9directoryINtB9_7ServiceINtNtBb_2db9MetricsDbNtB18_16DbServiceAdapterEE14put_payjoin_v10s_0Bb_
FNDA:3,_RNCNCNvMs1_NtCsk7yOOz582FI_16payjoin_mailroom9directoryINtB9_7ServiceINtNtBb_2db9MetricsDbNtB18_16DbServiceAdapterEE18check_v1_blocklist00Bb_
FNDA:0,_RNCNvMNtCsk7yOOz582FI_16payjoin_mailroom9directoryNtB4_16BlockedAddresses17update_from_lines0B6_
FNDA:19,_RNCNvMs1_NtCsk7yOOz582FI_16payjoin_mailroom9directoryINtB7_7ServiceINtNtB9_2db9MetricsDbNtB16_16DbServiceAdapterEE11get_mailbox0B9_
FNDA:20,_RNCNvMs1_NtCsk7yOOz582FI_16payjoin_mailroom9directoryINtB7_7ServiceINtNtB9_2db9MetricsDbNtB16_16DbServiceAdapterEE12health_check0B9_
FNDA:12,_RNCNvMs1_NtCsk7yOOz582FI_16payjoin_mailroom9directoryINtB7_7ServiceINtNtB9_2db9MetricsDbNtB16_16DbServiceAdapterEE12post_mailbox0B9_
FNDA:12,_RNCNvMs1_NtCsk7yOOz582FI_16payjoin_mailroom9directoryINtB7_7ServiceINtNtB9_2db9MetricsDbNtB16_16DbServiceAdapterEE14get_ohttp_keys0B9_
FNDA:1,_RNCNvMs1_NtCsk7yOOz582FI_16payjoin_mailroom9directoryINtB7_7ServiceINtNtB9_2db9MetricsDbNtB16_16DbServiceAdapterEE14put_payjoin_v10B9_
FNDA:3,_RNCNvMs1_NtCsk7yOOz582FI_16payjoin_mailroom9directoryINtB7_7ServiceINtNtB9_2db9MetricsDbNtB16_16DbServiceAdapterEE18check_v1_blocklist0B9_
FNDA:21,_RNCNvMs1_NtCsk7yOOz582FI_16payjoin_mailroom9directoryINtB7_7ServiceINtNtB9_2db9MetricsDbNtB16_16DbServiceAdapterEE24handle_ohttp_gateway_get0B9_
FNDA:9,_RNCNvMs1_NtCsk7yOOz582FI_16payjoin_mailroom9directoryINtB7_7ServiceINtNtB9_2db9MetricsDbNtB16_16DbServiceAdapterEE26get_ohttp_allowed_purposes0B9_
FNDA:32,_RNCNvMs1_NtCsk7yOOz582FI_16payjoin_mailroom9directoryINtB7_7ServiceINtNtB9_2db9MetricsDbNtB16_16DbServiceAdapterEE27handle_decapsulated_request0B9_
FNDA:0,_RNCNvNtCsk7yOOz582FI_16payjoin_mailroom9directory19parse_address_lines0B5_
FNDA:0,_RNCNvNtCsk7yOOz582FI_16payjoin_mailroom9directory26handle_directory_home_path0B5_
FNDA:76,_RNCNvXs0_NtCsk7yOOz582FI_16payjoin_mailroom9directoryINtB7_7ServiceINtNtB9_2db9MetricsDbNtB16_16DbServiceAdapterEEINtCspbhVovv5hz_13tower_service7ServiceINtNtCs8E9Z5UEjpQ7_4http7request7RequestNtNtCsbGkwFBM7K7x_9axum_core4body4BodyEE4call0B9_
FNDA:19,_RNvMs1_NtCsk7yOOz582FI_16payjoin_mailroom9directoryINtB5_7ServiceINtNtB7_2db9MetricsDbNtB14_16DbServiceAdapterEE11get_mailboxB7_
FNDA:20,_RNvMs1_NtCsk7yOOz582FI_16payjoin_mailroom9directoryINtB5_7ServiceINtNtB7_2db9MetricsDbNtB14_16DbServiceAdapterEE12health_checkB7_
FNDA:12,_RNvMs1_NtCsk7yOOz582FI_16payjoin_mailroom9directoryINtB5_7ServiceINtNtB7_2db9MetricsDbNtB14_16DbServiceAdapterEE12post_mailboxB7_
FNDA:12,_RNvMs1_NtCsk7yOOz582FI_16payjoin_mailroom9directoryINtB5_7ServiceINtNtB7_2db9MetricsDbNtB14_16DbServiceAdapterEE14get_ohttp_keysB7_
FNDA:1,_RNvMs1_NtCsk7yOOz582FI_16payjoin_mailroom9directoryINtB5_7ServiceINtNtB7_2db9MetricsDbNtB14_16DbServiceAdapterEE14put_payjoin_v1B7_
FNDA:3,_RNvMs1_NtCsk7yOOz582FI_16payjoin_mailroom9directoryINtB5_7ServiceINtNtB7_2db9MetricsDbNtB14_16DbServiceAdapterEE18check_v1_blocklistB7_
FNDA:21,_RNvMs1_NtCsk7yOOz582FI_16payjoin_mailroom9directoryINtB5_7ServiceINtNtB7_2db9MetricsDbNtB14_16DbServiceAdapterEE24handle_ohttp_gateway_getB7_
FNDA:9,_RNvMs1_NtCsk7yOOz582FI_16payjoin_mailroom9directoryINtB5_7ServiceINtNtB7_2db9MetricsDbNtB14_16DbServiceAdapterEE26get_ohttp_allowed_purposesB7_
FNDA:32,_RNvMs1_NtCsk7yOOz582FI_16payjoin_mailroom9directoryINtB5_7ServiceINtNtB7_2db9MetricsDbNtB14_16DbServiceAdapterEE27handle_decapsulated_requestB7_
FNDA:23,_RNvMs1_NtCsk7yOOz582FI_16payjoin_mailroom9directoryINtB5_7ServiceINtNtB7_2db9MetricsDbNtB14_16DbServiceAdapterEE3newB7_
FNDA:76,_RNvXs0_NtCsk7yOOz582FI_16payjoin_mailroom9directoryINtB5_7ServiceINtNtB7_2db9MetricsDbNtB14_16DbServiceAdapterEEINtCspbhVovv5hz_13tower_service7ServiceINtNtCs8E9Z5UEjpQ7_4http7request7RequestNtNtCsbGkwFBM7K7x_9axum_core4body4BodyEE4callB7_
FNDA:0,_RNvXININtCs8YpBKXcegdX_16payjoin_mailroom9directorys0_0ppEINtB5_7ServicepEINtCspbhVovv5hz_13tower_service7ServiceINtNtCs8E9Z5UEjpQ7_4http7request7RequestpEE10poll_readyB7_
FNDA:0,_RNvMNtCs8YpBKXcegdX_16payjoin_mailroom9directoryNtB2_16BlockedAddresses17update_from_lines
FNDA:1,_RNvMNtCs8YpBKXcegdX_16payjoin_mailroom9directoryNtB2_16BlockedAddresses18from_address_lines
FNDA:0,_RNvMNtCs8YpBKXcegdX_16payjoin_mailroom9directoryNtB2_16BlockedAddresses5empty
FNDA:3,_RNvMs2_NtCs8YpBKXcegdX_16payjoin_mailroom9directoryNtB5_12HandlerError11to_response
FNDA:4,_RNvMs_NtCs8YpBKXcegdX_16payjoin_mailroom9directoryNtB4_2V13new
FNDA:1,_RNvNtCs8YpBKXcegdX_16payjoin_mailroom9directory17landing_page_html
FNDA:1,_RNvNtCs8YpBKXcegdX_16payjoin_mailroom9directory19parse_address_lines
FNDA:7,_RNvNtCs8YpBKXcegdX_16payjoin_mailroom9directory19screen_v1_addresses
FNDA:0,_RNvNtCs8YpBKXcegdX_16payjoin_mailroom9directory26handle_directory_home_path
FNDA:4,_RNvNtCs8YpBKXcegdX_16payjoin_mailroom9directory5empty
FNDA:1,_RNvNtCs8YpBKXcegdX_16payjoin_mailroom9directory9not_found
FNDA:0,_RNvXs3_NtCs8YpBKXcegdX_16payjoin_mailroom9directoryNtB5_12HandlerErrorINtNtCs2hl1TO11rA7_4core7convert4FromNtNtCs8E9Z5UEjpQ7_4http5error5ErrorE4from
FNDA:0,_RNvXs4_NtCs8YpBKXcegdX_16payjoin_mailroom9directoryNtB5_12HandlerErrorINtNtCs2hl1TO11rA7_4core7convert4FromNtNtCsgunIiAgq1He_7payjoin9directory12ShortIdErrorE4from
FNDA:9,_RINvMs1_NtCs8YpBKXcegdX_16payjoin_mailroom9directoryINtB6_7ServiceINtNtB8_2db9MetricsDbNtB15_16DbServiceAdapterEE13serve_requestNtNtCsbGkwFBM7K7x_9axum_core4body4BodyEB8_
FNDA:0,_RINvMs1_NtCs8YpBKXcegdX_16payjoin_mailroom9directoryINtB6_7ServiceINtNtB8_2db9MetricsDbNtB15_16DbServiceAdapterEE14handle_post_v1NtNtCsbGkwFBM7K7x_9axum_core4body4BodyEB8_
FNDA:0,_RINvMs1_NtCs8YpBKXcegdX_16payjoin_mailroom9directoryINtB6_7ServiceINtNtB8_2db9MetricsDbNtB15_16DbServiceAdapterEE16post_fallback_v1NtNtCsbGkwFBM7K7x_9axum_core4body4BodyEB8_
FNDA:1,_RINvMs1_NtCs8YpBKXcegdX_16payjoin_mailroom9directoryINtB6_7ServiceINtNtB8_2db9MetricsDbNtB15_16DbServiceAdapterEE20handle_ohttp_gatewayNtNtCsbGkwFBM7K7x_9axum_core4body4BodyEB8_
FNDA:6,_RINvMs1_NtCs8YpBKXcegdX_16payjoin_mailroom9directoryINtB6_7ServiceNtNtNtB8_2db5files7FilesDbE13serve_requestNtNtCsbGkwFBM7K7x_9axum_core4body4BodyEB8_
FNDA:4,_RINvMs1_NtCs8YpBKXcegdX_16payjoin_mailroom9directoryINtB6_7ServiceNtNtNtB8_2db5files7FilesDbE14handle_post_v1NtNtCsbGkwFBM7K7x_9axum_core4body4BodyEB8_
FNDA:3,_RINvMs1_NtCs8YpBKXcegdX_16payjoin_mailroom9directoryINtB6_7ServiceNtNtNtB8_2db5files7FilesDbE16post_fallback_v1NtNtCsbGkwFBM7K7x_9axum_core4body4BodyEB8_
FNDA:0,_RINvMs1_NtCs8YpBKXcegdX_16payjoin_mailroom9directoryINtB6_7ServiceNtNtNtB8_2db5files7FilesDbE20handle_ohttp_gatewayNtNtCsbGkwFBM7K7x_9axum_core4body4BodyEB8_
FNDA:1,_RINvNtCs8YpBKXcegdX_16payjoin_mailroom9directory11handle_peekNtNtNtCscqTumPH0Ix7_3std2io5error5ErrorEB4_
FNDA:0,_RINvNtCs8YpBKXcegdX_16payjoin_mailroom9directory4fullINtNtCs3JibHiv1CSv_5alloc3vec3VechEEB4_
FNDA:6,_RINvNtCs8YpBKXcegdX_16payjoin_mailroom9directory4fullNtNtCs3JibHiv1CSv_5alloc6string6StringEB4_
FNDA:2,_RINvNtCs8YpBKXcegdX_16payjoin_mailroom9directory4fullNtNtCsaaYEsrDHBtF_5bytes5bytes5BytesEB4_
FNDA:9,_RINvNtCs8YpBKXcegdX_16payjoin_mailroom9directory4fullReEB4_
FNDA:9,_RNCINvMs1_NtCs8YpBKXcegdX_16payjoin_mailroom9directoryINtB8_7ServiceINtNtBa_2db9MetricsDbNtB17_16DbServiceAdapterEE13serve_requestNtNtCsbGkwFBM7K7x_9axum_core4body4BodyE0Ba_
FNDA:0,_RNCINvMs1_NtCs8YpBKXcegdX_16payjoin_mailroom9directoryINtB8_7ServiceINtNtBa_2db9MetricsDbNtB17_16DbServiceAdapterEE14handle_post_v1NtNtCsbGkwFBM7K7x_9axum_core4body4BodyE0Ba_
FNDA:0,_RNCINvMs1_NtCs8YpBKXcegdX_16payjoin_mailroom9directoryINtB8_7ServiceINtNtBa_2db9MetricsDbNtB17_16DbServiceAdapterEE16post_fallback_v1NtNtCsbGkwFBM7K7x_9axum_core4body4BodyE0Ba_
FNDA:1,_RNCINvMs1_NtCs8YpBKXcegdX_16payjoin_mailroom9directoryINtB8_7ServiceINtNtBa_2db9MetricsDbNtB17_16DbServiceAdapterEE20handle_ohttp_gatewayNtNtCsbGkwFBM7K7x_9axum_core4body4BodyE0Ba_
FNDA:6,_RNCINvMs1_NtCs8YpBKXcegdX_16payjoin_mailroom9directoryINtB8_7ServiceNtNtNtBa_2db5files7FilesDbE13serve_requestNtNtCsbGkwFBM7K7x_9axum_core4body4BodyE0Ba_
FNDA:4,_RNCINvMs1_NtCs8YpBKXcegdX_16payjoin_mailroom9directoryINtB8_7ServiceNtNtNtBa_2db5files7FilesDbE14handle_post_v1NtNtCsbGkwFBM7K7x_9axum_core4body4BodyE0Ba_
FNDA:3,_RNCINvMs1_NtCs8YpBKXcegdX_16payjoin_mailroom9directoryINtB8_7ServiceNtNtNtBa_2db5files7FilesDbE16post_fallback_v1NtNtCsbGkwFBM7K7x_9axum_core4body4BodyE0Ba_
FNDA:0,_RNCINvMs1_NtCs8YpBKXcegdX_16payjoin_mailroom9directoryINtB8_7ServiceNtNtNtBa_2db5files7FilesDbE20handle_ohttp_gatewayNtNtCsbGkwFBM7K7x_9axum_core4body4BodyE0Ba_
FNDA:2,_RNCNCINvMs1_NtCs8YpBKXcegdX_16payjoin_mailroom9directoryINtBa_7ServiceINtNtBc_2db9MetricsDbNtB19_16DbServiceAdapterEE13serve_requestNtNtCsbGkwFBM7K7x_9axum_core4body4BodyE00Bc_
FNDA:1,_RNCNCINvMs1_NtCs8YpBKXcegdX_16payjoin_mailroom9directoryINtBa_7ServiceINtNtBc_2db9MetricsDbNtB19_16DbServiceAdapterEE13serve_requestNtNtCsbGkwFBM7K7x_9axum_core4body4BodyE0s_0Bc_
FNDA:0,_RNCNCINvMs1_NtCs8YpBKXcegdX_16payjoin_mailroom9directoryINtBa_7ServiceINtNtBc_2db9MetricsDbNtB19_16DbServiceAdapterEE20handle_ohttp_gatewayNtNtCsbGkwFBM7K7x_9axum_core4body4BodyE00Bc_
FNDA:0,_RNCNCINvMs1_NtCs8YpBKXcegdX_16payjoin_mailroom9directoryINtBa_7ServiceINtNtBc_2db9MetricsDbNtB19_16DbServiceAdapterEE20handle_ohttp_gatewayNtNtCsbGkwFBM7K7x_9axum_core4body4BodyE0s0_0Bc_
FNDA:0,_RNCNCINvMs1_NtCs8YpBKXcegdX_16payjoin_mailroom9directoryINtBa_7ServiceINtNtBc_2db9MetricsDbNtB19_16DbServiceAdapterEE20handle_ohttp_gatewayNtNtCsbGkwFBM7K7x_9axum_core4body4BodyE0s1_0Bc_
FNDA:0,_RNCNCINvMs1_NtCs8YpBKXcegdX_16payjoin_mailroom9directoryINtBa_7ServiceINtNtBc_2db9MetricsDbNtB19_16DbServiceAdapterEE20handle_ohttp_gatewayNtNtCsbGkwFBM7K7x_9axum_core4body4BodyE0s2_0Bc_
FNDA:0,_RNCNCINvMs1_NtCs8YpBKXcegdX_16payjoin_mailroom9directoryINtBa_7ServiceINtNtBc_2db9MetricsDbNtB19_16DbServiceAdapterEE20handle_ohttp_gatewayNtNtCsbGkwFBM7K7x_9axum_core4body4BodyE0s3_0Bc_
FNDA:0,_RNCNCINvMs1_NtCs8YpBKXcegdX_16payjoin_mailroom9directoryINtBa_7ServiceINtNtBc_2db9MetricsDbNtB19_16DbServiceAdapterEE20handle_ohttp_gatewayNtNtCsbGkwFBM7K7x_9axum_core4body4BodyE0s4_0Bc_
FNDA:1,_RNCNCINvMs1_NtCs8YpBKXcegdX_16payjoin_mailroom9directoryINtBa_7ServiceINtNtBc_2db9MetricsDbNtB19_16DbServiceAdapterEE20handle_ohttp_gatewayNtNtCsbGkwFBM7K7x_9axum_core4body4BodyE0s_0Bc_
FNDA:0,_RNCNCINvMs1_NtCs8YpBKXcegdX_16payjoin_mailroom9directoryINtBa_7ServiceNtNtNtBc_2db5files7FilesDbE13serve_requestNtNtCsbGkwFBM7K7x_9axum_core4body4BodyE00Bc_
FNDA:1,_RNCNCINvMs1_NtCs8YpBKXcegdX_16payjoin_mailroom9directoryINtBa_7ServiceNtNtNtBc_2db5files7FilesDbE13serve_requestNtNtCsbGkwFBM7K7x_9axum_core4body4BodyE0s_0Bc_
FNDA:0,_RNCNCINvMs1_NtCs8YpBKXcegdX_16payjoin_mailroom9directoryINtBa_7ServiceNtNtNtBc_2db5files7FilesDbE20handle_ohttp_gatewayNtNtCsbGkwFBM7K7x_9axum_core4body4BodyE00Bc_
FNDA:0,_RNCNCINvMs1_NtCs8YpBKXcegdX_16payjoin_mailroom9directoryINtBa_7ServiceNtNtNtBc_2db5files7FilesDbE20handle_ohttp_gatewayNtNtCsbGkwFBM7K7x_9axum_core4body4BodyE0s0_0Bc_
FNDA:0,_RNCNCINvMs1_NtCs8YpBKXcegdX_16payjoin_mailroom9directoryINtBa_7ServiceNtNtNtBc_2db5files7FilesDbE20handle_ohttp_gatewayNtNtCsbGkwFBM7K7x_9axum_core4body4BodyE0s1_0Bc_
FNDA:0,_RNCNCINvMs1_NtCs8YpBKXcegdX_16payjoin_mailroom9directoryINtBa_7ServiceNtNtNtBc_2db5files7FilesDbE20handle_ohttp_gatewayNtNtCsbGkwFBM7K7x_9axum_core4body4BodyE0s2_0Bc_
FNDA:0,_RNCNCINvMs1_NtCs8YpBKXcegdX_16payjoin_mailroom9directoryINtBa_7ServiceNtNtNtBc_2db5files7FilesDbE20handle_ohttp_gatewayNtNtCsbGkwFBM7K7x_9axum_core4body4BodyE0s3_0Bc_
FNDA:0,_RNCNCINvMs1_NtCs8YpBKXcegdX_16payjoin_mailroom9directoryINtBa_7ServiceNtNtNtBc_2db5files7FilesDbE20handle_ohttp_gatewayNtNtCsbGkwFBM7K7x_9axum_core4body4BodyE0s4_0Bc_
FNDA:0,_RNCNCINvMs1_NtCs8YpBKXcegdX_16payjoin_mailroom9directoryINtBa_7ServiceNtNtNtBc_2db5files7FilesDbE20handle_ohttp_gatewayNtNtCsbGkwFBM7K7x_9axum_core4body4BodyE0s_0Bc_
FNDA:0,_RNCNCNvMs1_NtCs8YpBKXcegdX_16payjoin_mailroom9directoryINtB9_7ServiceINtNtBb_2db9MetricsDbNtB18_16DbServiceAdapterEE12post_mailbox00Bb_
FNDA:0,_RNCNCNvMs1_NtCs8YpBKXcegdX_16payjoin_mailroom9directoryINtB9_7ServiceINtNtBb_2db9MetricsDbNtB18_16DbServiceAdapterEE14get_ohttp_keys00Bb_
FNDA:0,_RNCNCNvMs1_NtCs8YpBKXcegdX_16payjoin_mailroom9directoryINtB9_7ServiceINtNtBb_2db9MetricsDbNtB18_16DbServiceAdapterEE14put_payjoin_v100Bb_
FNDA:0,_RNCNCNvMs1_NtCs8YpBKXcegdX_16payjoin_mailroom9directoryINtB9_7ServiceINtNtBb_2db9MetricsDbNtB18_16DbServiceAdapterEE14put_payjoin_v10s_0Bb_
FNDA:0,_RNCNCNvMs1_NtCs8YpBKXcegdX_16payjoin_mailroom9directoryINtB9_7ServiceINtNtBb_2db9MetricsDbNtB18_16DbServiceAdapterEE18check_v1_blocklist00Bb_
FNDA:0,_RNCNCNvMs1_NtCs8YpBKXcegdX_16payjoin_mailroom9directoryINtB9_7ServiceINtNtBb_2db9MetricsDbNtNtB18_5files7FilesDbEE12post_mailbox00Bb_
FNDA:0,_RNCNCNvMs1_NtCs8YpBKXcegdX_16payjoin_mailroom9directoryINtB9_7ServiceNtNtNtBb_2db5files7FilesDbE12post_mailbox00Bb_
FNDA:0,_RNCNCNvMs1_NtCs8YpBKXcegdX_16payjoin_mailroom9directoryINtB9_7ServiceNtNtNtBb_2db5files7FilesDbE14get_ohttp_keys00Bb_
FNDA:0,_RNCNCNvMs1_NtCs8YpBKXcegdX_16payjoin_mailroom9directoryINtB9_7ServiceNtNtNtBb_2db5files7FilesDbE14put_payjoin_v100Bb_
FNDA:0,_RNCNCNvMs1_NtCs8YpBKXcegdX_16payjoin_mailroom9directoryINtB9_7ServiceNtNtNtBb_2db5files7FilesDbE14put_payjoin_v10s_0Bb_
FNDA:2,_RNCNCNvMs1_NtCs8YpBKXcegdX_16payjoin_mailroom9directoryINtB9_7ServiceNtNtNtBb_2db5files7FilesDbE18check_v1_blocklist00Bb_
FNDA:0,_RNCNvMNtCs8YpBKXcegdX_16payjoin_mailroom9directoryNtB4_16BlockedAddresses17update_from_lines0B6_
FNDA:0,_RNCNvMs1_NtCs8YpBKXcegdX_16payjoin_mailroom9directoryINtB7_7ServiceINtNtB9_2db9MetricsDbNtB16_16DbServiceAdapterEE11get_mailbox0B9_
FNDA:4,_RNCNvMs1_NtCs8YpBKXcegdX_16payjoin_mailroom9directoryINtB7_7ServiceINtNtB9_2db9MetricsDbNtB16_16DbServiceAdapterEE12health_check0B9_
FNDA:0,_RNCNvMs1_NtCs8YpBKXcegdX_16payjoin_mailroom9directoryINtB7_7ServiceINtNtB9_2db9MetricsDbNtB16_16DbServiceAdapterEE12post_mailbox0B9_
FNDA:0,_RNCNvMs1_NtCs8YpBKXcegdX_16payjoin_mailroom9directoryINtB7_7ServiceINtNtB9_2db9MetricsDbNtB16_16DbServiceAdapterEE14get_ohttp_keys0B9_
FNDA:0,_RNCNvMs1_NtCs8YpBKXcegdX_16payjoin_mailroom9directoryINtB7_7ServiceINtNtB9_2db9MetricsDbNtB16_16DbServiceAdapterEE14put_payjoin_v10B9_
FNDA:0,_RNCNvMs1_NtCs8YpBKXcegdX_16payjoin_mailroom9directoryINtB7_7ServiceINtNtB9_2db9MetricsDbNtB16_16DbServiceAdapterEE18check_v1_blocklist0B9_
FNDA:2,_RNCNvMs1_NtCs8YpBKXcegdX_16payjoin_mailroom9directoryINtB7_7ServiceINtNtB9_2db9MetricsDbNtB16_16DbServiceAdapterEE24handle_ohttp_gateway_get0B9_
FNDA:2,_RNCNvMs1_NtCs8YpBKXcegdX_16payjoin_mailroom9directoryINtB7_7ServiceINtNtB9_2db9MetricsDbNtB16_16DbServiceAdapterEE26get_ohttp_allowed_purposes0B9_
FNDA:0,_RNCNvMs1_NtCs8YpBKXcegdX_16payjoin_mailroom9directoryINtB7_7ServiceINtNtB9_2db9MetricsDbNtB16_16DbServiceAdapterEE27handle_decapsulated_request0B9_
FNDA:1,_RNCNvMs1_NtCs8YpBKXcegdX_16payjoin_mailroom9directoryINtB7_7ServiceINtNtB9_2db9MetricsDbNtNtB16_5files7FilesDbEE12post_mailbox0B9_
FNDA:0,_RNCNvMs1_NtCs8YpBKXcegdX_16payjoin_mailroom9directoryINtB7_7ServiceNtNtNtB9_2db5files7FilesDbE11get_mailbox0B9_
FNDA:2,_RNCNvMs1_NtCs8YpBKXcegdX_16payjoin_mailroom9directoryINtB7_7ServiceNtNtNtB9_2db5files7FilesDbE12health_check0B9_
FNDA:0,_RNCNvMs1_NtCs8YpBKXcegdX_16payjoin_mailroom9directoryINtB7_7ServiceNtNtNtB9_2db5files7FilesDbE12post_mailbox0B9_
FNDA:0,_RNCNvMs1_NtCs8YpBKXcegdX_16payjoin_mailroom9directoryINtB7_7ServiceNtNtNtB9_2db5files7FilesDbE14get_ohttp_keys0B9_
FNDA:0,_RNCNvMs1_NtCs8YpBKXcegdX_16payjoin_mailroom9directoryINtB7_7ServiceNtNtNtB9_2db5files7FilesDbE14put_payjoin_v10B9_
FNDA:2,_RNCNvMs1_NtCs8YpBKXcegdX_16payjoin_mailroom9directoryINtB7_7ServiceNtNtNtB9_2db5files7FilesDbE18check_v1_blocklist0B9_
FNDA:0,_RNCNvMs1_NtCs8YpBKXcegdX_16payjoin_mailroom9directoryINtB7_7ServiceNtNtNtB9_2db5files7FilesDbE24handle_ohttp_gateway_get0B9_
FNDA:0,_RNCNvMs1_NtCs8YpBKXcegdX_16payjoin_mailroom9directoryINtB7_7ServiceNtNtNtB9_2db5files7FilesDbE26get_ohttp_allowed_purposes0B9_
FNDA:0,_RNCNvMs1_NtCs8YpBKXcegdX_16payjoin_mailroom9directoryINtB7_7ServiceNtNtNtB9_2db5files7FilesDbE27handle_decapsulated_request0B9_
FNDA:1,_RNCNvNtCs8YpBKXcegdX_16payjoin_mailroom9directory19parse_address_lines0B5_
FNDA:0,_RNCNvNtCs8YpBKXcegdX_16payjoin_mailroom9directory26handle_directory_home_path0B5_
FNDA:9,_RNCNvXs0_NtCs8YpBKXcegdX_16payjoin_mailroom9directoryINtB7_7ServiceINtNtB9_2db9MetricsDbNtB16_16DbServiceAdapterEEINtCspbhVovv5hz_13tower_service7ServiceINtNtCs8E9Z5UEjpQ7_4http7request7RequestNtNtCsbGkwFBM7K7x_9axum_core4body4BodyEE4call0B9_
FNDA:6,_RNCNvXs0_NtCs8YpBKXcegdX_16payjoin_mailroom9directoryINtB7_7ServiceNtNtNtB9_2db5files7FilesDbEINtCspbhVovv5hz_13tower_service7ServiceINtNtCs8E9Z5UEjpQ7_4http7request7RequestNtNtCsbGkwFBM7K7x_9axum_core4body4BodyEE4call0B9_
FNDA:0,_RNvMs1_NtCs8YpBKXcegdX_16payjoin_mailroom9directoryINtB5_7ServiceINtNtB7_2db9MetricsDbNtB14_16DbServiceAdapterEE11get_mailboxB7_
FNDA:4,_RNvMs1_NtCs8YpBKXcegdX_16payjoin_mailroom9directoryINtB5_7ServiceINtNtB7_2db9MetricsDbNtB14_16DbServiceAdapterEE12health_checkB7_
FNDA:0,_RNvMs1_NtCs8YpBKXcegdX_16payjoin_mailroom9directoryINtB5_7ServiceINtNtB7_2db9MetricsDbNtB14_16DbServiceAdapterEE12post_mailboxB7_
FNDA:0,_RNvMs1_NtCs8YpBKXcegdX_16payjoin_mailroom9directoryINtB5_7ServiceINtNtB7_2db9MetricsDbNtB14_16DbServiceAdapterEE14get_ohttp_keysB7_
FNDA:0,_RNvMs1_NtCs8YpBKXcegdX_16payjoin_mailroom9directoryINtB5_7ServiceINtNtB7_2db9MetricsDbNtB14_16DbServiceAdapterEE14put_payjoin_v1B7_
FNDA:0,_RNvMs1_NtCs8YpBKXcegdX_16payjoin_mailroom9directoryINtB5_7ServiceINtNtB7_2db9MetricsDbNtB14_16DbServiceAdapterEE18check_v1_blocklistB7_
FNDA:2,_RNvMs1_NtCs8YpBKXcegdX_16payjoin_mailroom9directoryINtB5_7ServiceINtNtB7_2db9MetricsDbNtB14_16DbServiceAdapterEE24handle_ohttp_gateway_getB7_
FNDA:2,_RNvMs1_NtCs8YpBKXcegdX_16payjoin_mailroom9directoryINtB5_7ServiceINtNtB7_2db9MetricsDbNtB14_16DbServiceAdapterEE26get_ohttp_allowed_purposesB7_
FNDA:0,_RNvMs1_NtCs8YpBKXcegdX_16payjoin_mailroom9directoryINtB5_7ServiceINtNtB7_2db9MetricsDbNtB14_16DbServiceAdapterEE27handle_decapsulated_requestB7_
FNDA:5,_RNvMs1_NtCs8YpBKXcegdX_16payjoin_mailroom9directoryINtB5_7ServiceINtNtB7_2db9MetricsDbNtB14_16DbServiceAdapterEE3newB7_
FNDA:1,_RNvMs1_NtCs8YpBKXcegdX_16payjoin_mailroom9directoryINtB5_7ServiceINtNtB7_2db9MetricsDbNtNtB14_5files7FilesDbEE12post_mailboxB7_
FNDA:1,_RNvMs1_NtCs8YpBKXcegdX_16payjoin_mailroom9directoryINtB5_7ServiceINtNtB7_2db9MetricsDbNtNtB14_5files7FilesDbEE3newB7_
FNDA:0,_RNvMs1_NtCs8YpBKXcegdX_16payjoin_mailroom9directoryINtB5_7ServiceNtNtNtB7_2db5files7FilesDbE11get_mailboxB7_
FNDA:2,_RNvMs1_NtCs8YpBKXcegdX_16payjoin_mailroom9directoryINtB5_7ServiceNtNtNtB7_2db5files7FilesDbE12health_checkB7_
FNDA:0,_RNvMs1_NtCs8YpBKXcegdX_16payjoin_mailroom9directoryINtB5_7ServiceNtNtNtB7_2db5files7FilesDbE12post_mailboxB7_
FNDA:0,_RNvMs1_NtCs8YpBKXcegdX_16payjoin_mailroom9directoryINtB5_7ServiceNtNtNtB7_2db5files7FilesDbE14get_ohttp_keysB7_
FNDA:0,_RNvMs1_NtCs8YpBKXcegdX_16payjoin_mailroom9directoryINtB5_7ServiceNtNtNtB7_2db5files7FilesDbE14put_payjoin_v1B7_
FNDA:2,_RNvMs1_NtCs8YpBKXcegdX_16payjoin_mailroom9directoryINtB5_7ServiceNtNtNtB7_2db5files7FilesDbE18check_v1_blocklistB7_
FNDA:0,_RNvMs1_NtCs8YpBKXcegdX_16payjoin_mailroom9directoryINtB5_7ServiceNtNtNtB7_2db5files7FilesDbE24handle_ohttp_gateway_getB7_
FNDA:0,_RNvMs1_NtCs8YpBKXcegdX_16payjoin_mailroom9directoryINtB5_7ServiceNtNtNtB7_2db5files7FilesDbE26get_ohttp_allowed_purposesB7_
FNDA:0,_RNvMs1_NtCs8YpBKXcegdX_16payjoin_mailroom9directoryINtB5_7ServiceNtNtNtB7_2db5files7FilesDbE27handle_decapsulated_requestB7_
FNDA:6,_RNvMs1_NtCs8YpBKXcegdX_16payjoin_mailroom9directoryINtB5_7ServiceNtNtNtB7_2db5files7FilesDbE3newB7_
FNDA:9,_RNvXs0_NtCs8YpBKXcegdX_16payjoin_mailroom9directoryINtB5_7ServiceINtNtB7_2db9MetricsDbNtB14_16DbServiceAdapterEEINtCspbhVovv5hz_13tower_service7ServiceINtNtCs8E9Z5UEjpQ7_4http7request7RequestNtNtCsbGkwFBM7K7x_9axum_core4body4BodyEE4callB7_
FNDA:6,_RNvXs0_NtCs8YpBKXcegdX_16payjoin_mailroom9directoryINtB5_7ServiceNtNtNtB7_2db5files7FilesDbEINtCspbhVovv5hz_13tower_service7ServiceINtNtCs8E9Z5UEjpQ7_4http7request7RequestNtNtCsbGkwFBM7K7x_9axum_core4body4BodyEE4callB7_
FNDA:6,_RNvNtNtCs8YpBKXcegdX_16payjoin_mailroom9directory5tests12collect_body
FNDA:6,_RNvNtNtCs8YpBKXcegdX_16payjoin_mailroom9directory5tests12test_service
FNDA:5,_RNvNtNtCs8YpBKXcegdX_16payjoin_mailroom9directory5tests14addr_to_script
FNDA:5,_RNvNtNtCs8YpBKXcegdX_16payjoin_mailroom9directory5tests19valid_short_id_path
FNDA:5,_RNvNtNtCs8YpBKXcegdX_16payjoin_mailroom9directory5tests21make_test_psbt_base64
FNDA:1,_RNvNtNtCs8YpBKXcegdX_16payjoin_mailroom9directory5testss_20health_check_with_v1
FNDA:1,_RNvNtNtCs8YpBKXcegdX_16payjoin_mailroom9directory5testss_23health_check_without_v1
FNDA:1,_RNvNtNtCs8YpBKXcegdX_16payjoin_mailroom9directory5testss_24screen_allows_clean_psbt
FNDA:1,_RNvNtNtCs8YpBKXcegdX_16payjoin_mailroom9directory5testss_28screen_blocks_bech32_address
FNDA:1,_RNvNtNtCs8YpBKXcegdX_16payjoin_mailroom9directory5testss_29landing_page_contains_version
FNDA:1,_RNvNtNtCs8YpBKXcegdX_16payjoin_mailroom9directory5testss_33screen_allows_non_blocked_address
FNDA:1,_RNvNtNtCs8YpBKXcegdX_16payjoin_mailroom9directory5testss_34screen_parse_error_on_invalid_psbt
FNDA:1,_RNvNtNtCs8YpBKXcegdX_16payjoin_mailroom9directory5testss_36screen_blocks_blocked_output_address
FNDA:1,_RNvNtNtCs8YpBKXcegdX_16payjoin_mailroom9directory5testss_36screen_parse_error_on_invalid_base64
FNDA:1,_RNvNtNtCs8YpBKXcegdX_16payjoin_mailroom9directory5testss_40post_v1_with_invalid_body_returns_reject
FNDA:1,_RNvNtNtCs8YpBKXcegdX_16payjoin_mailroom9directory5testss_42post_mailbox_increments_v2_db_entry_metric
FNDA:1,_RNvNtNtCs8YpBKXcegdX_16payjoin_mailroom9directory5testss_44post_v1_with_no_receiver_returns_unavailable
FNDA:1,_RNvNtNtCs8YpBKXcegdX_16payjoin_mailroom9directory5testss_48post_v1_with_blocked_address_returns_bad_request
FNDA:1,_RNvNtNtCs8YpBKXcegdX_16payjoin_mailroom9directory5testss_49post_v1_when_disabled_returns_version_unsupported
FNDA:1,_RNCNCNvNtNtCs8YpBKXcegdX_16payjoin_mailroom9directory5testss_42post_mailbox_increments_v2_db_entry_metric00B9_
FNDA:1,_RNCNCNvNtNtCs8YpBKXcegdX_16payjoin_mailroom9directory5testss_42post_mailbox_increments_v2_db_entry_metric0s0_0B9_
FNDA:1,_RNCNCNvNtNtCs8YpBKXcegdX_16payjoin_mailroom9directory5testss_42post_mailbox_increments_v2_db_entry_metric0s_0B9_
FNDA:6,_RNCNvNtNtCs8YpBKXcegdX_16payjoin_mailroom9directory5tests12collect_body0B7_
FNDA:6,_RNCNvNtNtCs8YpBKXcegdX_16payjoin_mailroom9directory5tests12test_service0B7_
FNDA:1,_RNCNvNtNtCs8YpBKXcegdX_16payjoin_mailroom9directory5testss_20health_check_with_v10B7_
FNDA:1,_RNCNvNtNtCs8YpBKXcegdX_16payjoin_mailroom9directory5testss_23health_check_without_v10B7_
FNDA:1,_RNCNvNtNtCs8YpBKXcegdX_16payjoin_mailroom9directory5testss_40post_v1_with_invalid_body_returns_reject0B7_
FNDA:1,_RNCNvNtNtCs8YpBKXcegdX_16payjoin_mailroom9directory5testss_42post_mailbox_increments_v2_db_entry_metric0B7_
FNDA:1,_RNCNvNtNtCs8YpBKXcegdX_16payjoin_mailroom9directory5testss_44post_v1_with_no_receiver_returns_unavailable0B7_
FNDA:1,_RNCNvNtNtCs8YpBKXcegdX_16payjoin_mailroom9directory5testss_48post_v1_with_blocked_address_returns_bad_request0B7_
FNDA:1,_RNCNvNtNtCs8YpBKXcegdX_16payjoin_mailroom9directory5testss_49post_v1_when_disabled_returns_version_unsupported0B7_
FNF:93
FNH:75
DA:42,0
DA:43,0
DA:44,0
DA:46,1
DA:47,1
DA:48,1
DA:52,0
DA:53,0
DA:54,0
DA:55,0
DA:56,0
DA:57,0
DA:70,14
DA:73,1
DA:74,1
DA:75,1
DA:76,1
DA:77,1
DA:78,0
DA:79,1
DA:80,1
DA:81,1
DA:82,0
DA:83,0
DA:84,0
DA:87,1
DA:88,1
DA:89,1
DA:109,0
DA:110,0
DA:111,0
DA:113,91
DA:114,91
DA:115,91
DA:116,91
DA:120,35
DA:121,35
DA:122,35
DA:124,91
DA:125,91
DA:126,91
DA:127,91
DA:128,91
DA:129,91
DA:130,91
DA:131,91
DA:132,91
DA:133,91
DA:137,91
DA:138,91
DA:139,91
DA:140,91
DA:142,35
DA:143,1
DA:144,1
DA:145,1
DA:146,1
DA:147,1
DA:148,34
DA:149,56
DA:151,90
DA:152,34
DA:153,34
DA:154,23
DA:155,23
DA:156,6
DA:157,27
DA:158,6
DA:159,27
DA:160,1
DA:161,1
DA:163,90
DA:166,90
DA:167,90
DA:168,91
DA:171,6
DA:172,6
DA:173,6
DA:174,6
DA:175,6
DA:176,6
DA:177,6
DA:178,6
DA:179,6
DA:180,6
DA:181,6
DA:182,5
DA:184,1
DA:185,1
DA:186,1
DA:187,1
DA:189,6
DA:192,34
DA:193,34
DA:194,34
DA:195,34
DA:196,34
DA:197,34
DA:198,34
DA:199,34
DA:200,34
DA:201,34
DA:204,34
DA:205,34
DA:206,34
DA:207,34
DA:208,32
DA:209,32
DA:210,32
DA:211,32
DA:212,32
DA:213,32
DA:214,32
DA:215,32
DA:216,32
DA:217,32
DA:218,32
DA:219,32
DA:220,0
DA:222,32
DA:225,32
DA:228,32
DA:229,32
DA:230,32
DA:231,32
DA:233,32
DA:234,0
DA:235,0
DA:236,32
DA:237,32
DA:238,32
DA:239,32
DA:240,32
DA:241,32
DA:242,32
DA:243,32
DA:244,32
DA:245,32
DA:246,32
DA:247,32
DA:248,32
DA:249,32
DA:250,32
DA:251,32
DA:252,34
DA:254,32
DA:255,32
DA:256,32
DA:257,32
DA:258,32
DA:259,32
DA:260,32
DA:261,32
DA:262,32
DA:263,12
DA:264,19
DA:265,1
DA:266,0
DA:268,32
DA:270,13
DA:271,13
DA:272,13
DA:273,13
DA:274,13
DA:275,13
DA:276,13
DA:277,13
DA:278,13
DA:279,13
DA:280,0
DA:281,13
DA:282,13
DA:283,13
DA:284,0
DA:286,13
DA:288,19
DA:289,19
DA:290,19
DA:291,19
DA:292,19
DA:293,19
DA:298,5
DA:299,5
DA:300,1
DA:301,1
DA:302,1
DA:304,1
DA:305,1
DA:306,1
DA:308,0
DA:309,0
DA:311,0
DA:312,4
DA:313,4
DA:314,5
DA:316,1
DA:317,1
DA:318,1
DA:319,1
DA:320,1
DA:321,1
DA:322,1
DA:323,1
DA:324,1
DA:325,1
DA:326,0
DA:327,1
DA:329,1
DA:330,1
DA:332,1
DA:333,1
DA:334,0
DA:336,1
DA:338,5
DA:339,5
DA:340,5
DA:341,5
DA:342,5
DA:343,5
DA:344,5
DA:345,5
DA:346,5
DA:347,5
DA:348,5
DA:349,5
DA:350,5
DA:351,5
DA:352,5
DA:353,5
DA:355,5
DA:356,5
DA:357,0
DA:359,5
DA:360,4
DA:361,1
DA:363,4
DA:365,3
DA:366,3
DA:367,3
DA:368,3
DA:369,3
DA:371,5
DA:373,23
DA:374,23
DA:375,23
DA:376,12
DA:378,23
DA:380,12
DA:381,12
DA:382,12
DA:383,12
DA:384,12
DA:385,12
DA:386,12
DA:387,12
DA:388,12
DA:389,12
DA:391,11
DA:398,11
DA:399,11
DA:401,11
DA:402,11
DA:403,11
DA:404,11
DA:406,26
DA:407,26
DA:408,26
DA:409,26
DA:410,26
DA:411,26
DA:412,26
DA:415,22
DA:416,22
DA:417,22
DA:418,22
DA:419,22
DA:420,14
DA:421,8
DA:422,0
DA:423,0
DA:424,0
DA:426,8
DA:427,0
DA:428,0
DA:429,0
DA:430,0
DA:431,0
DA:432,0
DA:433,0
DA:436,22
DA:438,1
DA:441,1
DA:442,1
DA:443,0
DA:445,1
DA:446,1
DA:448,0
DA:449,0
DA:450,0
DA:451,0
DA:452,0
DA:453,0
DA:454,0
DA:470,4
DA:471,4
DA:472,4
DA:473,0
DA:474,0
DA:475,0
DA:476,0
DA:478,0
DA:479,0
DA:480,0
DA:482,0
DA:483,0
DA:484,0
DA:486,2
DA:488,2
DA:489,2
DA:490,2
DA:491,2
DA:492,2
DA:494,0
DA:495,0
DA:496,0
DA:498,1
DA:499,1
DA:500,1
DA:501,1
DA:503,1
DA:504,1
DA:505,1
DA:508,4
DA:509,4
DA:513,0
DA:517,0
DA:518,0
DA:519,0
DA:522,1
DA:523,1
DA:524,1
DA:525,1
DA:526,1
DA:528,37
DA:530,141
DA:538,7
DA:539,7
DA:540,7
DA:541,7
DA:545,7
DA:546,6
DA:547,1
DA:549,6
DA:550,5
DA:551,1
DA:555,5
DA:556,5
DA:557,3
DA:558,2
DA:562,2
DA:563,2
DA:564,0
DA:565,0
DA:566,0
DA:567,2
DA:568,2
DA:569,0
DA:570,0
DA:571,0
DA:572,0
DA:573,0
DA:574,0
DA:575,0
DA:576,2
DA:578,2
DA:579,7
DA:592,6
DA:593,6
DA:594,6
DA:595,6
DA:596,6
DA:597,6
DA:598,6
DA:599,6
DA:600,6
DA:601,6
DA:602,6
DA:603,6
DA:604,6
DA:607,5
DA:608,5
DA:609,5
DA:610,5
DA:612,6
DA:613,6
DA:614,6
DA:615,6
DA:616,6
DA:621,1
DA:622,1
DA:623,1
DA:624,1
DA:625,1
DA:626,1
DA:627,1
DA:628,1
DA:630,1
DA:631,1
DA:633,1
DA:634,1
DA:635,1
DA:638,1
DA:639,1
DA:640,1
DA:641,1
DA:642,1
DA:643,1
DA:644,1
DA:645,1
DA:647,1
DA:648,1
DA:650,1
DA:651,1
DA:652,1
DA:655,1
DA:656,1
DA:657,1
DA:658,1
DA:659,1
DA:660,1
DA:661,1
DA:662,1
DA:664,1
DA:665,1
DA:667,1
DA:668,1
DA:669,1
DA:673,5
DA:678,5
DA:679,5
DA:680,5
DA:682,5
DA:683,5
DA:684,5
DA:685,5
DA:686,5
DA:687,5
DA:689,5
DA:690,5
DA:691,5
DA:693,5
DA:694,5
DA:695,5
DA:696,5
DA:697,5
DA:700,1
DA:701,1
DA:702,1
DA:703,1
DA:704,1
DA:705,1
DA:706,1
DA:707,1
DA:708,1
DA:709,1
DA:710,1
DA:712,1
DA:713,1
DA:715,1
DA:716,1
DA:717,1
DA:720,1
DA:721,1
DA:722,1
DA:724,1
DA:725,1
DA:726,1
DA:729,1
DA:730,1
DA:731,1
DA:732,1
DA:733,1
DA:734,1
DA:737,1
DA:738,1
DA:739,1
DA:740,1
DA:742,1
DA:743,1
DA:744,1
DA:747,1
DA:748,1
DA:749,1
DA:750,1
DA:751,1
DA:754,1
DA:757,1
DA:759,1
DA:760,1
DA:761,1
DA:762,1
DA:763,1
DA:766,1
DA:767,1
DA:768,1
DA:770,1
DA:771,1
DA:772,1
DA:777,1
DA:778,1
DA:779,1
DA:780,1
DA:781,1
DA:782,1
DA:783,1
DA:785,1
DA:786,1
DA:787,1
DA:788,1
DA:789,1
DA:790,1
DA:793,1
DA:794,1
DA:795,1
DA:796,1
DA:797,1
DA:798,1
DA:799,1
DA:801,1
DA:802,1
DA:803,1
DA:804,1
DA:805,1
DA:806,1
DA:811,1
DA:812,1
DA:813,1
DA:814,1
DA:819,1
DA:827,1
DA:828,1
DA:829,1
DA:830,1
DA:832,1
DA:833,1
DA:834,1
DA:835,1
DA:836,1
DA:837,1
DA:838,1
DA:839,1
DA:840,1
DA:841,1
DA:842,1
DA:843,1
DA:845,1
DA:846,1
DA:847,1
DA:848,1
DA:849,1
DA:850,1
DA:852,1
DA:853,1
DA:854,1
DA:855,1
DA:856,1
DA:857,1
DA:858,1
DA:859,1
DA:866,1
DA:867,1
DA:868,1
DA:869,1
DA:870,1
DA:871,1
DA:872,1
DA:873,1
DA:874,1
DA:875,1
DA:876,1
DA:877,1
DA:878,1
DA:879,1
BRF:0
BRH:0
LF:637
LH:549
end_of_record
SF:/Users/bene/bitcoin/rust-payjoin/payjoin-mailroom/src/key_config.rs
FN:61,_RNCNvNtCsewJmtgcsYNl_16payjoin_mailroom10key_config18read_server_config0B5_
FN:48,_RNCNvNtCsewJmtgcsYNl_16payjoin_mailroom10key_config22persist_new_key_config0B5_
FN:51,_RNCNvNtCsewJmtgcsYNl_16payjoin_mailroom10key_config22persist_new_key_configs_0B5_
FN:28,_RNvXNtCsewJmtgcsYNl_16payjoin_mailroom10key_configNtCs5dDj8Qoj6aR_13bitcoin_ohttp6ServerINtNtCs2hl1TO11rA7_4core7convert4FromNtB2_15ServerKeyConfigE4from
FN:58,_RNvNtCsewJmtgcsYNl_16payjoin_mailroom10key_config18read_server_config
FN:39,_RNvNtCsewJmtgcsYNl_16payjoin_mailroom10key_config22persist_new_key_config
FN:32,_RNvNtCsewJmtgcsYNl_16payjoin_mailroom10key_config23gen_ohttp_server_config
FN:75,_RNvNtCsewJmtgcsYNl_16payjoin_mailroom10key_config8key_path
FN:28,_RNvXNtCsk7yOOz582FI_16payjoin_mailroom10key_configNtCs7isRWhWxEjB_13bitcoin_ohttp6ServerINtNtCs2hl1TO11rA7_4core7convert4FromNtB2_15ServerKeyConfigE4from
FN:61,_RNCNvNtCsk7yOOz582FI_16payjoin_mailroom10key_config18read_server_config0B5_
FN:48,_RNCNvNtCsk7yOOz582FI_16payjoin_mailroom10key_config22persist_new_key_config0B5_
FN:51,_RNCNvNtCsk7yOOz582FI_16payjoin_mailroom10key_config22persist_new_key_configs_0B5_
FN:58,_RNvNtCsk7yOOz582FI_16payjoin_mailroom10key_config18read_server_config
FN:39,_RNvNtCsk7yOOz582FI_16payjoin_mailroom10key_config22persist_new_key_config
FN:32,_RNvNtCsk7yOOz582FI_16payjoin_mailroom10key_config23gen_ohttp_server_config
FN:75,_RNvNtCsk7yOOz582FI_16payjoin_mailroom10key_config8key_path
FN:82,_RNvNtNtCs8YpBKXcegdX_16payjoin_mailroom10key_config5testss_24round_trip_server_config
FN:58,_RNvNtCs8YpBKXcegdX_16payjoin_mailroom10key_config18read_server_config
FN:39,_RNvNtCs8YpBKXcegdX_16payjoin_mailroom10key_config22persist_new_key_config
FN:32,_RNvNtCs8YpBKXcegdX_16payjoin_mailroom10key_config23gen_ohttp_server_config
FN:75,_RNvNtCs8YpBKXcegdX_16payjoin_mailroom10key_config8key_path
FN:28,_RNvXNtCs8YpBKXcegdX_16payjoin_mailroom10key_configNtCs7isRWhWxEjB_13bitcoin_ohttp6ServerINtNtCs2hl1TO11rA7_4core7convert4FromNtB2_15ServerKeyConfigE4from
FN:61,_RNCNvNtCs8YpBKXcegdX_16payjoin_mailroom10key_config18read_server_config0B5_
FN:48,_RNCNvNtCs8YpBKXcegdX_16payjoin_mailroom10key_config22persist_new_key_config0B5_
FN:51,_RNCNvNtCs8YpBKXcegdX_16payjoin_mailroom10key_config22persist_new_key_configs_0B5_
FNDA:0,_RNCNvNtCsewJmtgcsYNl_16payjoin_mailroom10key_config18read_server_config0B5_
FNDA:0,_RNCNvNtCsewJmtgcsYNl_16payjoin_mailroom10key_config22persist_new_key_config0B5_
FNDA:0,_RNCNvNtCsewJmtgcsYNl_16payjoin_mailroom10key_config22persist_new_key_configs_0B5_
FNDA:0,_RNvXNtCsewJmtgcsYNl_16payjoin_mailroom10key_configNtCs5dDj8Qoj6aR_13bitcoin_ohttp6ServerINtNtCs2hl1TO11rA7_4core7convert4FromNtB2_15ServerKeyConfigE4from
FNDA:0,_RNvNtCsewJmtgcsYNl_16payjoin_mailroom10key_config18read_server_config
FNDA:0,_RNvNtCsewJmtgcsYNl_16payjoin_mailroom10key_config22persist_new_key_config
FNDA:0,_RNvNtCsewJmtgcsYNl_16payjoin_mailroom10key_config23gen_ohttp_server_config
FNDA:0,_RNvNtCsewJmtgcsYNl_16payjoin_mailroom10key_config8key_path
FNDA:23,_RNvXNtCsk7yOOz582FI_16payjoin_mailroom10key_configNtCs7isRWhWxEjB_13bitcoin_ohttp6ServerINtNtCs2hl1TO11rA7_4core7convert4FromNtB2_15ServerKeyConfigE4from
FNDA:23,_RNCNvNtCsk7yOOz582FI_16payjoin_mailroom10key_config18read_server_config0B5_
FNDA:0,_RNCNvNtCsk7yOOz582FI_16payjoin_mailroom10key_config22persist_new_key_config0B5_
FNDA:0,_RNCNvNtCsk7yOOz582FI_16payjoin_mailroom10key_config22persist_new_key_configs_0B5_
FNDA:23,_RNvNtCsk7yOOz582FI_16payjoin_mailroom10key_config18read_server_config
FNDA:23,_RNvNtCsk7yOOz582FI_16payjoin_mailroom10key_config22persist_new_key_config
FNDA:23,_RNvNtCsk7yOOz582FI_16payjoin_mailroom10key_config23gen_ohttp_server_config
FNDA:46,_RNvNtCsk7yOOz582FI_16payjoin_mailroom10key_config8key_path
FNDA:1,_RNvNtNtCs8YpBKXcegdX_16payjoin_mailroom10key_config5testss_24round_trip_server_config
FNDA:6,_RNvNtCs8YpBKXcegdX_16payjoin_mailroom10key_config18read_server_config
FNDA:6,_RNvNtCs8YpBKXcegdX_16payjoin_mailroom10key_config22persist_new_key_config
FNDA:13,_RNvNtCs8YpBKXcegdX_16payjoin_mailroom10key_config23gen_ohttp_server_config
FNDA:12,_RNvNtCs8YpBKXcegdX_16payjoin_mailroom10key_config8key_path
FNDA:12,_RNvXNtCs8YpBKXcegdX_16payjoin_mailroom10key_configNtCs7isRWhWxEjB_13bitcoin_ohttp6ServerINtNtCs2hl1TO11rA7_4core7convert4FromNtB2_15ServerKeyConfigE4from
FNDA:5,_RNCNvNtCs8YpBKXcegdX_16payjoin_mailroom10key_config18read_server_config0B5_
FNDA:0,_RNCNvNtCs8YpBKXcegdX_16payjoin_mailroom10key_config22persist_new_key_config0B5_
FNDA:0,_RNCNvNtCs8YpBKXcegdX_16payjoin_mailroom10key_config22persist_new_key_configs_0B5_
FNF:9
FNH:7
DA:28,35
DA:32,36
DA:33,36
DA:34,36
DA:35,36
DA:36,36
DA:39,29
DA:43,29
DA:44,29
DA:45,29
DA:46,29
DA:47,29
DA:48,29
DA:50,29
DA:51,29
DA:52,29
DA:53,29
DA:54,29
DA:58,29
DA:59,29
DA:60,29
DA:61,29
DA:62,1
DA:63,1
DA:65,1
DA:66,1
DA:68,1
DA:69,1
DA:70,29
DA:75,58
DA:82,1
DA:83,1
DA:84,1
DA:85,1
DA:86,1
DA:87,1
DA:88,1
DA:89,1
DA:90,1
BRF:0
BRH:0
LF:42
LH:40
end_of_record
SF:/Users/bene/bitcoin/rust-payjoin/payjoin-mailroom/src/lib.rs
FN:386,_RNvCsewJmtgcsYNl_16payjoin_mailroom13route_request
FN:226,_RNvCsewJmtgcsYNl_16payjoin_mailroom14init_directory
FN:413,_RNvCsewJmtgcsYNl_16payjoin_mailroom16is_relay_request
FN:82,_RNvCsewJmtgcsYNl_16payjoin_mailroom16serve_manual_tls
FN:346,_RNvCsewJmtgcsYNl_16payjoin_mailroom17init_ohttp_config
FN:213,_RNvCsewJmtgcsYNl_16payjoin_mailroom21generate_sentinel_tag
FN:44,_RNvCsewJmtgcsYNl_16payjoin_mailroom5serve
FN:360,_RNvCsewJmtgcsYNl_16payjoin_mailroom9build_app
FN:116,_RNCNCNvCsewJmtgcsYNl_16payjoin_mailroom16serve_manual_tls00B5_
FN:132,_RNCNCNvCsewJmtgcsYNl_16payjoin_mailroom16serve_manual_tls0s0_0B5_
FN:123,_RNCNCNvCsewJmtgcsYNl_16payjoin_mailroom16serve_manual_tls0s_0B5_
FN:389,_RNCNvCsewJmtgcsYNl_16payjoin_mailroom13route_request0B3_
FN:230,_RNCNvCsewJmtgcsYNl_16payjoin_mailroom14init_directory0B3_
FN:87,_RNCNvCsewJmtgcsYNl_16payjoin_mailroom16serve_manual_tls0B3_
FN:44,_RNCNvCsewJmtgcsYNl_16payjoin_mailroom5serve0B3_
FN:217,_RNvXCsk7yOOz582FI_16payjoin_mailroomNtNtB2_10middleware11MaybePeerIpINtNtNtCsjgAoJRSn2GR_4axum7extract12connect_info9ConnectedINtNtB1b_5serve14IncomingStreamNtNtCs5qF5NRIBtq5_14tokio_listener8listener8ListenerEE12connect_info
FN:158,_RNCNCNvCsk7yOOz582FI_16payjoin_mailroom10serve_acme00B5_
FN:191,_RNCNCNvCsk7yOOz582FI_16payjoin_mailroom10serve_acme0s0_0B5_
FN:181,_RNCNCNvCsk7yOOz582FI_16payjoin_mailroom10serve_acme0s_0B5_
FN:116,_RNCNCNvCsk7yOOz582FI_16payjoin_mailroom16serve_manual_tls00B5_
FN:132,_RNCNCNvCsk7yOOz582FI_16payjoin_mailroom16serve_manual_tls0s0_0B5_
FN:123,_RNCNCNvCsk7yOOz582FI_16payjoin_mailroom16serve_manual_tls0s_0B5_
FN:299,_RNCNCNvCsk7yOOz582FI_16payjoin_mailroom22init_blocked_addresses00B5_
FN:255,_RNCNvCsk7yOOz582FI_16payjoin_mailroom10init_geoip0B3_
FN:151,_RNCNvCsk7yOOz582FI_16payjoin_mailroom10serve_acme0B3_
FN:389,_RNCNvCsk7yOOz582FI_16payjoin_mailroom13route_request0B3_
FN:230,_RNCNvCsk7yOOz582FI_16payjoin_mailroom14init_directory0B3_
FN:87,_RNCNvCsk7yOOz582FI_16payjoin_mailroom16serve_manual_tls0B3_
FN:334,_RNCNvCsk7yOOz582FI_16payjoin_mailroom18load_address_cache0B3_
FN:269,_RNCNvCsk7yOOz582FI_16payjoin_mailroom22init_blocked_addresses0B3_
FN:44,_RNCNvCsk7yOOz582FI_16payjoin_mailroom5serve0B3_
FN:253,_RNvCsk7yOOz582FI_16payjoin_mailroom10init_geoip
FN:148,_RNvCsk7yOOz582FI_16payjoin_mailroom10serve_acme
FN:386,_RNvCsk7yOOz582FI_16payjoin_mailroom13route_request
FN:226,_RNvCsk7yOOz582FI_16payjoin_mailroom14init_directory
FN:413,_RNvCsk7yOOz582FI_16payjoin_mailroom16is_relay_request
FN:82,_RNvCsk7yOOz582FI_16payjoin_mailroom16serve_manual_tls
FN:346,_RNvCsk7yOOz582FI_16payjoin_mailroom17init_ohttp_config
FN:331,_RNvCsk7yOOz582FI_16payjoin_mailroom18load_address_cache
FN:213,_RNvCsk7yOOz582FI_16payjoin_mailroom21generate_sentinel_tag
FN:267,_RNvCsk7yOOz582FI_16payjoin_mailroom22init_blocked_addresses
FN:44,_RNvCsk7yOOz582FI_16payjoin_mailroom5serve
FN:360,_RNvCsk7yOOz582FI_16payjoin_mailroom9build_app
FN:148,_RNvCs8YpBKXcegdX_16payjoin_mailroom10serve_acme
FN:44,_RNvCs8YpBKXcegdX_16payjoin_mailroom5serve
FN:158,_RNCNCNvCs8YpBKXcegdX_16payjoin_mailroom10serve_acme00B5_
FN:191,_RNCNCNvCs8YpBKXcegdX_16payjoin_mailroom10serve_acme0s0_0B5_
FN:181,_RNCNCNvCs8YpBKXcegdX_16payjoin_mailroom10serve_acme0s_0B5_
FN:116,_RNCNCNvCs8YpBKXcegdX_16payjoin_mailroom16serve_manual_tls00B5_
FN:132,_RNCNCNvCs8YpBKXcegdX_16payjoin_mailroom16serve_manual_tls0s0_0B5_
FN:123,_RNCNCNvCs8YpBKXcegdX_16payjoin_mailroom16serve_manual_tls0s_0B5_
FN:299,_RNCNCNvCs8YpBKXcegdX_16payjoin_mailroom22init_blocked_addresses00B5_
FN:255,_RNCNvCs8YpBKXcegdX_16payjoin_mailroom10init_geoip0B3_
FN:151,_RNCNvCs8YpBKXcegdX_16payjoin_mailroom10serve_acme0B3_
FN:389,_RNCNvCs8YpBKXcegdX_16payjoin_mailroom13route_request0B3_
FN:230,_RNCNvCs8YpBKXcegdX_16payjoin_mailroom14init_directory0B3_
FN:87,_RNCNvCs8YpBKXcegdX_16payjoin_mailroom16serve_manual_tls0B3_
FN:334,_RNCNvCs8YpBKXcegdX_16payjoin_mailroom18load_address_cache0B3_
FN:269,_RNCNvCs8YpBKXcegdX_16payjoin_mailroom22init_blocked_addresses0B3_
FN:44,_RNCNvCs8YpBKXcegdX_16payjoin_mailroom5serve0B3_
FN:441,_RNvNtCs8YpBKXcegdX_16payjoin_mailroom5tests13start_service
FN:532,_RNvNtCs8YpBKXcegdX_16payjoin_mailroom5testss_26middleware_records_metrics
FN:463,_RNvNtCs8YpBKXcegdX_16payjoin_mailroom5testss_29self_loop_request_is_rejected
FN:494,_RNvNtCs8YpBKXcegdX_16payjoin_mailroom5testss_34cross_instance_request_is_accepted
FN:580,_RNvNtCs8YpBKXcegdX_16payjoin_mailroom5testss_40middleware_sanitizes_short_id_in_metrics
FN:627,_RNCNCNCNvNtCs8YpBKXcegdX_16payjoin_mailroom5testss_40middleware_sanitizes_short_id_in_metrics0s1_00B9_
FN:628,_RNCNCNCNvNtCs8YpBKXcegdX_16payjoin_mailroom5testss_40middleware_sanitizes_short_id_in_metrics0s1_0s_0B9_
FN:570,_RNCNCNvNtCs8YpBKXcegdX_16payjoin_mailroom5testss_26middleware_records_metrics00B7_
FN:572,_RNCNCNvNtCs8YpBKXcegdX_16payjoin_mailroom5testss_26middleware_records_metrics0s0_0B7_
FN:571,_RNCNCNvNtCs8YpBKXcegdX_16payjoin_mailroom5testss_26middleware_records_metrics0s_0B7_
FN:621,_RNCNCNvNtCs8YpBKXcegdX_16payjoin_mailroom5testss_40middleware_sanitizes_short_id_in_metrics00B7_
FN:623,_RNCNCNvNtCs8YpBKXcegdX_16payjoin_mailroom5testss_40middleware_sanitizes_short_id_in_metrics0s0_0B7_
FN:624,_RNCNCNvNtCs8YpBKXcegdX_16payjoin_mailroom5testss_40middleware_sanitizes_short_id_in_metrics0s1_0B7_
FN:643,_RNCNCNvNtCs8YpBKXcegdX_16payjoin_mailroom5testss_40middleware_sanitizes_short_id_in_metrics0s2_0B7_
FN:647,_RNCNCNvNtCs8YpBKXcegdX_16payjoin_mailroom5testss_40middleware_sanitizes_short_id_in_metrics0s3_0B7_
FN:622,_RNCNCNvNtCs8YpBKXcegdX_16payjoin_mailroom5testss_40middleware_sanitizes_short_id_in_metrics0s_0B7_
FN:444,_RNCNvNtCs8YpBKXcegdX_16payjoin_mailroom5tests13start_service0B5_
FN:532,_RNCNvNtCs8YpBKXcegdX_16payjoin_mailroom5testss_26middleware_records_metrics0B5_
FN:463,_RNCNvNtCs8YpBKXcegdX_16payjoin_mailroom5testss_29self_loop_request_is_rejected0B5_
FN:494,_RNCNvNtCs8YpBKXcegdX_16payjoin_mailroom5testss_34cross_instance_request_is_accepted0B5_
FN:580,_RNCNvNtCs8YpBKXcegdX_16payjoin_mailroom5testss_40middleware_sanitizes_short_id_in_metrics0B5_
FN:217,_RNvXCs8YpBKXcegdX_16payjoin_mailroomNtNtB2_10middleware11MaybePeerIpINtNtNtCsjgAoJRSn2GR_4axum7extract12connect_info9ConnectedINtNtB1b_5serve14IncomingStreamNtNtCs5qF5NRIBtq5_14tokio_listener8listener8ListenerEE12connect_info
FN:253,_RNvCs8YpBKXcegdX_16payjoin_mailroom10init_geoip
FN:386,_RNvCs8YpBKXcegdX_16payjoin_mailroom13route_request
FN:226,_RNvCs8YpBKXcegdX_16payjoin_mailroom14init_directory
FN:413,_RNvCs8YpBKXcegdX_16payjoin_mailroom16is_relay_request
FN:82,_RNvCs8YpBKXcegdX_16payjoin_mailroom16serve_manual_tls
FN:346,_RNvCs8YpBKXcegdX_16payjoin_mailroom17init_ohttp_config
FN:331,_RNvCs8YpBKXcegdX_16payjoin_mailroom18load_address_cache
FN:213,_RNvCs8YpBKXcegdX_16payjoin_mailroom21generate_sentinel_tag
FN:267,_RNvCs8YpBKXcegdX_16payjoin_mailroom22init_blocked_addresses
FN:360,_RNvCs8YpBKXcegdX_16payjoin_mailroom9build_app
FNDA:0,_RNvCsewJmtgcsYNl_16payjoin_mailroom13route_request
FNDA:0,_RNvCsewJmtgcsYNl_16payjoin_mailroom14init_directory
FNDA:0,_RNvCsewJmtgcsYNl_16payjoin_mailroom16is_relay_request
FNDA:0,_RNvCsewJmtgcsYNl_16payjoin_mailroom16serve_manual_tls
FNDA:0,_RNvCsewJmtgcsYNl_16payjoin_mailroom17init_ohttp_config
FNDA:0,_RNvCsewJmtgcsYNl_16payjoin_mailroom21generate_sentinel_tag
FNDA:0,_RNvCsewJmtgcsYNl_16payjoin_mailroom5serve
FNDA:0,_RNvCsewJmtgcsYNl_16payjoin_mailroom9build_app
FNDA:0,_RNCNCNvCsewJmtgcsYNl_16payjoin_mailroom16serve_manual_tls00B5_
FNDA:0,_RNCNCNvCsewJmtgcsYNl_16payjoin_mailroom16serve_manual_tls0s0_0B5_
FNDA:0,_RNCNCNvCsewJmtgcsYNl_16payjoin_mailroom16serve_manual_tls0s_0B5_
FNDA:0,_RNCNvCsewJmtgcsYNl_16payjoin_mailroom13route_request0B3_
FNDA:0,_RNCNvCsewJmtgcsYNl_16payjoin_mailroom14init_directory0B3_
FNDA:0,_RNCNvCsewJmtgcsYNl_16payjoin_mailroom16serve_manual_tls0B3_
FNDA:0,_RNCNvCsewJmtgcsYNl_16payjoin_mailroom5serve0B3_
FNDA:0,_RNvXCsk7yOOz582FI_16payjoin_mailroomNtNtB2_10middleware11MaybePeerIpINtNtNtCsjgAoJRSn2GR_4axum7extract12connect_info9ConnectedINtNtB1b_5serve14IncomingStreamNtNtCs5qF5NRIBtq5_14tokio_listener8listener8ListenerEE12connect_info
FNDA:0,_RNCNCNvCsk7yOOz582FI_16payjoin_mailroom10serve_acme00B5_
FNDA:0,_RNCNCNvCsk7yOOz582FI_16payjoin_mailroom10serve_acme0s0_0B5_
FNDA:0,_RNCNCNvCsk7yOOz582FI_16payjoin_mailroom10serve_acme0s_0B5_
FNDA:0,_RNCNCNvCsk7yOOz582FI_16payjoin_mailroom16serve_manual_tls00B5_
FNDA:10,_RNCNCNvCsk7yOOz582FI_16payjoin_mailroom16serve_manual_tls0s0_0B5_
FNDA:10,_RNCNCNvCsk7yOOz582FI_16payjoin_mailroom16serve_manual_tls0s_0B5_
FNDA:0,_RNCNCNvCsk7yOOz582FI_16payjoin_mailroom22init_blocked_addresses00B5_
FNDA:23,_RNCNvCsk7yOOz582FI_16payjoin_mailroom10init_geoip0B3_
FNDA:0,_RNCNvCsk7yOOz582FI_16payjoin_mailroom10serve_acme0B3_
FNDA:121,_RNCNvCsk7yOOz582FI_16payjoin_mailroom13route_request0B3_
FNDA:23,_RNCNvCsk7yOOz582FI_16payjoin_mailroom14init_directory0B3_
FNDA:23,_RNCNvCsk7yOOz582FI_16payjoin_mailroom16serve_manual_tls0B3_
FNDA:0,_RNCNvCsk7yOOz582FI_16payjoin_mailroom18load_address_cache0B3_
FNDA:10,_RNCNvCsk7yOOz582FI_16payjoin_mailroom22init_blocked_addresses0B3_
FNDA:0,_RNCNvCsk7yOOz582FI_16payjoin_mailroom5serve0B3_
FNDA:23,_RNvCsk7yOOz582FI_16payjoin_mailroom10init_geoip
FNDA:0,_RNvCsk7yOOz582FI_16payjoin_mailroom10serve_acme
FNDA:121,_RNvCsk7yOOz582FI_16payjoin_mailroom13route_request
FNDA:23,_RNvCsk7yOOz582FI_16payjoin_mailroom14init_directory
FNDA:121,_RNvCsk7yOOz582FI_16payjoin_mailroom16is_relay_request
FNDA:23,_RNvCsk7yOOz582FI_16payjoin_mailroom16serve_manual_tls
FNDA:23,_RNvCsk7yOOz582FI_16payjoin_mailroom17init_ohttp_config
FNDA:0,_RNvCsk7yOOz582FI_16payjoin_mailroom18load_address_cache
FNDA:23,_RNvCsk7yOOz582FI_16payjoin_mailroom21generate_sentinel_tag
FNDA:10,_RNvCsk7yOOz582FI_16payjoin_mailroom22init_blocked_addresses
FNDA:0,_RNvCsk7yOOz582FI_16payjoin_mailroom5serve
FNDA:23,_RNvCsk7yOOz582FI_16payjoin_mailroom9build_app
FNDA:0,_RNvCs8YpBKXcegdX_16payjoin_mailroom10serve_acme
FNDA:0,_RNvCs8YpBKXcegdX_16payjoin_mailroom5serve
FNDA:0,_RNCNCNvCs8YpBKXcegdX_16payjoin_mailroom10serve_acme00B5_
FNDA:0,_RNCNCNvCs8YpBKXcegdX_16payjoin_mailroom10serve_acme0s0_0B5_
FNDA:0,_RNCNCNvCs8YpBKXcegdX_16payjoin_mailroom10serve_acme0s_0B5_
FNDA:0,_RNCNCNvCs8YpBKXcegdX_16payjoin_mailroom16serve_manual_tls00B5_
FNDA:0,_RNCNCNvCs8YpBKXcegdX_16payjoin_mailroom16serve_manual_tls0s0_0B5_
FNDA:3,_RNCNCNvCs8YpBKXcegdX_16payjoin_mailroom16serve_manual_tls0s_0B5_
FNDA:0,_RNCNCNvCs8YpBKXcegdX_16payjoin_mailroom22init_blocked_addresses00B5_
FNDA:3,_RNCNvCs8YpBKXcegdX_16payjoin_mailroom10init_geoip0B3_
FNDA:0,_RNCNvCs8YpBKXcegdX_16payjoin_mailroom10serve_acme0B3_
FNDA:11,_RNCNvCs8YpBKXcegdX_16payjoin_mailroom13route_request0B3_
FNDA:5,_RNCNvCs8YpBKXcegdX_16payjoin_mailroom14init_directory0B3_
FNDA:3,_RNCNvCs8YpBKXcegdX_16payjoin_mailroom16serve_manual_tls0B3_
FNDA:0,_RNCNvCs8YpBKXcegdX_16payjoin_mailroom18load_address_cache0B3_
FNDA:0,_RNCNvCs8YpBKXcegdX_16payjoin_mailroom22init_blocked_addresses0B3_
FNDA:0,_RNCNvCs8YpBKXcegdX_16payjoin_mailroom5serve0B3_
FNDA:3,_RNvNtCs8YpBKXcegdX_16payjoin_mailroom5tests13start_service
FNDA:1,_RNvNtCs8YpBKXcegdX_16payjoin_mailroom5testss_26middleware_records_metrics
FNDA:1,_RNvNtCs8YpBKXcegdX_16payjoin_mailroom5testss_29self_loop_request_is_rejected
FNDA:1,_RNvNtCs8YpBKXcegdX_16payjoin_mailroom5testss_34cross_instance_request_is_accepted
FNDA:1,_RNvNtCs8YpBKXcegdX_16payjoin_mailroom5testss_40middleware_sanitizes_short_id_in_metrics
FNDA:1,_RNCNCNCNvNtCs8YpBKXcegdX_16payjoin_mailroom5testss_40middleware_sanitizes_short_id_in_metrics0s1_00B9_
FNDA:3,_RNCNCNCNvNtCs8YpBKXcegdX_16payjoin_mailroom5testss_40middleware_sanitizes_short_id_in_metrics0s1_0s_0B9_
FNDA:1,_RNCNCNvNtCs8YpBKXcegdX_16payjoin_mailroom5testss_26middleware_records_metrics00B7_
FNDA:3,_RNCNCNvNtCs8YpBKXcegdX_16payjoin_mailroom5testss_26middleware_records_metrics0s0_0B7_
FNDA:1,_RNCNCNvNtCs8YpBKXcegdX_16payjoin_mailroom5testss_26middleware_records_metrics0s_0B7_
FNDA:1,_RNCNCNvNtCs8YpBKXcegdX_16payjoin_mailroom5testss_40middleware_sanitizes_short_id_in_metrics00B7_
FNDA:3,_RNCNCNvNtCs8YpBKXcegdX_16payjoin_mailroom5testss_40middleware_sanitizes_short_id_in_metrics0s0_0B7_
FNDA:1,_RNCNCNvNtCs8YpBKXcegdX_16payjoin_mailroom5testss_40middleware_sanitizes_short_id_in_metrics0s1_0B7_
FNDA:1,_RNCNCNvNtCs8YpBKXcegdX_16payjoin_mailroom5testss_40middleware_sanitizes_short_id_in_metrics0s2_0B7_
FNDA:1,_RNCNCNvNtCs8YpBKXcegdX_16payjoin_mailroom5testss_40middleware_sanitizes_short_id_in_metrics0s3_0B7_
FNDA:1,_RNCNCNvNtCs8YpBKXcegdX_16payjoin_mailroom5testss_40middleware_sanitizes_short_id_in_metrics0s_0B7_
FNDA:3,_RNCNvNtCs8YpBKXcegdX_16payjoin_mailroom5tests13start_service0B5_
FNDA:1,_RNCNvNtCs8YpBKXcegdX_16payjoin_mailroom5testss_26middleware_records_metrics0B5_
FNDA:1,_RNCNvNtCs8YpBKXcegdX_16payjoin_mailroom5testss_29self_loop_request_is_rejected0B5_
FNDA:1,_RNCNvNtCs8YpBKXcegdX_16payjoin_mailroom5testss_34cross_instance_request_is_accepted0B5_
FNDA:1,_RNCNvNtCs8YpBKXcegdX_16payjoin_mailroom5testss_40middleware_sanitizes_short_id_in_metrics0B5_
FNDA:0,_RNvXCs8YpBKXcegdX_16payjoin_mailroomNtNtB2_10middleware11MaybePeerIpINtNtNtCsjgAoJRSn2GR_4axum7extract12connect_info9ConnectedINtNtB1b_5serve14IncomingStreamNtNtCs5qF5NRIBtq5_14tokio_listener8listener8ListenerEE12connect_info
FNDA:3,_RNvCs8YpBKXcegdX_16payjoin_mailroom10init_geoip
FNDA:11,_RNvCs8YpBKXcegdX_16payjoin_mailroom13route_request
FNDA:5,_RNvCs8YpBKXcegdX_16payjoin_mailroom14init_directory
FNDA:11,_RNvCs8YpBKXcegdX_16payjoin_mailroom16is_relay_request
FNDA:3,_RNvCs8YpBKXcegdX_16payjoin_mailroom16serve_manual_tls
FNDA:5,_RNvCs8YpBKXcegdX_16payjoin_mailroom17init_ohttp_config
FNDA:0,_RNvCs8YpBKXcegdX_16payjoin_mailroom18load_address_cache
FNDA:5,_RNvCs8YpBKXcegdX_16payjoin_mailroom21generate_sentinel_tag
FNDA:0,_RNvCs8YpBKXcegdX_16payjoin_mailroom22init_blocked_addresses
FNDA:5,_RNvCs8YpBKXcegdX_16payjoin_mailroom9build_app
FNF:49
FNH:37
DA:44,0
DA:45,0
DA:46,0
DA:49,0
DA:51,0
DA:53,0
DA:54,0
DA:55,0
DA:56,0
DA:58,0
DA:61,0
DA:63,0
DA:65,0
DA:66,0
DA:67,0
DA:68,0
DA:69,0
DA:71,0
DA:72,0
DA:82,26
DA:83,26
DA:84,26
DA:85,26
DA:86,26
DA:87,26
DA:90,26
DA:91,26
DA:94,26
DA:96,26
DA:98,26
DA:99,26
DA:100,26
DA:101,26
DA:102,26
DA:103,26
DA:104,26
DA:105,26
DA:106,26
DA:108,26
DA:110,26
DA:112,26
DA:113,26
DA:114,26
DA:115,26
DA:116,26
DA:117,26
DA:118,26
DA:120,26
DA:121,13
DA:122,13
DA:123,13
DA:124,13
DA:125,13
DA:126,13
DA:127,0
DA:128,0
DA:131,13
DA:132,13
DA:133,10
DA:134,10
DA:135,0
DA:136,0
DA:140,26
DA:141,26
DA:148,0
DA:149,0
DA:150,0
DA:151,0
DA:155,0
DA:156,0
DA:157,0
DA:158,0
DA:160,0
DA:161,0
DA:164,0
DA:166,0
DA:168,0
DA:169,0
DA:170,0
DA:171,0
DA:173,0
DA:175,0
DA:177,0
DA:178,0
DA:179,0
DA:180,0
DA:181,0
DA:183,0
DA:184,0
DA:185,0
DA:186,0
DA:188,0
DA:191,0
DA:194,0
DA:195,0
DA:196,0
DA:197,0
DA:200,0
DA:202,0
DA:203,0
DA:204,0
DA:205,0
DA:206,0
DA:207,0
DA:208,0
DA:213,28
DA:217,0
DA:218,0
DA:219,0
DA:220,0
DA:222,0
DA:223,0
DA:226,28
DA:227,28
DA:228,28
DA:229,28
DA:230,28
DA:231,28
DA:232,28
DA:233,28
DA:234,28
DA:235,28
DA:237,28
DA:238,28
DA:240,28
DA:242,10
DA:244,0
DA:245,10
DA:247,18
DA:249,28
DA:250,28
DA:253,26
DA:254,26
DA:255,26
DA:256,26
DA:257,0
DA:258,0
DA:259,0
DA:260,0
DA:262,26
DA:264,26
DA:267,10
DA:268,10
DA:269,10
DA:270,10
DA:271,10
DA:272,0
DA:276,10
DA:277,10
DA:278,0
DA:281,0
DA:282,0
DA:283,0
DA:284,0
DA:285,0
DA:286,0
DA:288,0
DA:292,0
DA:293,0
DA:294,0
DA:295,0
DA:299,0
DA:300,0
DA:301,0
DA:302,0
DA:303,0
DA:304,0
DA:305,0
DA:306,0
DA:308,0
DA:309,0
DA:310,0
DA:313,0
DA:314,0
DA:315,0
DA:319,0
DA:320,0
DA:321,0
DA:322,0
DA:323,0
DA:325,0
DA:327,0
DA:328,10
DA:331,0
DA:332,0
DA:333,0
DA:334,0
DA:335,0
DA:336,0
DA:337,0
DA:338,0
DA:339,0
DA:341,0
DA:343,0
DA:344,0
DA:346,28
DA:347,28
DA:348,28
DA:349,28
DA:350,28
DA:351,0
DA:353,28
DA:354,28
DA:355,28
DA:358,28
DA:360,28
DA:361,28
DA:364,28
DA:367,28
DA:368,28
DA:369,28
DA:370,28
DA:371,28
DA:372,28
DA:374,28
DA:377,28
DA:378,28
DA:379,28
DA:380,28
DA:381,28
DA:383,28
DA:384,28
DA:386,132
DA:387,132
DA:388,132
DA:389,132
DA:390,132
DA:391,47
DA:392,47
DA:393,0
DA:397,85
DA:398,85
DA:399,0
DA:400,0
DA:403,132
DA:413,132
DA:414,132
DA:415,132
DA:417,132
DA:418,72
DA:419,35
DA:420,48
DA:421,35
DA:422,85
DA:424,132
DA:441,3
DA:442,3
DA:443,3
DA:444,3
DA:445,3
DA:446,3
DA:447,3
DA:448,3
DA:449,3
DA:450,3
DA:453,3
DA:454,3
DA:455,3
DA:457,3
DA:458,3
DA:459,3
DA:460,3
DA:463,1
DA:464,1
DA:465,1
DA:466,1
DA:468,1
DA:470,1
DA:471,1
DA:472,1
DA:476,1
DA:478,1
DA:479,1
DA:480,1
DA:481,1
DA:482,1
DA:483,1
DA:484,1
DA:486,1
DA:487,1
DA:488,1
DA:489,1
DA:490,1
DA:491,1
DA:494,1
DA:495,1
DA:496,1
DA:497,1
DA:499,1
DA:500,1
DA:501,1
DA:502,1
DA:504,1
DA:505,1
DA:506,1
DA:508,1
DA:509,1
DA:513,1
DA:515,1
DA:516,1
DA:517,1
DA:518,1
DA:519,1
DA:520,1
DA:521,1
DA:524,1
DA:525,1
DA:526,1
DA:527,1
DA:528,1
DA:529,1
DA:532,1
DA:537,1
DA:538,1
DA:539,1
DA:541,1
DA:542,1
DA:543,1
DA:544,1
DA:545,1
DA:546,1
DA:549,1
DA:550,1
DA:551,1
DA:552,1
DA:553,1
DA:554,1
DA:556,1
DA:559,1
DA:561,1
DA:562,1
DA:563,1
DA:565,1
DA:567,1
DA:568,1
DA:569,1
DA:570,1
DA:571,1
DA:572,3
DA:573,1
DA:574,1
DA:575,1
DA:576,1
DA:577,1
DA:580,1
DA:586,1
DA:587,1
DA:588,1
DA:590,1
DA:591,1
DA:592,1
DA:593,1
DA:594,1
DA:595,1
DA:598,1
DA:599,1
DA:600,1
DA:601,1
DA:602,1
DA:603,1
DA:605,1
DA:608,1
DA:610,1
DA:611,1
DA:612,1
DA:613,1
DA:615,1
DA:617,1
DA:618,1
DA:619,1
DA:620,1
DA:621,1
DA:622,1
DA:623,3
DA:624,1
DA:625,1
DA:626,1
DA:627,1
DA:628,3
DA:629,3
DA:630,1
DA:632,2
DA:634,3
DA:635,1
DA:636,0
DA:637,1
DA:638,1
DA:640,1
DA:642,1
DA:643,1
DA:646,1
DA:647,1
DA:648,1
DA:649,1
DA:650,1
BRF:0
BRH:0
LF:432
LH:299
end_of_record
SF:/Users/bene/bitcoin/rust-payjoin/payjoin-mailroom/src/main.rs
FN:29,_RNvCsjGd0aLkqsel_16payjoin_mailroom12init_tracing
FN:38,_RNvCsjGd0aLkqsel_16payjoin_mailroom27init_tracing_with_telemetry
FN:8,_RNvCsjGd0aLkqsel_16payjoin_mailroom4main
FN:10,_RNCNCNvCsjGd0aLkqsel_16payjoin_mailroom4main00B5_
FN:8,_RNCNvCsjGd0aLkqsel_16payjoin_mailroom4main0B3_
FN:10,_RNCNCNvCsUjx7o55ofI_16payjoin_mailroom4main00B5_
FN:8,_RNCNvCsUjx7o55ofI_16payjoin_mailroom4main0B3_
FN:29,_RNvCsUjx7o55ofI_16payjoin_mailroom12init_tracing
FN:38,_RNvCsUjx7o55ofI_16payjoin_mailroom27init_tracing_with_telemetry
FN:8,_RNvCsUjx7o55ofI_16payjoin_mailroom4main
FNDA:0,_RNvCsjGd0aLkqsel_16payjoin_mailroom12init_tracing
FNDA:0,_RNvCsjGd0aLkqsel_16payjoin_mailroom27init_tracing_with_telemetry
FNDA:0,_RNvCsjGd0aLkqsel_16payjoin_mailroom4main
FNDA:0,_RNCNCNvCsjGd0aLkqsel_16payjoin_mailroom4main00B5_
FNDA:0,_RNCNvCsjGd0aLkqsel_16payjoin_mailroom4main0B3_
FNDA:0,_RNCNCNvCsUjx7o55ofI_16payjoin_mailroom4main00B5_
FNDA:0,_RNCNvCsUjx7o55ofI_16payjoin_mailroom4main0B3_
FNDA:0,_RNvCsUjx7o55ofI_16payjoin_mailroom12init_tracing
FNDA:0,_RNvCsUjx7o55ofI_16payjoin_mailroom27init_tracing_with_telemetry
FNDA:0,_RNvCsUjx7o55ofI_16payjoin_mailroom4main
FNF:5
FNH:0
DA:8,0
DA:9,0
DA:10,0
DA:11,0
DA:14,0
DA:15,0
DA:16,0
DA:21,0
DA:22,0
DA:23,0
DA:24,0
DA:25,0
DA:26,0
DA:27,0
DA:29,0
DA:30,0
DA:31,0
DA:33,0
DA:34,0
DA:35,0
DA:38,0
DA:43,0
DA:44,0
DA:45,0
DA:46,0
DA:48,0
DA:49,0
DA:52,0
DA:53,0
DA:54,0
DA:55,0
DA:56,0
DA:57,0
DA:58,0
DA:59,0
DA:60,0
DA:61,0
DA:63,0
DA:64,0
DA:66,0
DA:68,0
DA:70,0
DA:71,0
BRF:0
BRH:0
LF:49
LH:0
end_of_record
SF:/Users/bene/bitcoin/rust-payjoin/payjoin-mailroom/src/metrics.rs
FN:83,_RNvMs_NtCsewJmtgcsYNl_16payjoin_mailroom7metricsNtB4_14MetricsService15record_db_entry
FN:65,_RNvMs_NtCsewJmtgcsYNl_16payjoin_mailroom7metricsNtB4_14MetricsService19record_http_request
FN:76,_RNvMs_NtCsewJmtgcsYNl_16payjoin_mailroom7metricsNtB4_14MetricsService22record_connection_open
FN:81,_RNvMs_NtCsewJmtgcsYNl_16payjoin_mailroom7metricsNtB4_14MetricsService23record_connection_close
FN:38,_RNvMs_NtCsewJmtgcsYNl_16payjoin_mailroom7metricsNtB4_14MetricsService3new
FN:34,_RNvXNtCsewJmtgcsYNl_16payjoin_mailroom7metricsNtB2_14PayjoinVersionNtNtCs2hl1TO11rA7_4core3fmt7Display3fmt
FN:83,_RNvMs_NtCsk7yOOz582FI_16payjoin_mailroom7metricsNtB4_14MetricsService15record_db_entry
FN:65,_RNvMs_NtCsk7yOOz582FI_16payjoin_mailroom7metricsNtB4_14MetricsService19record_http_request
FN:76,_RNvMs_NtCsk7yOOz582FI_16payjoin_mailroom7metricsNtB4_14MetricsService22record_connection_open
FN:81,_RNvMs_NtCsk7yOOz582FI_16payjoin_mailroom7metricsNtB4_14MetricsService23record_connection_close
FN:38,_RNvMs_NtCsk7yOOz582FI_16payjoin_mailroom7metricsNtB4_14MetricsService3new
FN:34,_RNvXNtCsk7yOOz582FI_16payjoin_mailroom7metricsNtB2_14PayjoinVersionNtNtCs2hl1TO11rA7_4core3fmt7Display3fmt
FN:83,_RNvMs_NtCs8YpBKXcegdX_16payjoin_mailroom7metricsNtB4_14MetricsService15record_db_entry
FN:65,_RNvMs_NtCs8YpBKXcegdX_16payjoin_mailroom7metricsNtB4_14MetricsService19record_http_request
FN:76,_RNvMs_NtCs8YpBKXcegdX_16payjoin_mailroom7metricsNtB4_14MetricsService22record_connection_open
FN:81,_RNvMs_NtCs8YpBKXcegdX_16payjoin_mailroom7metricsNtB4_14MetricsService23record_connection_close
FN:38,_RNvMs_NtCs8YpBKXcegdX_16payjoin_mailroom7metricsNtB4_14MetricsService3new
FN:34,_RNvXNtCs8YpBKXcegdX_16payjoin_mailroom7metricsNtB2_14PayjoinVersionNtNtCs2hl1TO11rA7_4core3fmt7Display3fmt
FNDA:0,_RNvMs_NtCsewJmtgcsYNl_16payjoin_mailroom7metricsNtB4_14MetricsService15record_db_entry
FNDA:0,_RNvMs_NtCsewJmtgcsYNl_16payjoin_mailroom7metricsNtB4_14MetricsService19record_http_request
FNDA:0,_RNvMs_NtCsewJmtgcsYNl_16payjoin_mailroom7metricsNtB4_14MetricsService22record_connection_open
FNDA:0,_RNvMs_NtCsewJmtgcsYNl_16payjoin_mailroom7metricsNtB4_14MetricsService23record_connection_close
FNDA:0,_RNvMs_NtCsewJmtgcsYNl_16payjoin_mailroom7metricsNtB4_14MetricsService3new
FNDA:0,_RNvXNtCsewJmtgcsYNl_16payjoin_mailroom7metricsNtB2_14PayjoinVersionNtNtCs2hl1TO11rA7_4core3fmt7Display3fmt
FNDA:13,_RNvMs_NtCsk7yOOz582FI_16payjoin_mailroom7metricsNtB4_14MetricsService15record_db_entry
FNDA:121,_RNvMs_NtCsk7yOOz582FI_16payjoin_mailroom7metricsNtB4_14MetricsService19record_http_request
FNDA:121,_RNvMs_NtCsk7yOOz582FI_16payjoin_mailroom7metricsNtB4_14MetricsService22record_connection_open
FNDA:121,_RNvMs_NtCsk7yOOz582FI_16payjoin_mailroom7metricsNtB4_14MetricsService23record_connection_close
FNDA:23,_RNvMs_NtCsk7yOOz582FI_16payjoin_mailroom7metricsNtB4_14MetricsService3new
FNDA:13,_RNvXNtCsk7yOOz582FI_16payjoin_mailroom7metricsNtB2_14PayjoinVersionNtNtCs2hl1TO11rA7_4core3fmt7Display3fmt
FNDA:1,_RNvMs_NtCs8YpBKXcegdX_16payjoin_mailroom7metricsNtB4_14MetricsService15record_db_entry
FNDA:11,_RNvMs_NtCs8YpBKXcegdX_16payjoin_mailroom7metricsNtB4_14MetricsService19record_http_request
FNDA:11,_RNvMs_NtCs8YpBKXcegdX_16payjoin_mailroom7metricsNtB4_14MetricsService22record_connection_open
FNDA:11,_RNvMs_NtCs8YpBKXcegdX_16payjoin_mailroom7metricsNtB4_14MetricsService23record_connection_close
FNDA:6,_RNvMs_NtCs8YpBKXcegdX_16payjoin_mailroom7metricsNtB4_14MetricsService3new
FNDA:1,_RNvXNtCs8YpBKXcegdX_16payjoin_mailroom7metricsNtB2_14PayjoinVersionNtNtCs2hl1TO11rA7_4core3fmt7Display3fmt
FNF:6
FNH:6
DA:34,14
DA:38,29
DA:39,29
DA:40,29
DA:42,29
DA:43,29
DA:44,29
DA:45,29
DA:47,29
DA:48,29
DA:49,29
DA:50,29
DA:52,29
DA:53,29
DA:54,29
DA:55,29
DA:57,29
DA:58,29
DA:59,29
DA:60,29
DA:62,29
DA:63,29
DA:65,132
DA:66,132
DA:68,132
DA:69,132
DA:70,132
DA:71,132
DA:72,132
DA:74,132
DA:76,132
DA:77,132
DA:78,132
DA:79,132
DA:81,132
DA:83,14
DA:84,14
DA:85,14
BRF:0
BRH:0
LF:38
LH:38
end_of_record
SF:/Users/bene/bitcoin/rust-payjoin/payjoin-mailroom/src/middleware.rs
FN:36,_RNvNtCsewJmtgcsYNl_16payjoin_mailroom10middleware13track_metrics
FN:52,_RNvNtCsewJmtgcsYNl_16payjoin_mailroom10middleware17sanitize_short_id
FN:64,_RNvNtCsewJmtgcsYNl_16payjoin_mailroom10middleware17track_connections
FN:40,_RNCNvNtCsewJmtgcsYNl_16payjoin_mailroom10middleware13track_metrics0B5_
FN:58,_RNCNvNtCsewJmtgcsYNl_16payjoin_mailroom10middleware17sanitize_short_id0B5_
FN:68,_RNCNvNtCsewJmtgcsYNl_16payjoin_mailroom10middleware17track_connections0B5_
FN:12,_RNvNtCsk7yOOz582FI_16payjoin_mailroom10middleware11check_geoip
FN:36,_RNvNtCsk7yOOz582FI_16payjoin_mailroom10middleware13track_metrics
FN:52,_RNvNtCsk7yOOz582FI_16payjoin_mailroom10middleware17sanitize_short_id
FN:64,_RNvNtCsk7yOOz582FI_16payjoin_mailroom10middleware17track_connections
FN:12,_RNCNvNtCsk7yOOz582FI_16payjoin_mailroom10middleware11check_geoip0B5_
FN:40,_RNCNvNtCsk7yOOz582FI_16payjoin_mailroom10middleware13track_metrics0B5_
FN:58,_RNCNvNtCsk7yOOz582FI_16payjoin_mailroom10middleware17sanitize_short_id0B5_
FN:68,_RNCNvNtCsk7yOOz582FI_16payjoin_mailroom10middleware17track_connections0B5_
FN:12,_RNCNvNtCs8YpBKXcegdX_16payjoin_mailroom10middleware11check_geoip0B5_
FN:40,_RNCNvNtCs8YpBKXcegdX_16payjoin_mailroom10middleware13track_metrics0B5_
FN:58,_RNCNvNtCs8YpBKXcegdX_16payjoin_mailroom10middleware17sanitize_short_id0B5_
FN:68,_RNCNvNtCs8YpBKXcegdX_16payjoin_mailroom10middleware17track_connections0B5_
FN:12,_RNvNtCs8YpBKXcegdX_16payjoin_mailroom10middleware11check_geoip
FN:36,_RNvNtCs8YpBKXcegdX_16payjoin_mailroom10middleware13track_metrics
FN:52,_RNvNtCs8YpBKXcegdX_16payjoin_mailroom10middleware17sanitize_short_id
FN:64,_RNvNtCs8YpBKXcegdX_16payjoin_mailroom10middleware17track_connections
FNDA:0,_RNvNtCsewJmtgcsYNl_16payjoin_mailroom10middleware13track_metrics
FNDA:0,_RNvNtCsewJmtgcsYNl_16payjoin_mailroom10middleware17sanitize_short_id
FNDA:0,_RNvNtCsewJmtgcsYNl_16payjoin_mailroom10middleware17track_connections
FNDA:0,_RNCNvNtCsewJmtgcsYNl_16payjoin_mailroom10middleware13track_metrics0B5_
FNDA:0,_RNCNvNtCsewJmtgcsYNl_16payjoin_mailroom10middleware17sanitize_short_id0B5_
FNDA:0,_RNCNvNtCsewJmtgcsYNl_16payjoin_mailroom10middleware17track_connections0B5_
FNDA:121,_RNvNtCsk7yOOz582FI_16payjoin_mailroom10middleware11check_geoip
FNDA:121,_RNvNtCsk7yOOz582FI_16payjoin_mailroom10middleware13track_metrics
FNDA:121,_RNvNtCsk7yOOz582FI_16payjoin_mailroom10middleware17sanitize_short_id
FNDA:121,_RNvNtCsk7yOOz582FI_16payjoin_mailroom10middleware17track_connections
FNDA:121,_RNCNvNtCsk7yOOz582FI_16payjoin_mailroom10middleware11check_geoip0B5_
FNDA:121,_RNCNvNtCsk7yOOz582FI_16payjoin_mailroom10middleware13track_metrics0B5_
FNDA:26,_RNCNvNtCsk7yOOz582FI_16payjoin_mailroom10middleware17sanitize_short_id0B5_
FNDA:121,_RNCNvNtCsk7yOOz582FI_16payjoin_mailroom10middleware17track_connections0B5_
FNDA:11,_RNCNvNtCs8YpBKXcegdX_16payjoin_mailroom10middleware11check_geoip0B5_
FNDA:11,_RNCNvNtCs8YpBKXcegdX_16payjoin_mailroom10middleware13track_metrics0B5_
FNDA:13,_RNCNvNtCs8YpBKXcegdX_16payjoin_mailroom10middleware17sanitize_short_id0B5_
FNDA:11,_RNCNvNtCs8YpBKXcegdX_16payjoin_mailroom10middleware17track_connections0B5_
FNDA:11,_RNvNtCs8YpBKXcegdX_16payjoin_mailroom10middleware11check_geoip
FNDA:11,_RNvNtCs8YpBKXcegdX_16payjoin_mailroom10middleware13track_metrics
FNDA:11,_RNvNtCs8YpBKXcegdX_16payjoin_mailroom10middleware17sanitize_short_id
FNDA:11,_RNvNtCs8YpBKXcegdX_16payjoin_mailroom10middleware17track_connections
FNF:8
FNH:8
DA:12,132
DA:15,132
DA:17,132
DA:18,0
DA:19,0
DA:21,0
DA:22,0
DA:23,0
DA:24,0
DA:25,0
DA:26,0
DA:27,0
DA:28,0
DA:29,0
DA:30,0
DA:31,132
DA:33,132
DA:34,132
DA:36,132
DA:37,132
DA:38,132
DA:39,132
DA:40,132
DA:41,132
DA:42,132
DA:44,132
DA:45,132
DA:47,132
DA:49,132
DA:50,132
DA:52,132
DA:55,132
DA:56,3
DA:57,120
DA:58,39
DA:59,3
DA:60,129
DA:62,132
DA:64,132
DA:65,132
DA:66,132
DA:67,132
DA:68,132
DA:69,132
DA:70,132
DA:71,132
DA:72,132
DA:73,132
BRF:0
BRH:0
LF:52
LH:40
end_of_record
SF:/Users/bene/bitcoin/rust-payjoin/payjoin-mailroom/src/ohttp_relay/bootstrap/connect.rs
FN:48,_RNvNtNtNtCsewJmtgcsYNl_16payjoin_mailroom11ohttp_relay9bootstrap7connect6tunnel
FN:18,_RINvNtNtNtCsewJmtgcsYNl_16payjoin_mailroom11ohttp_relay9bootstrap7connect11try_upgradeNtNtCsbhYi8O17gzz_9axum_core4body4BodyEB8_
FN:15,_RINvNtNtNtCsewJmtgcsYNl_16payjoin_mailroom11ohttp_relay9bootstrap7connect18is_connect_requestNtNtCsbhYi8O17gzz_9axum_core4body4BodyEB8_
FN:24,_RNCINvNtNtNtCsewJmtgcsYNl_16payjoin_mailroom11ohttp_relay9bootstrap7connect11try_upgradeNtNtCsbhYi8O17gzz_9axum_core4body4BodyE0Ba_
FN:28,_RNCNCNCINvNtNtNtCsewJmtgcsYNl_16payjoin_mailroom11ohttp_relay9bootstrap7connect11try_upgradeNtNtCsbhYi8O17gzz_9axum_core4body4BodyE000Be_
FN:31,_RNCNCNCINvNtNtNtCsewJmtgcsYNl_16payjoin_mailroom11ohttp_relay9bootstrap7connect11try_upgradeNtNtCsbhYi8O17gzz_9axum_core4body4BodyE00s0_0Be_
FN:48,_RNCNvNtNtNtCsewJmtgcsYNl_16payjoin_mailroom11ohttp_relay9bootstrap7connect6tunnel0B9_
FN:48,_RNvNtNtNtCsk7yOOz582FI_16payjoin_mailroom11ohttp_relay9bootstrap7connect6tunnel
FN:18,_RINvNtNtNtCsk7yOOz582FI_16payjoin_mailroom11ohttp_relay9bootstrap7connect11try_upgradeNtNtCsbGkwFBM7K7x_9axum_core4body4BodyEB8_
FN:15,_RINvNtNtNtCsk7yOOz582FI_16payjoin_mailroom11ohttp_relay9bootstrap7connect18is_connect_requestNtNtCsbGkwFBM7K7x_9axum_core4body4BodyEB8_
FN:24,_RNCINvNtNtNtCsk7yOOz582FI_16payjoin_mailroom11ohttp_relay9bootstrap7connect11try_upgradeNtNtCsbGkwFBM7K7x_9axum_core4body4BodyE0Ba_
FN:28,_RNCNCNCINvNtNtNtCsk7yOOz582FI_16payjoin_mailroom11ohttp_relay9bootstrap7connect11try_upgradeNtNtCsbGkwFBM7K7x_9axum_core4body4BodyE000Be_
FN:31,_RNCNCNCINvNtNtNtCsk7yOOz582FI_16payjoin_mailroom11ohttp_relay9bootstrap7connect11try_upgradeNtNtCsbGkwFBM7K7x_9axum_core4body4BodyE00s0_0Be_
FN:48,_RNCNvNtNtNtCsk7yOOz582FI_16payjoin_mailroom11ohttp_relay9bootstrap7connect6tunnel0B9_
FN:18,_RINvNtNtNtCs8YpBKXcegdX_16payjoin_mailroom11ohttp_relay9bootstrap7connect11try_upgradeNtNtCsbGkwFBM7K7x_9axum_core4body4BodyEB8_
FN:15,_RINvNtNtNtCs8YpBKXcegdX_16payjoin_mailroom11ohttp_relay9bootstrap7connect18is_connect_requestNtNtCsbGkwFBM7K7x_9axum_core4body4BodyEB8_
FN:24,_RNCINvNtNtNtCs8YpBKXcegdX_16payjoin_mailroom11ohttp_relay9bootstrap7connect11try_upgradeNtNtCsbGkwFBM7K7x_9axum_core4body4BodyE0Ba_
FN:28,_RNCNCNCINvNtNtNtCs8YpBKXcegdX_16payjoin_mailroom11ohttp_relay9bootstrap7connect11try_upgradeNtNtCsbGkwFBM7K7x_9axum_core4body4BodyE000Be_
FN:31,_RNCNCNCINvNtNtNtCs8YpBKXcegdX_16payjoin_mailroom11ohttp_relay9bootstrap7connect11try_upgradeNtNtCsbGkwFBM7K7x_9axum_core4body4BodyE00s0_0Be_
FN:48,_RNCNvNtNtNtCs8YpBKXcegdX_16payjoin_mailroom11ohttp_relay9bootstrap7connect6tunnel0B9_
FN:48,_RNvNtNtNtCs8YpBKXcegdX_16payjoin_mailroom11ohttp_relay9bootstrap7connect6tunnel
FNDA:0,_RNvNtNtNtCsewJmtgcsYNl_16payjoin_mailroom11ohttp_relay9bootstrap7connect6tunnel
FNDA:0,_RINvNtNtNtCsewJmtgcsYNl_16payjoin_mailroom11ohttp_relay9bootstrap7connect11try_upgradeNtNtCsbhYi8O17gzz_9axum_core4body4BodyEB8_
FNDA:0,_RINvNtNtNtCsewJmtgcsYNl_16payjoin_mailroom11ohttp_relay9bootstrap7connect18is_connect_requestNtNtCsbhYi8O17gzz_9axum_core4body4BodyEB8_
FNDA:0,_RNCINvNtNtNtCsewJmtgcsYNl_16payjoin_mailroom11ohttp_relay9bootstrap7connect11try_upgradeNtNtCsbhYi8O17gzz_9axum_core4body4BodyE0Ba_
FNDA:0,_RNCNCNCINvNtNtNtCsewJmtgcsYNl_16payjoin_mailroom11ohttp_relay9bootstrap7connect11try_upgradeNtNtCsbhYi8O17gzz_9axum_core4body4BodyE000Be_
FNDA:0,_RNCNCNCINvNtNtNtCsewJmtgcsYNl_16payjoin_mailroom11ohttp_relay9bootstrap7connect11try_upgradeNtNtCsbhYi8O17gzz_9axum_core4body4BodyE00s0_0Be_
FNDA:0,_RNCNvNtNtNtCsewJmtgcsYNl_16payjoin_mailroom11ohttp_relay9bootstrap7connect6tunnel0B9_
FNDA:12,_RNvNtNtNtCsk7yOOz582FI_16payjoin_mailroom11ohttp_relay9bootstrap7connect6tunnel
FNDA:12,_RINvNtNtNtCsk7yOOz582FI_16payjoin_mailroom11ohttp_relay9bootstrap7connect11try_upgradeNtNtCsbGkwFBM7K7x_9axum_core4body4BodyEB8_
FNDA:12,_RINvNtNtNtCsk7yOOz582FI_16payjoin_mailroom11ohttp_relay9bootstrap7connect18is_connect_requestNtNtCsbGkwFBM7K7x_9axum_core4body4BodyEB8_
FNDA:12,_RNCINvNtNtNtCsk7yOOz582FI_16payjoin_mailroom11ohttp_relay9bootstrap7connect11try_upgradeNtNtCsbGkwFBM7K7x_9axum_core4body4BodyE0Ba_
FNDA:0,_RNCNCNCINvNtNtNtCsk7yOOz582FI_16payjoin_mailroom11ohttp_relay9bootstrap7connect11try_upgradeNtNtCsbGkwFBM7K7x_9axum_core4body4BodyE000Be_
FNDA:12,_RNCNCNCINvNtNtNtCsk7yOOz582FI_16payjoin_mailroom11ohttp_relay9bootstrap7connect11try_upgradeNtNtCsbGkwFBM7K7x_9axum_core4body4BodyE00s0_0Be_
FNDA:12,_RNCNvNtNtNtCsk7yOOz582FI_16payjoin_mailroom11ohttp_relay9bootstrap7connect6tunnel0B9_
FNDA:0,_RINvNtNtNtCs8YpBKXcegdX_16payjoin_mailroom11ohttp_relay9bootstrap7connect11try_upgradeNtNtCsbGkwFBM7K7x_9axum_core4body4BodyEB8_
FNDA:0,_RINvNtNtNtCs8YpBKXcegdX_16payjoin_mailroom11ohttp_relay9bootstrap7connect18is_connect_requestNtNtCsbGkwFBM7K7x_9axum_core4body4BodyEB8_
FNDA:0,_RNCINvNtNtNtCs8YpBKXcegdX_16payjoin_mailroom11ohttp_relay9bootstrap7connect11try_upgradeNtNtCsbGkwFBM7K7x_9axum_core4body4BodyE0Ba_
FNDA:0,_RNCNCNCINvNtNtNtCs8YpBKXcegdX_16payjoin_mailroom11ohttp_relay9bootstrap7connect11try_upgradeNtNtCsbGkwFBM7K7x_9axum_core4body4BodyE000Be_
FNDA:0,_RNCNCNCINvNtNtNtCs8YpBKXcegdX_16payjoin_mailroom11ohttp_relay9bootstrap7connect11try_upgradeNtNtCsbGkwFBM7K7x_9axum_core4body4BodyE00s0_0Be_
FNDA:0,_RNCNvNtNtNtCs8YpBKXcegdX_16payjoin_mailroom11ohttp_relay9bootstrap7connect6tunnel0B9_
FNDA:0,_RNvNtNtNtCs8YpBKXcegdX_16payjoin_mailroom11ohttp_relay9bootstrap7connect6tunnel
FNF:7
FNH:6
DA:15,12
DA:18,12
DA:19,12
DA:20,12
DA:21,12
DA:22,12
DA:23,12
DA:24,12
DA:28,0
DA:31,12
DA:32,12
DA:33,12
DA:34,12
DA:35,0
DA:36,11
DA:38,0
DA:40,11
DA:43,12
DA:48,12
DA:53,11
BRF:0
BRH:0
LF:21
LH:18
end_of_record
SF:/Users/bene/bitcoin/rust-payjoin/payjoin-mailroom/src/ohttp_relay/bootstrap/mod.rs
FN:18,_RINvNtNtCsewJmtgcsYNl_16payjoin_mailroom11ohttp_relay9bootstrap17handle_ohttp_keysNtNtCsbhYi8O17gzz_9axum_core4body4BodyEB6_
FN:24,_RNCINvNtNtCsewJmtgcsYNl_16payjoin_mailroom11ohttp_relay9bootstrap17handle_ohttp_keysNtNtCsbhYi8O17gzz_9axum_core4body4BodyE0B8_
FN:18,_RINvNtNtCsk7yOOz582FI_16payjoin_mailroom11ohttp_relay9bootstrap17handle_ohttp_keysNtNtCsbGkwFBM7K7x_9axum_core4body4BodyEB6_
FN:24,_RNCINvNtNtCsk7yOOz582FI_16payjoin_mailroom11ohttp_relay9bootstrap17handle_ohttp_keysNtNtCsbGkwFBM7K7x_9axum_core4body4BodyE0B8_
FN:18,_RINvNtNtCs8YpBKXcegdX_16payjoin_mailroom11ohttp_relay9bootstrap17handle_ohttp_keysNtNtCsbGkwFBM7K7x_9axum_core4body4BodyEB6_
FN:24,_RNCINvNtNtCs8YpBKXcegdX_16payjoin_mailroom11ohttp_relay9bootstrap17handle_ohttp_keysNtNtCsbGkwFBM7K7x_9axum_core4body4BodyE0B8_
FNDA:0,_RINvNtNtCsewJmtgcsYNl_16payjoin_mailroom11ohttp_relay9bootstrap17handle_ohttp_keysNtNtCsbhYi8O17gzz_9axum_core4body4BodyEB6_
FNDA:0,_RNCINvNtNtCsewJmtgcsYNl_16payjoin_mailroom11ohttp_relay9bootstrap17handle_ohttp_keysNtNtCsbhYi8O17gzz_9axum_core4body4BodyE0B8_
FNDA:12,_RINvNtNtCsk7yOOz582FI_16payjoin_mailroom11ohttp_relay9bootstrap17handle_ohttp_keysNtNtCsbGkwFBM7K7x_9axum_core4body4BodyEB6_
FNDA:12,_RNCINvNtNtCsk7yOOz582FI_16payjoin_mailroom11ohttp_relay9bootstrap17handle_ohttp_keysNtNtCsbGkwFBM7K7x_9axum_core4body4BodyE0B8_
FNDA:0,_RINvNtNtCs8YpBKXcegdX_16payjoin_mailroom11ohttp_relay9bootstrap17handle_ohttp_keysNtNtCsbGkwFBM7K7x_9axum_core4body4BodyEB6_
FNDA:0,_RNCINvNtNtCs8YpBKXcegdX_16payjoin_mailroom11ohttp_relay9bootstrap17handle_ohttp_keysNtNtCsbGkwFBM7K7x_9axum_core4body4BodyE0B8_
FNF:2
FNH:2
DA:18,12
DA:19,12
DA:20,12
DA:21,12
DA:22,12
DA:23,12
DA:24,12
DA:36,12
BRF:0
BRH:0
LF:8
LH:8
end_of_record
SF:/Users/bene/bitcoin/rust-payjoin/payjoin-mailroom/src/ohttp_relay/bootstrap/ws.rs
FN:219,_RINvNtNtNtCsewJmtgcsYNl_16payjoin_mailroom11ohttp_relay9bootstrap2ws10start_sendINtNtNtCs9aqkhks3MHD_10hyper_util2rt5tokio7TokioIoNtNtCs9cxRumJ6vay_5hyper7upgrade8UpgradedEEB8_
FN:52,_RINvNtNtNtCsewJmtgcsYNl_16payjoin_mailroom11ohttp_relay9bootstrap2ws11try_upgradeNtNtCsbhYi8O17gzz_9axum_core4body4BodyEB8_
FN:105,_RINvNtNtNtCsewJmtgcsYNl_16payjoin_mailroom11ohttp_relay9bootstrap2ws15serve_websocketINtNtNtCs9aqkhks3MHD_10hyper_util2rt5tokio7TokioIoNtNtCs9cxRumJ6vay_5hyper7upgrade8UpgradedEEB8_
FN:28,_RINvNtNtNtCsewJmtgcsYNl_16payjoin_mailroom11ohttp_relay9bootstrap2ws20is_websocket_requestNtNtCsbhYi8O17gzz_9axum_core4body4BodyEB8_
FN:58,_RNCINvNtNtNtCsewJmtgcsYNl_16payjoin_mailroom11ohttp_relay9bootstrap2ws11try_upgradeNtNtCsbhYi8O17gzz_9axum_core4body4BodyE0Ba_
FN:111,_RNCINvNtNtNtCsewJmtgcsYNl_16payjoin_mailroom11ohttp_relay9bootstrap2ws15serve_websocketINtNtNtCs9aqkhks3MHD_10hyper_util2rt5tokio7TokioIoNtNtCs9cxRumJ6vay_5hyper7upgrade8UpgradedEE0Ba_
FN:32,_RNCINvNtNtNtCsewJmtgcsYNl_16payjoin_mailroom11ohttp_relay9bootstrap2ws20is_websocket_requestNtNtCsbhYi8O17gzz_9axum_core4body4BodyE0Ba_
FN:39,_RNCINvNtNtNtCsewJmtgcsYNl_16payjoin_mailroom11ohttp_relay9bootstrap2ws20is_websocket_requestNtNtCsbhYi8O17gzz_9axum_core4body4BodyEs0_0Ba_
FN:40,_RNCINvNtNtNtCsewJmtgcsYNl_16payjoin_mailroom11ohttp_relay9bootstrap2ws20is_websocket_requestNtNtCsbhYi8O17gzz_9axum_core4body4BodyEs1_0Ba_
FN:33,_RNCINvNtNtNtCsewJmtgcsYNl_16payjoin_mailroom11ohttp_relay9bootstrap2ws20is_websocket_requestNtNtCsbhYi8O17gzz_9axum_core4body4BodyEs_0Ba_
FN:62,_RNCNCNCINvNtNtNtCsewJmtgcsYNl_16payjoin_mailroom11ohttp_relay9bootstrap2ws11try_upgradeNtNtCsbhYi8O17gzz_9axum_core4body4BodyE000Be_
FN:68,_RNCNCNCINvNtNtNtCsewJmtgcsYNl_16payjoin_mailroom11ohttp_relay9bootstrap2ws11try_upgradeNtNtCsbhYi8O17gzz_9axum_core4body4BodyE00s0_0Be_
FN:70,_RNCNCNCINvNtNtNtCsewJmtgcsYNl_16payjoin_mailroom11ohttp_relay9bootstrap2ws11try_upgradeNtNtCsbhYi8O17gzz_9axum_core4body4BodyE00s1_0Be_
FN:75,_RNCNCNCINvNtNtNtCsewJmtgcsYNl_16payjoin_mailroom11ohttp_relay9bootstrap2ws11try_upgradeNtNtCsbhYi8O17gzz_9axum_core4body4BodyE00s2_0Be_
FN:98,_RNCNCNCINvNtNtNtCsewJmtgcsYNl_16payjoin_mailroom11ohttp_relay9bootstrap2ws11try_upgradeNtNtCsbhYi8O17gzz_9axum_core4body4BodyE00s3_0Be_
FN:204,_RNCNCNvXs0_NtNtNtCsewJmtgcsYNl_16payjoin_mailroom11ohttp_relay9bootstrap2wsINtB9_4WsIoINtNtNtCs9aqkhks3MHD_10hyper_util2rt5tokio7TokioIoNtNtCs9cxRumJ6vay_5hyper7upgrade8UpgradedEENtNtNtCsdMMUWgM9GFa_5tokio2io11async_write10AsyncWrite10poll_write00Bf_
FN:204,_RNCNvXs0_NtNtNtCsewJmtgcsYNl_16payjoin_mailroom11ohttp_relay9bootstrap2wsINtB7_4WsIoINtNtNtCs9aqkhks3MHD_10hyper_util2rt5tokio7TokioIoNtNtCs9cxRumJ6vay_5hyper7upgrade8UpgradedEENtNtNtCsdMMUWgM9GFa_5tokio2io11async_write10AsyncWrite10poll_write0Bd_
FN:130,_RNvMNtNtNtCsewJmtgcsYNl_16payjoin_mailroom11ohttp_relay9bootstrap2wsINtB2_4WsIoINtNtNtCs9aqkhks3MHD_10hyper_util2rt5tokio7TokioIoNtNtCs9cxRumJ6vay_5hyper7upgrade8UpgradedEE3newB8_
FN:210,_RNvXs0_NtNtNtCsewJmtgcsYNl_16payjoin_mailroom11ohttp_relay9bootstrap2wsINtB5_4WsIoINtNtNtCs9aqkhks3MHD_10hyper_util2rt5tokio7TokioIoNtNtCs9cxRumJ6vay_5hyper7upgrade8UpgradedEENtNtNtCsdMMUWgM9GFa_5tokio2io11async_write10AsyncWrite10poll_flushBb_
FN:195,_RNvXs0_NtNtNtCsewJmtgcsYNl_16payjoin_mailroom11ohttp_relay9bootstrap2wsINtB5_4WsIoINtNtNtCs9aqkhks3MHD_10hyper_util2rt5tokio7TokioIoNtNtCs9cxRumJ6vay_5hyper7upgrade8UpgradedEENtNtNtCsdMMUWgM9GFa_5tokio2io11async_write10AsyncWrite10poll_writeBb_
FN:214,_RNvXs0_NtNtNtCsewJmtgcsYNl_16payjoin_mailroom11ohttp_relay9bootstrap2wsINtB5_4WsIoINtNtNtCs9aqkhks3MHD_10hyper_util2rt5tokio7TokioIoNtNtCs9cxRumJ6vay_5hyper7upgrade8UpgradedEENtNtNtCsdMMUWgM9GFa_5tokio2io11async_write10AsyncWrite13poll_shutdownBb_
FN:139,_RNvXs_NtNtNtCsewJmtgcsYNl_16payjoin_mailroom11ohttp_relay9bootstrap2wsINtB4_4WsIoINtNtNtCs9aqkhks3MHD_10hyper_util2rt5tokio7TokioIoNtNtCs9cxRumJ6vay_5hyper7upgrade8UpgradedEENtNtNtCsdMMUWgM9GFa_5tokio2io10async_read9AsyncRead9poll_readBa_
FN:226,_RNvNtNtNtCsewJmtgcsYNl_16payjoin_mailroom11ohttp_relay9bootstrap2ws12map_ws_error
FN:226,_RNvNtNtNtCsk7yOOz582FI_16payjoin_mailroom11ohttp_relay9bootstrap2ws12map_ws_error
FN:219,_RINvNtNtNtCsk7yOOz582FI_16payjoin_mailroom11ohttp_relay9bootstrap2ws10start_sendINtNtNtCs2pWvqhVZqwS_10hyper_util2rt5tokio7TokioIoNtNtCsjTA6264Tasq_5hyper7upgrade8UpgradedEEB8_
FN:52,_RINvNtNtNtCsk7yOOz582FI_16payjoin_mailroom11ohttp_relay9bootstrap2ws11try_upgradeNtNtCsbGkwFBM7K7x_9axum_core4body4BodyEB8_
FN:105,_RINvNtNtNtCsk7yOOz582FI_16payjoin_mailroom11ohttp_relay9bootstrap2ws15serve_websocketINtNtNtCs2pWvqhVZqwS_10hyper_util2rt5tokio7TokioIoNtNtCsjTA6264Tasq_5hyper7upgrade8UpgradedEEB8_
FN:28,_RINvNtNtNtCsk7yOOz582FI_16payjoin_mailroom11ohttp_relay9bootstrap2ws20is_websocket_requestNtNtCsbGkwFBM7K7x_9axum_core4body4BodyEB8_
FN:58,_RNCINvNtNtNtCsk7yOOz582FI_16payjoin_mailroom11ohttp_relay9bootstrap2ws11try_upgradeNtNtCsbGkwFBM7K7x_9axum_core4body4BodyE0Ba_
FN:111,_RNCINvNtNtNtCsk7yOOz582FI_16payjoin_mailroom11ohttp_relay9bootstrap2ws15serve_websocketINtNtNtCs2pWvqhVZqwS_10hyper_util2rt5tokio7TokioIoNtNtCsjTA6264Tasq_5hyper7upgrade8UpgradedEE0Ba_
FN:32,_RNCINvNtNtNtCsk7yOOz582FI_16payjoin_mailroom11ohttp_relay9bootstrap2ws20is_websocket_requestNtNtCsbGkwFBM7K7x_9axum_core4body4BodyE0Ba_
FN:39,_RNCINvNtNtNtCsk7yOOz582FI_16payjoin_mailroom11ohttp_relay9bootstrap2ws20is_websocket_requestNtNtCsbGkwFBM7K7x_9axum_core4body4BodyEs0_0Ba_
FN:40,_RNCINvNtNtNtCsk7yOOz582FI_16payjoin_mailroom11ohttp_relay9bootstrap2ws20is_websocket_requestNtNtCsbGkwFBM7K7x_9axum_core4body4BodyEs1_0Ba_
FN:33,_RNCINvNtNtNtCsk7yOOz582FI_16payjoin_mailroom11ohttp_relay9bootstrap2ws20is_websocket_requestNtNtCsbGkwFBM7K7x_9axum_core4body4BodyEs_0Ba_
FN:62,_RNCNCNCINvNtNtNtCsk7yOOz582FI_16payjoin_mailroom11ohttp_relay9bootstrap2ws11try_upgradeNtNtCsbGkwFBM7K7x_9axum_core4body4BodyE000Be_
FN:68,_RNCNCNCINvNtNtNtCsk7yOOz582FI_16payjoin_mailroom11ohttp_relay9bootstrap2ws11try_upgradeNtNtCsbGkwFBM7K7x_9axum_core4body4BodyE00s0_0Be_
FN:70,_RNCNCNCINvNtNtNtCsk7yOOz582FI_16payjoin_mailroom11ohttp_relay9bootstrap2ws11try_upgradeNtNtCsbGkwFBM7K7x_9axum_core4body4BodyE00s1_0Be_
FN:75,_RNCNCNCINvNtNtNtCsk7yOOz582FI_16payjoin_mailroom11ohttp_relay9bootstrap2ws11try_upgradeNtNtCsbGkwFBM7K7x_9axum_core4body4BodyE00s2_0Be_
FN:98,_RNCNCNCINvNtNtNtCsk7yOOz582FI_16payjoin_mailroom11ohttp_relay9bootstrap2ws11try_upgradeNtNtCsbGkwFBM7K7x_9axum_core4body4BodyE00s3_0Be_
FN:204,_RNCNCNvXs0_NtNtNtCsk7yOOz582FI_16payjoin_mailroom11ohttp_relay9bootstrap2wsINtB9_4WsIoINtNtNtCs2pWvqhVZqwS_10hyper_util2rt5tokio7TokioIoNtNtCsjTA6264Tasq_5hyper7upgrade8UpgradedEENtNtNtCsi0rXn74gfzN_5tokio2io11async_write10AsyncWrite10poll_write00Bf_
FN:204,_RNCNvXs0_NtNtNtCsk7yOOz582FI_16payjoin_mailroom11ohttp_relay9bootstrap2wsINtB7_4WsIoINtNtNtCs2pWvqhVZqwS_10hyper_util2rt5tokio7TokioIoNtNtCsjTA6264Tasq_5hyper7upgrade8UpgradedEENtNtNtCsi0rXn74gfzN_5tokio2io11async_write10AsyncWrite10poll_write0Bd_
FN:130,_RNvMNtNtNtCsk7yOOz582FI_16payjoin_mailroom11ohttp_relay9bootstrap2wsINtB2_4WsIoINtNtNtCs2pWvqhVZqwS_10hyper_util2rt5tokio7TokioIoNtNtCsjTA6264Tasq_5hyper7upgrade8UpgradedEE3newB8_
FN:210,_RNvXs0_NtNtNtCsk7yOOz582FI_16payjoin_mailroom11ohttp_relay9bootstrap2wsINtB5_4WsIoINtNtNtCs2pWvqhVZqwS_10hyper_util2rt5tokio7TokioIoNtNtCsjTA6264Tasq_5hyper7upgrade8UpgradedEENtNtNtCsi0rXn74gfzN_5tokio2io11async_write10AsyncWrite10poll_flushBb_
FN:195,_RNvXs0_NtNtNtCsk7yOOz582FI_16payjoin_mailroom11ohttp_relay9bootstrap2wsINtB5_4WsIoINtNtNtCs2pWvqhVZqwS_10hyper_util2rt5tokio7TokioIoNtNtCsjTA6264Tasq_5hyper7upgrade8UpgradedEENtNtNtCsi0rXn74gfzN_5tokio2io11async_write10AsyncWrite10poll_writeBb_
FN:214,_RNvXs0_NtNtNtCsk7yOOz582FI_16payjoin_mailroom11ohttp_relay9bootstrap2wsINtB5_4WsIoINtNtNtCs2pWvqhVZqwS_10hyper_util2rt5tokio7TokioIoNtNtCsjTA6264Tasq_5hyper7upgrade8UpgradedEENtNtNtCsi0rXn74gfzN_5tokio2io11async_write10AsyncWrite13poll_shutdownBb_
FN:139,_RNvXs_NtNtNtCsk7yOOz582FI_16payjoin_mailroom11ohttp_relay9bootstrap2wsINtB4_4WsIoINtNtNtCs2pWvqhVZqwS_10hyper_util2rt5tokio7TokioIoNtNtCsjTA6264Tasq_5hyper7upgrade8UpgradedEENtNtNtCsi0rXn74gfzN_5tokio2io10async_read9AsyncRead9poll_readBa_
FN:219,_RINvNtNtNtCsk7yOOz582FI_16payjoin_mailroom11ohttp_relay9bootstrap2ws10start_sendINtNtCs62FzrXixYyA_17tokio_tungstenite6stream14MaybeTlsStreamNtNtNtNtCsi0rXn74gfzN_5tokio3net3tcp6stream9TcpStreamEECsieIg8j6MHYB_11integration
FN:204,_RNCNCNvXs0_NtNtNtCsk7yOOz582FI_16payjoin_mailroom11ohttp_relay9bootstrap2wsINtB9_4WsIoINtNtCs62FzrXixYyA_17tokio_tungstenite6stream14MaybeTlsStreamNtNtNtNtCsi0rXn74gfzN_5tokio3net3tcp6stream9TcpStreamEENtNtNtB2t_2io11async_write10AsyncWrite10poll_write00CsieIg8j6MHYB_11integration
FN:204,_RNCNvXs0_NtNtNtCsk7yOOz582FI_16payjoin_mailroom11ohttp_relay9bootstrap2wsINtB7_4WsIoINtNtCs62FzrXixYyA_17tokio_tungstenite6stream14MaybeTlsStreamNtNtNtNtCsi0rXn74gfzN_5tokio3net3tcp6stream9TcpStreamEENtNtNtB2r_2io11async_write10AsyncWrite10poll_write0CsieIg8j6MHYB_11integration
FN:130,_RNvMNtNtNtCsk7yOOz582FI_16payjoin_mailroom11ohttp_relay9bootstrap2wsINtB2_4WsIoINtNtCs62FzrXixYyA_17tokio_tungstenite6stream14MaybeTlsStreamNtNtNtNtCsi0rXn74gfzN_5tokio3net3tcp6stream9TcpStreamEE3newCsieIg8j6MHYB_11integration
FN:210,_RNvXs0_NtNtNtCsk7yOOz582FI_16payjoin_mailroom11ohttp_relay9bootstrap2wsINtB5_4WsIoINtNtCs62FzrXixYyA_17tokio_tungstenite6stream14MaybeTlsStreamNtNtNtNtCsi0rXn74gfzN_5tokio3net3tcp6stream9TcpStreamEENtNtNtB2p_2io11async_write10AsyncWrite10poll_flushCsieIg8j6MHYB_11integration
FN:195,_RNvXs0_NtNtNtCsk7yOOz582FI_16payjoin_mailroom11ohttp_relay9bootstrap2wsINtB5_4WsIoINtNtCs62FzrXixYyA_17tokio_tungstenite6stream14MaybeTlsStreamNtNtNtNtCsi0rXn74gfzN_5tokio3net3tcp6stream9TcpStreamEENtNtNtB2p_2io11async_write10AsyncWrite10poll_writeCsieIg8j6MHYB_11integration
FN:139,_RNvXs_NtNtNtCsk7yOOz582FI_16payjoin_mailroom11ohttp_relay9bootstrap2wsINtB4_4WsIoINtNtCs62FzrXixYyA_17tokio_tungstenite6stream14MaybeTlsStreamNtNtNtNtCsi0rXn74gfzN_5tokio3net3tcp6stream9TcpStreamEENtNtNtB2o_2io10async_read9AsyncRead9poll_readCsieIg8j6MHYB_11integration
FN:226,_RNvNtNtNtCs8YpBKXcegdX_16payjoin_mailroom11ohttp_relay9bootstrap2ws12map_ws_error
FN:219,_RINvNtNtNtCs8YpBKXcegdX_16payjoin_mailroom11ohttp_relay9bootstrap2ws10start_sendINtNtNtCs2pWvqhVZqwS_10hyper_util2rt5tokio7TokioIoNtNtCsjTA6264Tasq_5hyper7upgrade8UpgradedEEB8_
FN:52,_RINvNtNtNtCs8YpBKXcegdX_16payjoin_mailroom11ohttp_relay9bootstrap2ws11try_upgradeNtNtCsbGkwFBM7K7x_9axum_core4body4BodyEB8_
FN:105,_RINvNtNtNtCs8YpBKXcegdX_16payjoin_mailroom11ohttp_relay9bootstrap2ws15serve_websocketINtNtNtCs2pWvqhVZqwS_10hyper_util2rt5tokio7TokioIoNtNtCsjTA6264Tasq_5hyper7upgrade8UpgradedEEB8_
FN:28,_RINvNtNtNtCs8YpBKXcegdX_16payjoin_mailroom11ohttp_relay9bootstrap2ws20is_websocket_requestNtNtCsbGkwFBM7K7x_9axum_core4body4BodyEB8_
FN:58,_RNCINvNtNtNtCs8YpBKXcegdX_16payjoin_mailroom11ohttp_relay9bootstrap2ws11try_upgradeNtNtCsbGkwFBM7K7x_9axum_core4body4BodyE0Ba_
FN:111,_RNCINvNtNtNtCs8YpBKXcegdX_16payjoin_mailroom11ohttp_relay9bootstrap2ws15serve_websocketINtNtNtCs2pWvqhVZqwS_10hyper_util2rt5tokio7TokioIoNtNtCsjTA6264Tasq_5hyper7upgrade8UpgradedEE0Ba_
FN:32,_RNCINvNtNtNtCs8YpBKXcegdX_16payjoin_mailroom11ohttp_relay9bootstrap2ws20is_websocket_requestNtNtCsbGkwFBM7K7x_9axum_core4body4BodyE0Ba_
FN:39,_RNCINvNtNtNtCs8YpBKXcegdX_16payjoin_mailroom11ohttp_relay9bootstrap2ws20is_websocket_requestNtNtCsbGkwFBM7K7x_9axum_core4body4BodyEs0_0Ba_
FN:40,_RNCINvNtNtNtCs8YpBKXcegdX_16payjoin_mailroom11ohttp_relay9bootstrap2ws20is_websocket_requestNtNtCsbGkwFBM7K7x_9axum_core4body4BodyEs1_0Ba_
FN:33,_RNCINvNtNtNtCs8YpBKXcegdX_16payjoin_mailroom11ohttp_relay9bootstrap2ws20is_websocket_requestNtNtCsbGkwFBM7K7x_9axum_core4body4BodyEs_0Ba_
FN:62,_RNCNCNCINvNtNtNtCs8YpBKXcegdX_16payjoin_mailroom11ohttp_relay9bootstrap2ws11try_upgradeNtNtCsbGkwFBM7K7x_9axum_core4body4BodyE000Be_
FN:68,_RNCNCNCINvNtNtNtCs8YpBKXcegdX_16payjoin_mailroom11ohttp_relay9bootstrap2ws11try_upgradeNtNtCsbGkwFBM7K7x_9axum_core4body4BodyE00s0_0Be_
FN:70,_RNCNCNCINvNtNtNtCs8YpBKXcegdX_16payjoin_mailroom11ohttp_relay9bootstrap2ws11try_upgradeNtNtCsbGkwFBM7K7x_9axum_core4body4BodyE00s1_0Be_
FN:75,_RNCNCNCINvNtNtNtCs8YpBKXcegdX_16payjoin_mailroom11ohttp_relay9bootstrap2ws11try_upgradeNtNtCsbGkwFBM7K7x_9axum_core4body4BodyE00s2_0Be_
FN:98,_RNCNCNCINvNtNtNtCs8YpBKXcegdX_16payjoin_mailroom11ohttp_relay9bootstrap2ws11try_upgradeNtNtCsbGkwFBM7K7x_9axum_core4body4BodyE00s3_0Be_
FN:204,_RNCNCNvXs0_NtNtNtCs8YpBKXcegdX_16payjoin_mailroom11ohttp_relay9bootstrap2wsINtB9_4WsIoINtNtNtCs2pWvqhVZqwS_10hyper_util2rt5tokio7TokioIoNtNtCsjTA6264Tasq_5hyper7upgrade8UpgradedEENtNtNtCsi0rXn74gfzN_5tokio2io11async_write10AsyncWrite10poll_write00Bf_
FN:204,_RNCNvXs0_NtNtNtCs8YpBKXcegdX_16payjoin_mailroom11ohttp_relay9bootstrap2wsINtB7_4WsIoINtNtNtCs2pWvqhVZqwS_10hyper_util2rt5tokio7TokioIoNtNtCsjTA6264Tasq_5hyper7upgrade8UpgradedEENtNtNtCsi0rXn74gfzN_5tokio2io11async_write10AsyncWrite10poll_write0Bd_
FN:130,_RNvMNtNtNtCs8YpBKXcegdX_16payjoin_mailroom11ohttp_relay9bootstrap2wsINtB2_4WsIoINtNtNtCs2pWvqhVZqwS_10hyper_util2rt5tokio7TokioIoNtNtCsjTA6264Tasq_5hyper7upgrade8UpgradedEE3newB8_
FN:210,_RNvXs0_NtNtNtCs8YpBKXcegdX_16payjoin_mailroom11ohttp_relay9bootstrap2wsINtB5_4WsIoINtNtNtCs2pWvqhVZqwS_10hyper_util2rt5tokio7TokioIoNtNtCsjTA6264Tasq_5hyper7upgrade8UpgradedEENtNtNtCsi0rXn74gfzN_5tokio2io11async_write10AsyncWrite10poll_flushBb_
FN:195,_RNvXs0_NtNtNtCs8YpBKXcegdX_16payjoin_mailroom11ohttp_relay9bootstrap2wsINtB5_4WsIoINtNtNtCs2pWvqhVZqwS_10hyper_util2rt5tokio7TokioIoNtNtCsjTA6264Tasq_5hyper7upgrade8UpgradedEENtNtNtCsi0rXn74gfzN_5tokio2io11async_write10AsyncWrite10poll_writeBb_
FN:214,_RNvXs0_NtNtNtCs8YpBKXcegdX_16payjoin_mailroom11ohttp_relay9bootstrap2wsINtB5_4WsIoINtNtNtCs2pWvqhVZqwS_10hyper_util2rt5tokio7TokioIoNtNtCsjTA6264Tasq_5hyper7upgrade8UpgradedEENtNtNtCsi0rXn74gfzN_5tokio2io11async_write10AsyncWrite13poll_shutdownBb_
FN:139,_RNvXs_NtNtNtCs8YpBKXcegdX_16payjoin_mailroom11ohttp_relay9bootstrap2wsINtB4_4WsIoINtNtNtCs2pWvqhVZqwS_10hyper_util2rt5tokio7TokioIoNtNtCsjTA6264Tasq_5hyper7upgrade8UpgradedEENtNtNtCsi0rXn74gfzN_5tokio2io10async_read9AsyncRead9poll_readBa_
FNDA:0,_RINvNtNtNtCsewJmtgcsYNl_16payjoin_mailroom11ohttp_relay9bootstrap2ws10start_sendINtNtNtCs9aqkhks3MHD_10hyper_util2rt5tokio7TokioIoNtNtCs9cxRumJ6vay_5hyper7upgrade8UpgradedEEB8_
FNDA:0,_RINvNtNtNtCsewJmtgcsYNl_16payjoin_mailroom11ohttp_relay9bootstrap2ws11try_upgradeNtNtCsbhYi8O17gzz_9axum_core4body4BodyEB8_
FNDA:0,_RINvNtNtNtCsewJmtgcsYNl_16payjoin_mailroom11ohttp_relay9bootstrap2ws15serve_websocketINtNtNtCs9aqkhks3MHD_10hyper_util2rt5tokio7TokioIoNtNtCs9cxRumJ6vay_5hyper7upgrade8UpgradedEEB8_
FNDA:0,_RINvNtNtNtCsewJmtgcsYNl_16payjoin_mailroom11ohttp_relay9bootstrap2ws20is_websocket_requestNtNtCsbhYi8O17gzz_9axum_core4body4BodyEB8_
FNDA:0,_RNCINvNtNtNtCsewJmtgcsYNl_16payjoin_mailroom11ohttp_relay9bootstrap2ws11try_upgradeNtNtCsbhYi8O17gzz_9axum_core4body4BodyE0Ba_
FNDA:0,_RNCINvNtNtNtCsewJmtgcsYNl_16payjoin_mailroom11ohttp_relay9bootstrap2ws15serve_websocketINtNtNtCs9aqkhks3MHD_10hyper_util2rt5tokio7TokioIoNtNtCs9cxRumJ6vay_5hyper7upgrade8UpgradedEE0Ba_
FNDA:0,_RNCINvNtNtNtCsewJmtgcsYNl_16payjoin_mailroom11ohttp_relay9bootstrap2ws20is_websocket_requestNtNtCsbhYi8O17gzz_9axum_core4body4BodyE0Ba_
FNDA:0,_RNCINvNtNtNtCsewJmtgcsYNl_16payjoin_mailroom11ohttp_relay9bootstrap2ws20is_websocket_requestNtNtCsbhYi8O17gzz_9axum_core4body4BodyEs0_0Ba_
FNDA:0,_RNCINvNtNtNtCsewJmtgcsYNl_16payjoin_mailroom11ohttp_relay9bootstrap2ws20is_websocket_requestNtNtCsbhYi8O17gzz_9axum_core4body4BodyEs1_0Ba_
FNDA:0,_RNCINvNtNtNtCsewJmtgcsYNl_16payjoin_mailroom11ohttp_relay9bootstrap2ws20is_websocket_requestNtNtCsbhYi8O17gzz_9axum_core4body4BodyEs_0Ba_
FNDA:0,_RNCNCNCINvNtNtNtCsewJmtgcsYNl_16payjoin_mailroom11ohttp_relay9bootstrap2ws11try_upgradeNtNtCsbhYi8O17gzz_9axum_core4body4BodyE000Be_
FNDA:0,_RNCNCNCINvNtNtNtCsewJmtgcsYNl_16payjoin_mailroom11ohttp_relay9bootstrap2ws11try_upgradeNtNtCsbhYi8O17gzz_9axum_core4body4BodyE00s0_0Be_
FNDA:0,_RNCNCNCINvNtNtNtCsewJmtgcsYNl_16payjoin_mailroom11ohttp_relay9bootstrap2ws11try_upgradeNtNtCsbhYi8O17gzz_9axum_core4body4BodyE00s1_0Be_
FNDA:0,_RNCNCNCINvNtNtNtCsewJmtgcsYNl_16payjoin_mailroom11ohttp_relay9bootstrap2ws11try_upgradeNtNtCsbhYi8O17gzz_9axum_core4body4BodyE00s2_0Be_
FNDA:0,_RNCNCNCINvNtNtNtCsewJmtgcsYNl_16payjoin_mailroom11ohttp_relay9bootstrap2ws11try_upgradeNtNtCsbhYi8O17gzz_9axum_core4body4BodyE00s3_0Be_
FNDA:0,_RNCNCNvXs0_NtNtNtCsewJmtgcsYNl_16payjoin_mailroom11ohttp_relay9bootstrap2wsINtB9_4WsIoINtNtNtCs9aqkhks3MHD_10hyper_util2rt5tokio7TokioIoNtNtCs9cxRumJ6vay_5hyper7upgrade8UpgradedEENtNtNtCsdMMUWgM9GFa_5tokio2io11async_write10AsyncWrite10poll_write00Bf_
FNDA:0,_RNCNvXs0_NtNtNtCsewJmtgcsYNl_16payjoin_mailroom11ohttp_relay9bootstrap2wsINtB7_4WsIoINtNtNtCs9aqkhks3MHD_10hyper_util2rt5tokio7TokioIoNtNtCs9cxRumJ6vay_5hyper7upgrade8UpgradedEENtNtNtCsdMMUWgM9GFa_5tokio2io11async_write10AsyncWrite10poll_write0Bd_
FNDA:0,_RNvMNtNtNtCsewJmtgcsYNl_16payjoin_mailroom11ohttp_relay9bootstrap2wsINtB2_4WsIoINtNtNtCs9aqkhks3MHD_10hyper_util2rt5tokio7TokioIoNtNtCs9cxRumJ6vay_5hyper7upgrade8UpgradedEE3newB8_
FNDA:0,_RNvXs0_NtNtNtCsewJmtgcsYNl_16payjoin_mailroom11ohttp_relay9bootstrap2wsINtB5_4WsIoINtNtNtCs9aqkhks3MHD_10hyper_util2rt5tokio7TokioIoNtNtCs9cxRumJ6vay_5hyper7upgrade8UpgradedEENtNtNtCsdMMUWgM9GFa_5tokio2io11async_write10AsyncWrite10poll_flushBb_
FNDA:0,_RNvXs0_NtNtNtCsewJmtgcsYNl_16payjoin_mailroom11ohttp_relay9bootstrap2wsINtB5_4WsIoINtNtNtCs9aqkhks3MHD_10hyper_util2rt5tokio7TokioIoNtNtCs9cxRumJ6vay_5hyper7upgrade8UpgradedEENtNtNtCsdMMUWgM9GFa_5tokio2io11async_write10AsyncWrite10poll_writeBb_
FNDA:0,_RNvXs0_NtNtNtCsewJmtgcsYNl_16payjoin_mailroom11ohttp_relay9bootstrap2wsINtB5_4WsIoINtNtNtCs9aqkhks3MHD_10hyper_util2rt5tokio7TokioIoNtNtCs9cxRumJ6vay_5hyper7upgrade8UpgradedEENtNtNtCsdMMUWgM9GFa_5tokio2io11async_write10AsyncWrite13poll_shutdownBb_
FNDA:0,_RNvXs_NtNtNtCsewJmtgcsYNl_16payjoin_mailroom11ohttp_relay9bootstrap2wsINtB4_4WsIoINtNtNtCs9aqkhks3MHD_10hyper_util2rt5tokio7TokioIoNtNtCs9cxRumJ6vay_5hyper7upgrade8UpgradedEENtNtNtCsdMMUWgM9GFa_5tokio2io10async_read9AsyncRead9poll_readBa_
FNDA:0,_RNvNtNtNtCsewJmtgcsYNl_16payjoin_mailroom11ohttp_relay9bootstrap2ws12map_ws_error
FNDA:0,_RNvNtNtNtCsk7yOOz582FI_16payjoin_mailroom11ohttp_relay9bootstrap2ws12map_ws_error
FNDA:0,_RINvNtNtNtCsk7yOOz582FI_16payjoin_mailroom11ohttp_relay9bootstrap2ws10start_sendINtNtNtCs2pWvqhVZqwS_10hyper_util2rt5tokio7TokioIoNtNtCsjTA6264Tasq_5hyper7upgrade8UpgradedEEB8_
FNDA:0,_RINvNtNtNtCsk7yOOz582FI_16payjoin_mailroom11ohttp_relay9bootstrap2ws11try_upgradeNtNtCsbGkwFBM7K7x_9axum_core4body4BodyEB8_
FNDA:0,_RINvNtNtNtCsk7yOOz582FI_16payjoin_mailroom11ohttp_relay9bootstrap2ws15serve_websocketINtNtNtCs2pWvqhVZqwS_10hyper_util2rt5tokio7TokioIoNtNtCsjTA6264Tasq_5hyper7upgrade8UpgradedEEB8_
FNDA:0,_RINvNtNtNtCsk7yOOz582FI_16payjoin_mailroom11ohttp_relay9bootstrap2ws20is_websocket_requestNtNtCsbGkwFBM7K7x_9axum_core4body4BodyEB8_
FNDA:0,_RNCINvNtNtNtCsk7yOOz582FI_16payjoin_mailroom11ohttp_relay9bootstrap2ws11try_upgradeNtNtCsbGkwFBM7K7x_9axum_core4body4BodyE0Ba_
FNDA:0,_RNCINvNtNtNtCsk7yOOz582FI_16payjoin_mailroom11ohttp_relay9bootstrap2ws15serve_websocketINtNtNtCs2pWvqhVZqwS_10hyper_util2rt5tokio7TokioIoNtNtCsjTA6264Tasq_5hyper7upgrade8UpgradedEE0Ba_
FNDA:0,_RNCINvNtNtNtCsk7yOOz582FI_16payjoin_mailroom11ohttp_relay9bootstrap2ws20is_websocket_requestNtNtCsbGkwFBM7K7x_9axum_core4body4BodyE0Ba_
FNDA:0,_RNCINvNtNtNtCsk7yOOz582FI_16payjoin_mailroom11ohttp_relay9bootstrap2ws20is_websocket_requestNtNtCsbGkwFBM7K7x_9axum_core4body4BodyEs0_0Ba_
FNDA:0,_RNCINvNtNtNtCsk7yOOz582FI_16payjoin_mailroom11ohttp_relay9bootstrap2ws20is_websocket_requestNtNtCsbGkwFBM7K7x_9axum_core4body4BodyEs1_0Ba_
FNDA:0,_RNCINvNtNtNtCsk7yOOz582FI_16payjoin_mailroom11ohttp_relay9bootstrap2ws20is_websocket_requestNtNtCsbGkwFBM7K7x_9axum_core4body4BodyEs_0Ba_
FNDA:0,_RNCNCNCINvNtNtNtCsk7yOOz582FI_16payjoin_mailroom11ohttp_relay9bootstrap2ws11try_upgradeNtNtCsbGkwFBM7K7x_9axum_core4body4BodyE000Be_
FNDA:0,_RNCNCNCINvNtNtNtCsk7yOOz582FI_16payjoin_mailroom11ohttp_relay9bootstrap2ws11try_upgradeNtNtCsbGkwFBM7K7x_9axum_core4body4BodyE00s0_0Be_
FNDA:0,_RNCNCNCINvNtNtNtCsk7yOOz582FI_16payjoin_mailroom11ohttp_relay9bootstrap2ws11try_upgradeNtNtCsbGkwFBM7K7x_9axum_core4body4BodyE00s1_0Be_
FNDA:0,_RNCNCNCINvNtNtNtCsk7yOOz582FI_16payjoin_mailroom11ohttp_relay9bootstrap2ws11try_upgradeNtNtCsbGkwFBM7K7x_9axum_core4body4BodyE00s2_0Be_
FNDA:0,_RNCNCNCINvNtNtNtCsk7yOOz582FI_16payjoin_mailroom11ohttp_relay9bootstrap2ws11try_upgradeNtNtCsbGkwFBM7K7x_9axum_core4body4BodyE00s3_0Be_
FNDA:0,_RNCNCNvXs0_NtNtNtCsk7yOOz582FI_16payjoin_mailroom11ohttp_relay9bootstrap2wsINtB9_4WsIoINtNtNtCs2pWvqhVZqwS_10hyper_util2rt5tokio7TokioIoNtNtCsjTA6264Tasq_5hyper7upgrade8UpgradedEENtNtNtCsi0rXn74gfzN_5tokio2io11async_write10AsyncWrite10poll_write00Bf_
FNDA:0,_RNCNvXs0_NtNtNtCsk7yOOz582FI_16payjoin_mailroom11ohttp_relay9bootstrap2wsINtB7_4WsIoINtNtNtCs2pWvqhVZqwS_10hyper_util2rt5tokio7TokioIoNtNtCsjTA6264Tasq_5hyper7upgrade8UpgradedEENtNtNtCsi0rXn74gfzN_5tokio2io11async_write10AsyncWrite10poll_write0Bd_
FNDA:0,_RNvMNtNtNtCsk7yOOz582FI_16payjoin_mailroom11ohttp_relay9bootstrap2wsINtB2_4WsIoINtNtNtCs2pWvqhVZqwS_10hyper_util2rt5tokio7TokioIoNtNtCsjTA6264Tasq_5hyper7upgrade8UpgradedEE3newB8_
FNDA:0,_RNvXs0_NtNtNtCsk7yOOz582FI_16payjoin_mailroom11ohttp_relay9bootstrap2wsINtB5_4WsIoINtNtNtCs2pWvqhVZqwS_10hyper_util2rt5tokio7TokioIoNtNtCsjTA6264Tasq_5hyper7upgrade8UpgradedEENtNtNtCsi0rXn74gfzN_5tokio2io11async_write10AsyncWrite10poll_flushBb_
FNDA:0,_RNvXs0_NtNtNtCsk7yOOz582FI_16payjoin_mailroom11ohttp_relay9bootstrap2wsINtB5_4WsIoINtNtNtCs2pWvqhVZqwS_10hyper_util2rt5tokio7TokioIoNtNtCsjTA6264Tasq_5hyper7upgrade8UpgradedEENtNtNtCsi0rXn74gfzN_5tokio2io11async_write10AsyncWrite10poll_writeBb_
FNDA:0,_RNvXs0_NtNtNtCsk7yOOz582FI_16payjoin_mailroom11ohttp_relay9bootstrap2wsINtB5_4WsIoINtNtNtCs2pWvqhVZqwS_10hyper_util2rt5tokio7TokioIoNtNtCsjTA6264Tasq_5hyper7upgrade8UpgradedEENtNtNtCsi0rXn74gfzN_5tokio2io11async_write10AsyncWrite13poll_shutdownBb_
FNDA:0,_RNvXs_NtNtNtCsk7yOOz582FI_16payjoin_mailroom11ohttp_relay9bootstrap2wsINtB4_4WsIoINtNtNtCs2pWvqhVZqwS_10hyper_util2rt5tokio7TokioIoNtNtCsjTA6264Tasq_5hyper7upgrade8UpgradedEENtNtNtCsi0rXn74gfzN_5tokio2io10async_read9AsyncRead9poll_readBa_
FNDA:0,_RINvNtNtNtCsk7yOOz582FI_16payjoin_mailroom11ohttp_relay9bootstrap2ws10start_sendINtNtCs62FzrXixYyA_17tokio_tungstenite6stream14MaybeTlsStreamNtNtNtNtCsi0rXn74gfzN_5tokio3net3tcp6stream9TcpStreamEECsieIg8j6MHYB_11integration
FNDA:0,_RNCNCNvXs0_NtNtNtCsk7yOOz582FI_16payjoin_mailroom11ohttp_relay9bootstrap2wsINtB9_4WsIoINtNtCs62FzrXixYyA_17tokio_tungstenite6stream14MaybeTlsStreamNtNtNtNtCsi0rXn74gfzN_5tokio3net3tcp6stream9TcpStreamEENtNtNtB2t_2io11async_write10AsyncWrite10poll_write00CsieIg8j6MHYB_11integration
FNDA:0,_RNCNvXs0_NtNtNtCsk7yOOz582FI_16payjoin_mailroom11ohttp_relay9bootstrap2wsINtB7_4WsIoINtNtCs62FzrXixYyA_17tokio_tungstenite6stream14MaybeTlsStreamNtNtNtNtCsi0rXn74gfzN_5tokio3net3tcp6stream9TcpStreamEENtNtNtB2r_2io11async_write10AsyncWrite10poll_write0CsieIg8j6MHYB_11integration
FNDA:0,_RNvMNtNtNtCsk7yOOz582FI_16payjoin_mailroom11ohttp_relay9bootstrap2wsINtB2_4WsIoINtNtCs62FzrXixYyA_17tokio_tungstenite6stream14MaybeTlsStreamNtNtNtNtCsi0rXn74gfzN_5tokio3net3tcp6stream9TcpStreamEE3newCsieIg8j6MHYB_11integration
FNDA:0,_RNvXs0_NtNtNtCsk7yOOz582FI_16payjoin_mailroom11ohttp_relay9bootstrap2wsINtB5_4WsIoINtNtCs62FzrXixYyA_17tokio_tungstenite6stream14MaybeTlsStreamNtNtNtNtCsi0rXn74gfzN_5tokio3net3tcp6stream9TcpStreamEENtNtNtB2p_2io11async_write10AsyncWrite10poll_flushCsieIg8j6MHYB_11integration
FNDA:0,_RNvXs0_NtNtNtCsk7yOOz582FI_16payjoin_mailroom11ohttp_relay9bootstrap2wsINtB5_4WsIoINtNtCs62FzrXixYyA_17tokio_tungstenite6stream14MaybeTlsStreamNtNtNtNtCsi0rXn74gfzN_5tokio3net3tcp6stream9TcpStreamEENtNtNtB2p_2io11async_write10AsyncWrite10poll_writeCsieIg8j6MHYB_11integration
FNDA:0,_RNvXs_NtNtNtCsk7yOOz582FI_16payjoin_mailroom11ohttp_relay9bootstrap2wsINtB4_4WsIoINtNtCs62FzrXixYyA_17tokio_tungstenite6stream14MaybeTlsStreamNtNtNtNtCsi0rXn74gfzN_5tokio3net3tcp6stream9TcpStreamEENtNtNtB2o_2io10async_read9AsyncRead9poll_readCsieIg8j6MHYB_11integration
FNDA:0,_RNvNtNtNtCs8YpBKXcegdX_16payjoin_mailroom11ohttp_relay9bootstrap2ws12map_ws_error
FNDA:0,_RINvNtNtNtCs8YpBKXcegdX_16payjoin_mailroom11ohttp_relay9bootstrap2ws10start_sendINtNtNtCs2pWvqhVZqwS_10hyper_util2rt5tokio7TokioIoNtNtCsjTA6264Tasq_5hyper7upgrade8UpgradedEEB8_
FNDA:0,_RINvNtNtNtCs8YpBKXcegdX_16payjoin_mailroom11ohttp_relay9bootstrap2ws11try_upgradeNtNtCsbGkwFBM7K7x_9axum_core4body4BodyEB8_
FNDA:0,_RINvNtNtNtCs8YpBKXcegdX_16payjoin_mailroom11ohttp_relay9bootstrap2ws15serve_websocketINtNtNtCs2pWvqhVZqwS_10hyper_util2rt5tokio7TokioIoNtNtCsjTA6264Tasq_5hyper7upgrade8UpgradedEEB8_
FNDA:0,_RINvNtNtNtCs8YpBKXcegdX_16payjoin_mailroom11ohttp_relay9bootstrap2ws20is_websocket_requestNtNtCsbGkwFBM7K7x_9axum_core4body4BodyEB8_
FNDA:0,_RNCINvNtNtNtCs8YpBKXcegdX_16payjoin_mailroom11ohttp_relay9bootstrap2ws11try_upgradeNtNtCsbGkwFBM7K7x_9axum_core4body4BodyE0Ba_
FNDA:0,_RNCINvNtNtNtCs8YpBKXcegdX_16payjoin_mailroom11ohttp_relay9bootstrap2ws15serve_websocketINtNtNtCs2pWvqhVZqwS_10hyper_util2rt5tokio7TokioIoNtNtCsjTA6264Tasq_5hyper7upgrade8UpgradedEE0Ba_
FNDA:0,_RNCINvNtNtNtCs8YpBKXcegdX_16payjoin_mailroom11ohttp_relay9bootstrap2ws20is_websocket_requestNtNtCsbGkwFBM7K7x_9axum_core4body4BodyE0Ba_
FNDA:0,_RNCINvNtNtNtCs8YpBKXcegdX_16payjoin_mailroom11ohttp_relay9bootstrap2ws20is_websocket_requestNtNtCsbGkwFBM7K7x_9axum_core4body4BodyEs0_0Ba_
FNDA:0,_RNCINvNtNtNtCs8YpBKXcegdX_16payjoin_mailroom11ohttp_relay9bootstrap2ws20is_websocket_requestNtNtCsbGkwFBM7K7x_9axum_core4body4BodyEs1_0Ba_
FNDA:0,_RNCINvNtNtNtCs8YpBKXcegdX_16payjoin_mailroom11ohttp_relay9bootstrap2ws20is_websocket_requestNtNtCsbGkwFBM7K7x_9axum_core4body4BodyEs_0Ba_
FNDA:0,_RNCNCNCINvNtNtNtCs8YpBKXcegdX_16payjoin_mailroom11ohttp_relay9bootstrap2ws11try_upgradeNtNtCsbGkwFBM7K7x_9axum_core4body4BodyE000Be_
FNDA:0,_RNCNCNCINvNtNtNtCs8YpBKXcegdX_16payjoin_mailroom11ohttp_relay9bootstrap2ws11try_upgradeNtNtCsbGkwFBM7K7x_9axum_core4body4BodyE00s0_0Be_
FNDA:0,_RNCNCNCINvNtNtNtCs8YpBKXcegdX_16payjoin_mailroom11ohttp_relay9bootstrap2ws11try_upgradeNtNtCsbGkwFBM7K7x_9axum_core4body4BodyE00s1_0Be_
FNDA:0,_RNCNCNCINvNtNtNtCs8YpBKXcegdX_16payjoin_mailroom11ohttp_relay9bootstrap2ws11try_upgradeNtNtCsbGkwFBM7K7x_9axum_core4body4BodyE00s2_0Be_
FNDA:0,_RNCNCNCINvNtNtNtCs8YpBKXcegdX_16payjoin_mailroom11ohttp_relay9bootstrap2ws11try_upgradeNtNtCsbGkwFBM7K7x_9axum_core4body4BodyE00s3_0Be_
FNDA:0,_RNCNCNvXs0_NtNtNtCs8YpBKXcegdX_16payjoin_mailroom11ohttp_relay9bootstrap2wsINtB9_4WsIoINtNtNtCs2pWvqhVZqwS_10hyper_util2rt5tokio7TokioIoNtNtCsjTA6264Tasq_5hyper7upgrade8UpgradedEENtNtNtCsi0rXn74gfzN_5tokio2io11async_write10AsyncWrite10poll_write00Bf_
FNDA:0,_RNCNvXs0_NtNtNtCs8YpBKXcegdX_16payjoin_mailroom11ohttp_relay9bootstrap2wsINtB7_4WsIoINtNtNtCs2pWvqhVZqwS_10hyper_util2rt5tokio7TokioIoNtNtCsjTA6264Tasq_5hyper7upgrade8UpgradedEENtNtNtCsi0rXn74gfzN_5tokio2io11async_write10AsyncWrite10poll_write0Bd_
FNDA:0,_RNvMNtNtNtCs8YpBKXcegdX_16payjoin_mailroom11ohttp_relay9bootstrap2wsINtB2_4WsIoINtNtNtCs2pWvqhVZqwS_10hyper_util2rt5tokio7TokioIoNtNtCsjTA6264Tasq_5hyper7upgrade8UpgradedEE3newB8_
FNDA:0,_RNvXs0_NtNtNtCs8YpBKXcegdX_16payjoin_mailroom11ohttp_relay9bootstrap2wsINtB5_4WsIoINtNtNtCs2pWvqhVZqwS_10hyper_util2rt5tokio7TokioIoNtNtCsjTA6264Tasq_5hyper7upgrade8UpgradedEENtNtNtCsi0rXn74gfzN_5tokio2io11async_write10AsyncWrite10poll_flushBb_
FNDA:0,_RNvXs0_NtNtNtCs8YpBKXcegdX_16payjoin_mailroom11ohttp_relay9bootstrap2wsINtB5_4WsIoINtNtNtCs2pWvqhVZqwS_10hyper_util2rt5tokio7TokioIoNtNtCsjTA6264Tasq_5hyper7upgrade8UpgradedEENtNtNtCsi0rXn74gfzN_5tokio2io11async_write10AsyncWrite10poll_writeBb_
FNDA:0,_RNvXs0_NtNtNtCs8YpBKXcegdX_16payjoin_mailroom11ohttp_relay9bootstrap2wsINtB5_4WsIoINtNtNtCs2pWvqhVZqwS_10hyper_util2rt5tokio7TokioIoNtNtCsjTA6264Tasq_5hyper7upgrade8UpgradedEENtNtNtCsi0rXn74gfzN_5tokio2io11async_write10AsyncWrite13poll_shutdownBb_
FNDA:0,_RNvXs_NtNtNtCs8YpBKXcegdX_16payjoin_mailroom11ohttp_relay9bootstrap2wsINtB4_4WsIoINtNtNtCs2pWvqhVZqwS_10hyper_util2rt5tokio7TokioIoNtNtCsjTA6264Tasq_5hyper7upgrade8UpgradedEENtNtNtCsi0rXn74gfzN_5tokio2io10async_read9AsyncRead9poll_readBa_
FNF:23
FNH:0
DA:28,0
DA:29,0
DA:30,0
DA:31,0
DA:32,0
DA:33,0
DA:34,0
DA:36,0
DA:37,0
DA:38,0
DA:39,0
DA:40,0
DA:41,0
DA:43,0
DA:44,0
DA:52,0
DA:53,0
DA:54,0
DA:55,0
DA:56,0
DA:57,0
DA:58,0
DA:62,0
DA:68,0
DA:70,0
DA:75,0
DA:76,0
DA:77,0
DA:78,0
DA:79,0
DA:80,0
DA:81,0
DA:82,0
DA:83,0
DA:84,0
DA:85,0
DA:86,0
DA:88,0
DA:90,0
DA:98,0
DA:101,0
DA:105,0
DA:106,0
DA:107,0
DA:108,0
DA:109,0
DA:110,0
DA:111,0
DA:116,0
DA:130,0
DA:131,0
DA:132,0
DA:139,0
DA:140,0
DA:141,0
DA:142,0
DA:143,0
DA:144,0
DA:147,0
DA:148,0
DA:149,0
DA:150,0
DA:151,0
DA:152,0
DA:154,0
DA:155,0
DA:156,0
DA:157,0
DA:158,0
DA:159,0
DA:160,0
DA:161,0
DA:163,0
DA:166,0
DA:168,0
DA:169,0
DA:174,0
DA:175,0
DA:179,0
DA:180,0
DA:181,0
DA:182,0
DA:185,0
DA:186,0
DA:188,0
DA:195,0
DA:196,0
DA:197,0
DA:198,0
DA:199,0
DA:200,0
DA:201,0
DA:203,0
DA:204,0
DA:205,0
DA:206,0
DA:208,0
DA:210,0
DA:211,0
DA:212,0
DA:214,0
DA:215,0
DA:216,0
DA:219,0
DA:220,0
DA:221,0
DA:222,0
DA:223,0
DA:224,0
DA:226,0
DA:227,0
DA:228,0
BRF:0
BRH:0
LF:118
LH:0
end_of_record
SF:/Users/bene/bitcoin/rust-payjoin/payjoin-mailroom/src/ohttp_relay/error.rs
FN:27,_RNvMNtNtCsewJmtgcsYNl_16payjoin_mailroom11ohttp_relay5errorNtB2_5Error11to_response
FN:56,_RNvXs_NtNtCsewJmtgcsYNl_16payjoin_mailroom11ohttp_relay5errorNtB4_5ErrorNtNtCs2hl1TO11rA7_4core3fmt7Display3fmt
FN:27,_RNvMNtNtCsk7yOOz582FI_16payjoin_mailroom11ohttp_relay5errorNtB2_5Error11to_response
FN:56,_RNvXs_NtNtCsk7yOOz582FI_16payjoin_mailroom11ohttp_relay5errorNtB4_5ErrorNtNtCs2hl1TO11rA7_4core3fmt7Display3fmt
FN:56,_RNvXs_NtNtCs8YpBKXcegdX_16payjoin_mailroom11ohttp_relay5errorNtB4_5ErrorNtNtCs2hl1TO11rA7_4core3fmt7Display3fmt
FN:27,_RNvMNtNtCs8YpBKXcegdX_16payjoin_mailroom11ohttp_relay5errorNtB2_5Error11to_response
FNDA:0,_RNvMNtNtCsewJmtgcsYNl_16payjoin_mailroom11ohttp_relay5errorNtB2_5Error11to_response
FNDA:0,_RNvXs_NtNtCsewJmtgcsYNl_16payjoin_mailroom11ohttp_relay5errorNtB4_5ErrorNtNtCs2hl1TO11rA7_4core3fmt7Display3fmt
FNDA:0,_RNvMNtNtCsk7yOOz582FI_16payjoin_mailroom11ohttp_relay5errorNtB2_5Error11to_response
FNDA:0,_RNvXs_NtNtCsk7yOOz582FI_16payjoin_mailroom11ohttp_relay5errorNtB4_5ErrorNtNtCs2hl1TO11rA7_4core3fmt7Display3fmt
FNDA:0,_RNvXs_NtNtCs8YpBKXcegdX_16payjoin_mailroom11ohttp_relay5errorNtB4_5ErrorNtNtCs2hl1TO11rA7_4core3fmt7Display3fmt
FNDA:0,_RNvMNtNtCs8YpBKXcegdX_16payjoin_mailroom11ohttp_relay5errorNtB2_5Error11to_response
FNF:2
FNH:0
DA:27,0
DA:28,0
DA:29,0
DA:30,0
DA:31,0
DA:32,0
DA:33,0
DA:34,0
DA:35,0
DA:36,0
DA:37,0
DA:38,0
DA:39,0
DA:40,0
DA:42,0
DA:43,0
DA:44,0
DA:45,0
DA:46,0
DA:47,0
DA:48,0
DA:49,0
DA:51,0
DA:52,0
DA:56,0
DA:57,0
DA:58,0
DA:59,0
DA:60,0
DA:61,0
DA:62,0
DA:63,0
DA:64,0
DA:66,0
BRF:0
BRH:0
LF:34
LH:0
end_of_record
SF:/Users/bene/bitcoin/rust-payjoin/payjoin-mailroom/src/ohttp_relay/gateway_prober.rs
FN:28,_RNvMNtNtCsewJmtgcsYNl_16payjoin_mailroom11ohttp_relay14gateway_proberNtB2_6Policy6always
FN:114,_RNvMs2_NtNtCsewJmtgcsYNl_16payjoin_mailroom11ohttp_relay14gateway_proberNtB5_13KnownGateways12has_capacity
FN:120,_RNvMs2_NtNtCsewJmtgcsYNl_16payjoin_mailroom11ohttp_relay14gateway_proberNtB5_13KnownGateways15no_capacity_for
FN:131,_RNvMs2_NtNtCsewJmtgcsYNl_16payjoin_mailroom11ohttp_relay14gateway_proberNtB5_13KnownGateways18allocate_in_flight
FN:83,_RNvMs2_NtNtCsewJmtgcsYNl_16payjoin_mailroom11ohttp_relay14gateway_proberNtB5_13KnownGateways3get
FN:101,_RNvMs2_NtNtCsewJmtgcsYNl_16payjoin_mailroom11ohttp_relay14gateway_proberNtB5_13KnownGateways5prune
FN:146,_RNvMs2_NtNtCsewJmtgcsYNl_16payjoin_mailroom11ohttp_relay14gateway_proberNtB5_13KnownGateways6insert
FN:189,_RNvMs3_NtNtCsewJmtgcsYNl_16payjoin_mailroom11ohttp_relay14gateway_proberNtB5_6Prober12check_opt_in
FN:182,_RNvMs3_NtNtCsewJmtgcsYNl_16payjoin_mailroom11ohttp_relay14gateway_proberNtB5_6Prober13assert_opt_in
FN:177,_RNvMs3_NtNtCsewJmtgcsYNl_16payjoin_mailroom11ohttp_relay14gateway_proberNtB5_6Prober15new_with_client
FN:327,_RNvMs3_NtNtCsewJmtgcsYNl_16payjoin_mailroom11ohttp_relay14gateway_proberNtB5_6Prober15unavailable_for
FN:221,_RNvMs3_NtNtCsewJmtgcsYNl_16payjoin_mailroom11ohttp_relay14gateway_proberNtB5_6Prober18is_explicit_opt_in
FN:261,_RNvMs3_NtNtCsewJmtgcsYNl_16payjoin_mailroom11ohttp_relay14gateway_proberNtB5_6Prober5probe
FN:333,_RNvNtNtCsewJmtgcsYNl_16payjoin_mailroom11ohttp_relay14gateway_prober18parse_alpn_encoded
FN:69,_RNvXs0_NtNtCsewJmtgcsYNl_16payjoin_mailroom11ohttp_relay14gateway_proberNtB5_9HeapEntryNtNtCs2hl1TO11rA7_4core3cmp10PartialOrd11partial_cmp
FN:73,_RNvXs1_NtNtCsewJmtgcsYNl_16payjoin_mailroom11ohttp_relay14gateway_proberNtB5_13KnownGatewaysNtNtCs2hl1TO11rA7_4core7default7Default7default
FN:388,_RNvXs4_NtNtCsewJmtgcsYNl_16payjoin_mailroom11ohttp_relay14gateway_proberNtB5_9TTLConfigNtNtCs2hl1TO11rA7_4core7default7Default7default
FN:65,_RNvXs_NtNtCsewJmtgcsYNl_16payjoin_mailroom11ohttp_relay14gateway_proberNtB4_9HeapEntryNtNtCs2hl1TO11rA7_4core3cmp3Ord3cmp
FN:248,_RINvMs3_NtNtCsewJmtgcsYNl_16payjoin_mailroom11ohttp_relay14gateway_proberNtB6_6Prober14retry_after_orNtNtNtCs9cxRumJ6vay_5hyper4body8incoming8IncomingEBa_
FN:253,_RNCINvMs3_NtNtCsewJmtgcsYNl_16payjoin_mailroom11ohttp_relay14gateway_proberNtB8_6Prober14retry_after_orNtNtNtCs9cxRumJ6vay_5hyper4body8incoming8IncomingE0Bc_
FN:256,_RNCINvMs3_NtNtCsewJmtgcsYNl_16payjoin_mailroom11ohttp_relay14gateway_proberNtB8_6Prober14retry_after_orNtNtNtCs9cxRumJ6vay_5hyper4body8incoming8IncomingEs0_0Bc_
FN:254,_RNCINvMs3_NtNtCsewJmtgcsYNl_16payjoin_mailroom11ohttp_relay14gateway_proberNtB8_6Prober14retry_after_orNtNtNtCs9cxRumJ6vay_5hyper4body8incoming8IncomingEs_0Bc_
FN:267,_RNCNCNvMs3_NtNtCsewJmtgcsYNl_16payjoin_mailroom11ohttp_relay14gateway_proberNtB9_6Prober5probe00Bd_
FN:310,_RNCNCNvMs3_NtNtCsewJmtgcsYNl_16payjoin_mailroom11ohttp_relay14gateway_proberNtB9_6Prober5probe0s_0Bd_
FN:127,_RNCNvMs2_NtNtCsewJmtgcsYNl_16payjoin_mailroom11ohttp_relay14gateway_proberNtB7_13KnownGateways15no_capacity_for0Bb_
FN:189,_RNCNvMs3_NtNtCsewJmtgcsYNl_16payjoin_mailroom11ohttp_relay14gateway_proberNtB7_6Prober12check_opt_in0Bb_
FN:182,_RNCNvMs3_NtNtCsewJmtgcsYNl_16payjoin_mailroom11ohttp_relay14gateway_proberNtB7_6Prober13assert_opt_in0Bb_
FN:327,_RNCNvMs3_NtNtCsewJmtgcsYNl_16payjoin_mailroom11ohttp_relay14gateway_proberNtB7_6Prober15unavailable_for0Bb_
FN:221,_RNCNvMs3_NtNtCsewJmtgcsYNl_16payjoin_mailroom11ohttp_relay14gateway_proberNtB7_6Prober18is_explicit_opt_in0Bb_
FN:261,_RNCNvMs3_NtNtCsewJmtgcsYNl_16payjoin_mailroom11ohttp_relay14gateway_proberNtB7_6Prober5probe0Bb_
FN:28,_RNvMNtNtCsk7yOOz582FI_16payjoin_mailroom11ohttp_relay14gateway_proberNtB2_6Policy6always
FN:114,_RNvMs2_NtNtCsk7yOOz582FI_16payjoin_mailroom11ohttp_relay14gateway_proberNtB5_13KnownGateways12has_capacity
FN:120,_RNvMs2_NtNtCsk7yOOz582FI_16payjoin_mailroom11ohttp_relay14gateway_proberNtB5_13KnownGateways15no_capacity_for
FN:131,_RNvMs2_NtNtCsk7yOOz582FI_16payjoin_mailroom11ohttp_relay14gateway_proberNtB5_13KnownGateways18allocate_in_flight
FN:83,_RNvMs2_NtNtCsk7yOOz582FI_16payjoin_mailroom11ohttp_relay14gateway_proberNtB5_13KnownGateways3get
FN:101,_RNvMs2_NtNtCsk7yOOz582FI_16payjoin_mailroom11ohttp_relay14gateway_proberNtB5_13KnownGateways5prune
FN:146,_RNvMs2_NtNtCsk7yOOz582FI_16payjoin_mailroom11ohttp_relay14gateway_proberNtB5_13KnownGateways6insert
FN:189,_RNvMs3_NtNtCsk7yOOz582FI_16payjoin_mailroom11ohttp_relay14gateway_proberNtB5_6Prober12check_opt_in
FN:182,_RNvMs3_NtNtCsk7yOOz582FI_16payjoin_mailroom11ohttp_relay14gateway_proberNtB5_6Prober13assert_opt_in
FN:177,_RNvMs3_NtNtCsk7yOOz582FI_16payjoin_mailroom11ohttp_relay14gateway_proberNtB5_6Prober15new_with_client
FN:327,_RNvMs3_NtNtCsk7yOOz582FI_16payjoin_mailroom11ohttp_relay14gateway_proberNtB5_6Prober15unavailable_for
FN:221,_RNvMs3_NtNtCsk7yOOz582FI_16payjoin_mailroom11ohttp_relay14gateway_proberNtB5_6Prober18is_explicit_opt_in
FN:261,_RNvMs3_NtNtCsk7yOOz582FI_16payjoin_mailroom11ohttp_relay14gateway_proberNtB5_6Prober5probe
FN:333,_RNvNtNtCsk7yOOz582FI_16payjoin_mailroom11ohttp_relay14gateway_prober18parse_alpn_encoded
FN:69,_RNvXs0_NtNtCsk7yOOz582FI_16payjoin_mailroom11ohttp_relay14gateway_proberNtB5_9HeapEntryNtNtCs2hl1TO11rA7_4core3cmp10PartialOrd11partial_cmp
FN:73,_RNvXs1_NtNtCsk7yOOz582FI_16payjoin_mailroom11ohttp_relay14gateway_proberNtB5_13KnownGatewaysNtNtCs2hl1TO11rA7_4core7default7Default7default
FN:388,_RNvXs4_NtNtCsk7yOOz582FI_16payjoin_mailroom11ohttp_relay14gateway_proberNtB5_9TTLConfigNtNtCs2hl1TO11rA7_4core7default7Default7default
FN:65,_RNvXs_NtNtCsk7yOOz582FI_16payjoin_mailroom11ohttp_relay14gateway_proberNtB4_9HeapEntryNtNtCs2hl1TO11rA7_4core3cmp3Ord3cmp
FN:248,_RINvMs3_NtNtCsk7yOOz582FI_16payjoin_mailroom11ohttp_relay14gateway_proberNtB6_6Prober14retry_after_orNtNtNtCsjTA6264Tasq_5hyper4body8incoming8IncomingEBa_
FN:253,_RNCINvMs3_NtNtCsk7yOOz582FI_16payjoin_mailroom11ohttp_relay14gateway_proberNtB8_6Prober14retry_after_orNtNtNtCsjTA6264Tasq_5hyper4body8incoming8IncomingE0Bc_
FN:256,_RNCINvMs3_NtNtCsk7yOOz582FI_16payjoin_mailroom11ohttp_relay14gateway_proberNtB8_6Prober14retry_after_orNtNtNtCsjTA6264Tasq_5hyper4body8incoming8IncomingEs0_0Bc_
FN:254,_RNCINvMs3_NtNtCsk7yOOz582FI_16payjoin_mailroom11ohttp_relay14gateway_proberNtB8_6Prober14retry_after_orNtNtNtCsjTA6264Tasq_5hyper4body8incoming8IncomingEs_0Bc_
FN:267,_RNCNCNvMs3_NtNtCsk7yOOz582FI_16payjoin_mailroom11ohttp_relay14gateway_proberNtB9_6Prober5probe00Bd_
FN:310,_RNCNCNvMs3_NtNtCsk7yOOz582FI_16payjoin_mailroom11ohttp_relay14gateway_proberNtB9_6Prober5probe0s_0Bd_
FN:127,_RNCNvMs2_NtNtCsk7yOOz582FI_16payjoin_mailroom11ohttp_relay14gateway_proberNtB7_13KnownGateways15no_capacity_for0Bb_
FN:189,_RNCNvMs3_NtNtCsk7yOOz582FI_16payjoin_mailroom11ohttp_relay14gateway_proberNtB7_6Prober12check_opt_in0Bb_
FN:182,_RNCNvMs3_NtNtCsk7yOOz582FI_16payjoin_mailroom11ohttp_relay14gateway_proberNtB7_6Prober13assert_opt_in0Bb_
FN:327,_RNCNvMs3_NtNtCsk7yOOz582FI_16payjoin_mailroom11ohttp_relay14gateway_proberNtB7_6Prober15unavailable_for0Bb_
FN:221,_RNCNvMs3_NtNtCsk7yOOz582FI_16payjoin_mailroom11ohttp_relay14gateway_proberNtB7_6Prober18is_explicit_opt_in0Bb_
FN:261,_RNCNvMs3_NtNtCsk7yOOz582FI_16payjoin_mailroom11ohttp_relay14gateway_proberNtB7_6Prober5probe0Bb_
FN:248,_RINvMs3_NtNtCs8YpBKXcegdX_16payjoin_mailroom11ohttp_relay14gateway_proberNtB6_6Prober14retry_after_orNtNtNtCsjTA6264Tasq_5hyper4body8incoming8IncomingEBa_
FN:253,_RNCINvMs3_NtNtCs8YpBKXcegdX_16payjoin_mailroom11ohttp_relay14gateway_proberNtB8_6Prober14retry_after_orNtNtNtCsjTA6264Tasq_5hyper4body8incoming8IncomingE0Bc_
FN:256,_RNCINvMs3_NtNtCs8YpBKXcegdX_16payjoin_mailroom11ohttp_relay14gateway_proberNtB8_6Prober14retry_after_orNtNtNtCsjTA6264Tasq_5hyper4body8incoming8IncomingEs0_0Bc_
FN:254,_RNCINvMs3_NtNtCs8YpBKXcegdX_16payjoin_mailroom11ohttp_relay14gateway_proberNtB8_6Prober14retry_after_orNtNtNtCsjTA6264Tasq_5hyper4body8incoming8IncomingEs_0Bc_
FN:267,_RNCNCNvMs3_NtNtCs8YpBKXcegdX_16payjoin_mailroom11ohttp_relay14gateway_proberNtB9_6Prober5probe00Bd_
FN:310,_RNCNCNvMs3_NtNtCs8YpBKXcegdX_16payjoin_mailroom11ohttp_relay14gateway_proberNtB9_6Prober5probe0s_0Bd_
FN:127,_RNCNvMs2_NtNtCs8YpBKXcegdX_16payjoin_mailroom11ohttp_relay14gateway_proberNtB7_13KnownGateways15no_capacity_for0Bb_
FN:189,_RNCNvMs3_NtNtCs8YpBKXcegdX_16payjoin_mailroom11ohttp_relay14gateway_proberNtB7_6Prober12check_opt_in0Bb_
FN:182,_RNCNvMs3_NtNtCs8YpBKXcegdX_16payjoin_mailroom11ohttp_relay14gateway_proberNtB7_6Prober13assert_opt_in0Bb_
FN:327,_RNCNvMs3_NtNtCs8YpBKXcegdX_16payjoin_mailroom11ohttp_relay14gateway_proberNtB7_6Prober15unavailable_for0Bb_
FN:221,_RNCNvMs3_NtNtCs8YpBKXcegdX_16payjoin_mailroom11ohttp_relay14gateway_proberNtB7_6Prober18is_explicit_opt_in0Bb_
FN:261,_RNCNvMs3_NtNtCs8YpBKXcegdX_16payjoin_mailroom11ohttp_relay14gateway_proberNtB7_6Prober5probe0Bb_
FN:639,_RNvNtNtNtCs8YpBKXcegdX_16payjoin_mailroom11ohttp_relay14gateway_prober5testss_13test_mock_404
FN:570,_RNvNtNtNtCs8YpBKXcegdX_16payjoin_mailroom11ohttp_relay14gateway_prober5testss_16test_mock_opt_in
FN:596,_RNvNtNtNtCs8YpBKXcegdX_16payjoin_mailroom11ohttp_relay14gateway_prober5testss_18test_assert_opt_in
FN:427,_RNvNtNtNtCs8YpBKXcegdX_16payjoin_mailroom11ohttp_relay14gateway_prober5testss_19test_known_gateways
FN:616,_RNvNtNtNtCs8YpBKXcegdX_16payjoin_mailroom11ohttp_relay14gateway_prober5testss_19test_mock_no_opt_in
FN:737,_RNvNtNtNtCs8YpBKXcegdX_16payjoin_mailroom11ohttp_relay14gateway_prober5testss_23test_parse_alpn_encoded
FN:785,_RNvNtNtNtCs8YpBKXcegdX_16payjoin_mailroom11ohttp_relay14gateway_prober5testss_25test_mock_429_retry_after
FN:823,_RNvNtNtNtCs8YpBKXcegdX_16payjoin_mailroom11ohttp_relay14gateway_prober5testss_25test_mock_503_retry_after
FN:659,_RNvNtNtNtCs8YpBKXcegdX_16payjoin_mailroom11ohttp_relay14gateway_prober5testss_27test_inflight_deduplication
FN:843,_RNvNtNtNtCs8YpBKXcegdX_16payjoin_mailroom11ohttp_relay14gateway_prober5testss_41test_mock_429_no_retry_after_uses_default
FN:28,_RNvMNtNtCs8YpBKXcegdX_16payjoin_mailroom11ohttp_relay14gateway_proberNtB2_6Policy6always
FN:114,_RNvMs2_NtNtCs8YpBKXcegdX_16payjoin_mailroom11ohttp_relay14gateway_proberNtB5_13KnownGateways12has_capacity
FN:120,_RNvMs2_NtNtCs8YpBKXcegdX_16payjoin_mailroom11ohttp_relay14gateway_proberNtB5_13KnownGateways15no_capacity_for
FN:131,_RNvMs2_NtNtCs8YpBKXcegdX_16payjoin_mailroom11ohttp_relay14gateway_proberNtB5_13KnownGateways18allocate_in_flight
FN:83,_RNvMs2_NtNtCs8YpBKXcegdX_16payjoin_mailroom11ohttp_relay14gateway_proberNtB5_13KnownGateways3get
FN:101,_RNvMs2_NtNtCs8YpBKXcegdX_16payjoin_mailroom11ohttp_relay14gateway_proberNtB5_13KnownGateways5prune
FN:146,_RNvMs2_NtNtCs8YpBKXcegdX_16payjoin_mailroom11ohttp_relay14gateway_proberNtB5_13KnownGateways6insert
FN:189,_RNvMs3_NtNtCs8YpBKXcegdX_16payjoin_mailroom11ohttp_relay14gateway_proberNtB5_6Prober12check_opt_in
FN:182,_RNvMs3_NtNtCs8YpBKXcegdX_16payjoin_mailroom11ohttp_relay14gateway_proberNtB5_6Prober13assert_opt_in
FN:177,_RNvMs3_NtNtCs8YpBKXcegdX_16payjoin_mailroom11ohttp_relay14gateway_proberNtB5_6Prober15new_with_client
FN:327,_RNvMs3_NtNtCs8YpBKXcegdX_16payjoin_mailroom11ohttp_relay14gateway_proberNtB5_6Prober15unavailable_for
FN:221,_RNvMs3_NtNtCs8YpBKXcegdX_16payjoin_mailroom11ohttp_relay14gateway_proberNtB5_6Prober18is_explicit_opt_in
FN:261,_RNvMs3_NtNtCs8YpBKXcegdX_16payjoin_mailroom11ohttp_relay14gateway_proberNtB5_6Prober5probe
FN:333,_RNvNtNtCs8YpBKXcegdX_16payjoin_mailroom11ohttp_relay14gateway_prober18parse_alpn_encoded
FN:69,_RNvXs0_NtNtCs8YpBKXcegdX_16payjoin_mailroom11ohttp_relay14gateway_proberNtB5_9HeapEntryNtNtCs2hl1TO11rA7_4core3cmp10PartialOrd11partial_cmp
FN:73,_RNvXs1_NtNtCs8YpBKXcegdX_16payjoin_mailroom11ohttp_relay14gateway_proberNtB5_13KnownGatewaysNtNtCs2hl1TO11rA7_4core7default7Default7default
FN:388,_RNvXs4_NtNtCs8YpBKXcegdX_16payjoin_mailroom11ohttp_relay14gateway_proberNtB5_9TTLConfigNtNtCs2hl1TO11rA7_4core7default7Default7default
FN:65,_RNvXs_NtNtCs8YpBKXcegdX_16payjoin_mailroom11ohttp_relay14gateway_proberNtB4_9HeapEntryNtNtCs2hl1TO11rA7_4core3cmp3Ord3cmp
FN:679,_RNCNCNvNtNtNtCs8YpBKXcegdX_16payjoin_mailroom11ohttp_relay14gateway_prober5testss_27test_inflight_deduplication00Bb_
FN:698,_RNCNCNvNtNtNtCs8YpBKXcegdX_16payjoin_mailroom11ohttp_relay14gateway_prober5testss_27test_inflight_deduplication0s_0Bb_
FN:639,_RNCNvNtNtNtCs8YpBKXcegdX_16payjoin_mailroom11ohttp_relay14gateway_prober5testss_13test_mock_4040B9_
FN:570,_RNCNvNtNtNtCs8YpBKXcegdX_16payjoin_mailroom11ohttp_relay14gateway_prober5testss_16test_mock_opt_in0B9_
FN:596,_RNCNvNtNtNtCs8YpBKXcegdX_16payjoin_mailroom11ohttp_relay14gateway_prober5testss_18test_assert_opt_in0B9_
FN:427,_RNCNvNtNtNtCs8YpBKXcegdX_16payjoin_mailroom11ohttp_relay14gateway_prober5testss_19test_known_gateways0B9_
FN:616,_RNCNvNtNtNtCs8YpBKXcegdX_16payjoin_mailroom11ohttp_relay14gateway_prober5testss_19test_mock_no_opt_in0B9_
FN:785,_RNCNvNtNtNtCs8YpBKXcegdX_16payjoin_mailroom11ohttp_relay14gateway_prober5testss_25test_mock_429_retry_after0B9_
FN:823,_RNCNvNtNtNtCs8YpBKXcegdX_16payjoin_mailroom11ohttp_relay14gateway_prober5testss_25test_mock_503_retry_after0B9_
FN:659,_RNCNvNtNtNtCs8YpBKXcegdX_16payjoin_mailroom11ohttp_relay14gateway_prober5testss_27test_inflight_deduplication0B9_
FN:843,_RNCNvNtNtNtCs8YpBKXcegdX_16payjoin_mailroom11ohttp_relay14gateway_prober5testss_41test_mock_429_no_retry_after_uses_default0B9_
FNDA:0,_RNvMNtNtCsewJmtgcsYNl_16payjoin_mailroom11ohttp_relay14gateway_proberNtB2_6Policy6always
FNDA:0,_RNvMs2_NtNtCsewJmtgcsYNl_16payjoin_mailroom11ohttp_relay14gateway_proberNtB5_13KnownGateways12has_capacity
FNDA:0,_RNvMs2_NtNtCsewJmtgcsYNl_16payjoin_mailroom11ohttp_relay14gateway_proberNtB5_13KnownGateways15no_capacity_for
FNDA:0,_RNvMs2_NtNtCsewJmtgcsYNl_16payjoin_mailroom11ohttp_relay14gateway_proberNtB5_13KnownGateways18allocate_in_flight
FNDA:0,_RNvMs2_NtNtCsewJmtgcsYNl_16payjoin_mailroom11ohttp_relay14gateway_proberNtB5_13KnownGateways3get
FNDA:0,_RNvMs2_NtNtCsewJmtgcsYNl_16payjoin_mailroom11ohttp_relay14gateway_proberNtB5_13KnownGateways5prune
FNDA:0,_RNvMs2_NtNtCsewJmtgcsYNl_16payjoin_mailroom11ohttp_relay14gateway_proberNtB5_13KnownGateways6insert
FNDA:0,_RNvMs3_NtNtCsewJmtgcsYNl_16payjoin_mailroom11ohttp_relay14gateway_proberNtB5_6Prober12check_opt_in
FNDA:0,_RNvMs3_NtNtCsewJmtgcsYNl_16payjoin_mailroom11ohttp_relay14gateway_proberNtB5_6Prober13assert_opt_in
FNDA:0,_RNvMs3_NtNtCsewJmtgcsYNl_16payjoin_mailroom11ohttp_relay14gateway_proberNtB5_6Prober15new_with_client
FNDA:0,_RNvMs3_NtNtCsewJmtgcsYNl_16payjoin_mailroom11ohttp_relay14gateway_proberNtB5_6Prober15unavailable_for
FNDA:0,_RNvMs3_NtNtCsewJmtgcsYNl_16payjoin_mailroom11ohttp_relay14gateway_proberNtB5_6Prober18is_explicit_opt_in
FNDA:0,_RNvMs3_NtNtCsewJmtgcsYNl_16payjoin_mailroom11ohttp_relay14gateway_proberNtB5_6Prober5probe
FNDA:0,_RNvNtNtCsewJmtgcsYNl_16payjoin_mailroom11ohttp_relay14gateway_prober18parse_alpn_encoded
FNDA:0,_RNvXs0_NtNtCsewJmtgcsYNl_16payjoin_mailroom11ohttp_relay14gateway_proberNtB5_9HeapEntryNtNtCs2hl1TO11rA7_4core3cmp10PartialOrd11partial_cmp
FNDA:0,_RNvXs1_NtNtCsewJmtgcsYNl_16payjoin_mailroom11ohttp_relay14gateway_proberNtB5_13KnownGatewaysNtNtCs2hl1TO11rA7_4core7default7Default7default
FNDA:0,_RNvXs4_NtNtCsewJmtgcsYNl_16payjoin_mailroom11ohttp_relay14gateway_proberNtB5_9TTLConfigNtNtCs2hl1TO11rA7_4core7default7Default7default
FNDA:0,_RNvXs_NtNtCsewJmtgcsYNl_16payjoin_mailroom11ohttp_relay14gateway_proberNtB4_9HeapEntryNtNtCs2hl1TO11rA7_4core3cmp3Ord3cmp
FNDA:0,_RINvMs3_NtNtCsewJmtgcsYNl_16payjoin_mailroom11ohttp_relay14gateway_proberNtB6_6Prober14retry_after_orNtNtNtCs9cxRumJ6vay_5hyper4body8incoming8IncomingEBa_
FNDA:0,_RNCINvMs3_NtNtCsewJmtgcsYNl_16payjoin_mailroom11ohttp_relay14gateway_proberNtB8_6Prober14retry_after_orNtNtNtCs9cxRumJ6vay_5hyper4body8incoming8IncomingE0Bc_
FNDA:0,_RNCINvMs3_NtNtCsewJmtgcsYNl_16payjoin_mailroom11ohttp_relay14gateway_proberNtB8_6Prober14retry_after_orNtNtNtCs9cxRumJ6vay_5hyper4body8incoming8IncomingEs0_0Bc_
FNDA:0,_RNCINvMs3_NtNtCsewJmtgcsYNl_16payjoin_mailroom11ohttp_relay14gateway_proberNtB8_6Prober14retry_after_orNtNtNtCs9cxRumJ6vay_5hyper4body8incoming8IncomingEs_0Bc_
FNDA:0,_RNCNCNvMs3_NtNtCsewJmtgcsYNl_16payjoin_mailroom11ohttp_relay14gateway_proberNtB9_6Prober5probe00Bd_
FNDA:0,_RNCNCNvMs3_NtNtCsewJmtgcsYNl_16payjoin_mailroom11ohttp_relay14gateway_proberNtB9_6Prober5probe0s_0Bd_
FNDA:0,_RNCNvMs2_NtNtCsewJmtgcsYNl_16payjoin_mailroom11ohttp_relay14gateway_proberNtB7_13KnownGateways15no_capacity_for0Bb_
FNDA:0,_RNCNvMs3_NtNtCsewJmtgcsYNl_16payjoin_mailroom11ohttp_relay14gateway_proberNtB7_6Prober12check_opt_in0Bb_
FNDA:0,_RNCNvMs3_NtNtCsewJmtgcsYNl_16payjoin_mailroom11ohttp_relay14gateway_proberNtB7_6Prober13assert_opt_in0Bb_
FNDA:0,_RNCNvMs3_NtNtCsewJmtgcsYNl_16payjoin_mailroom11ohttp_relay14gateway_proberNtB7_6Prober15unavailable_for0Bb_
FNDA:0,_RNCNvMs3_NtNtCsewJmtgcsYNl_16payjoin_mailroom11ohttp_relay14gateway_proberNtB7_6Prober18is_explicit_opt_in0Bb_
FNDA:0,_RNCNvMs3_NtNtCsewJmtgcsYNl_16payjoin_mailroom11ohttp_relay14gateway_proberNtB7_6Prober5probe0Bb_
FNDA:23,_RNvMNtNtCsk7yOOz582FI_16payjoin_mailroom11ohttp_relay14gateway_proberNtB2_6Policy6always
FNDA:9,_RNvMs2_NtNtCsk7yOOz582FI_16payjoin_mailroom11ohttp_relay14gateway_proberNtB5_13KnownGateways12has_capacity
FNDA:0,_RNvMs2_NtNtCsk7yOOz582FI_16payjoin_mailroom11ohttp_relay14gateway_proberNtB5_13KnownGateways15no_capacity_for
FNDA:9,_RNvMs2_NtNtCsk7yOOz582FI_16payjoin_mailroom11ohttp_relay14gateway_proberNtB5_13KnownGateways18allocate_in_flight
FNDA:45,_RNvMs2_NtNtCsk7yOOz582FI_16payjoin_mailroom11ohttp_relay14gateway_proberNtB5_13KnownGateways3get
FNDA:54,_RNvMs2_NtNtCsk7yOOz582FI_16payjoin_mailroom11ohttp_relay14gateway_proberNtB5_13KnownGateways5prune
FNDA:32,_RNvMs2_NtNtCsk7yOOz582FI_16payjoin_mailroom11ohttp_relay14gateway_proberNtB5_13KnownGateways6insert
FNDA:45,_RNvMs3_NtNtCsk7yOOz582FI_16payjoin_mailroom11ohttp_relay14gateway_proberNtB5_6Prober12check_opt_in
FNDA:23,_RNvMs3_NtNtCsk7yOOz582FI_16payjoin_mailroom11ohttp_relay14gateway_proberNtB5_6Prober13assert_opt_in
FNDA:23,_RNvMs3_NtNtCsk7yOOz582FI_16payjoin_mailroom11ohttp_relay14gateway_proberNtB5_6Prober15new_with_client
FNDA:0,_RNvMs3_NtNtCsk7yOOz582FI_16payjoin_mailroom11ohttp_relay14gateway_proberNtB5_6Prober15unavailable_for
FNDA:9,_RNvMs3_NtNtCsk7yOOz582FI_16payjoin_mailroom11ohttp_relay14gateway_proberNtB5_6Prober18is_explicit_opt_in
FNDA:9,_RNvMs3_NtNtCsk7yOOz582FI_16payjoin_mailroom11ohttp_relay14gateway_proberNtB5_6Prober5probe
FNDA:9,_RNvNtNtCsk7yOOz582FI_16payjoin_mailroom11ohttp_relay14gateway_prober18parse_alpn_encoded
FNDA:9,_RNvXs0_NtNtCsk7yOOz582FI_16payjoin_mailroom11ohttp_relay14gateway_proberNtB5_9HeapEntryNtNtCs2hl1TO11rA7_4core3cmp10PartialOrd11partial_cmp
FNDA:23,_RNvXs1_NtNtCsk7yOOz582FI_16payjoin_mailroom11ohttp_relay14gateway_proberNtB5_13KnownGatewaysNtNtCs2hl1TO11rA7_4core7default7Default7default
FNDA:23,_RNvXs4_NtNtCsk7yOOz582FI_16payjoin_mailroom11ohttp_relay14gateway_proberNtB5_9TTLConfigNtNtCs2hl1TO11rA7_4core7default7Default7default
FNDA:9,_RNvXs_NtNtCsk7yOOz582FI_16payjoin_mailroom11ohttp_relay14gateway_proberNtB4_9HeapEntryNtNtCs2hl1TO11rA7_4core3cmp3Ord3cmp
FNDA:0,_RINvMs3_NtNtCsk7yOOz582FI_16payjoin_mailroom11ohttp_relay14gateway_proberNtB6_6Prober14retry_after_orNtNtNtCsjTA6264Tasq_5hyper4body8incoming8IncomingEBa_
FNDA:0,_RNCINvMs3_NtNtCsk7yOOz582FI_16payjoin_mailroom11ohttp_relay14gateway_proberNtB8_6Prober14retry_after_orNtNtNtCsjTA6264Tasq_5hyper4body8incoming8IncomingE0Bc_
FNDA:0,_RNCINvMs3_NtNtCsk7yOOz582FI_16payjoin_mailroom11ohttp_relay14gateway_proberNtB8_6Prober14retry_after_orNtNtNtCsjTA6264Tasq_5hyper4body8incoming8IncomingEs0_0Bc_
FNDA:0,_RNCINvMs3_NtNtCsk7yOOz582FI_16payjoin_mailroom11ohttp_relay14gateway_proberNtB8_6Prober14retry_after_orNtNtNtCsjTA6264Tasq_5hyper4body8incoming8IncomingEs_0Bc_
FNDA:0,_RNCNCNvMs3_NtNtCsk7yOOz582FI_16payjoin_mailroom11ohttp_relay14gateway_proberNtB9_6Prober5probe00Bd_
FNDA:0,_RNCNCNvMs3_NtNtCsk7yOOz582FI_16payjoin_mailroom11ohttp_relay14gateway_proberNtB9_6Prober5probe0s_0Bd_
FNDA:0,_RNCNvMs2_NtNtCsk7yOOz582FI_16payjoin_mailroom11ohttp_relay14gateway_proberNtB7_13KnownGateways15no_capacity_for0Bb_
FNDA:45,_RNCNvMs3_NtNtCsk7yOOz582FI_16payjoin_mailroom11ohttp_relay14gateway_proberNtB7_6Prober12check_opt_in0Bb_
FNDA:23,_RNCNvMs3_NtNtCsk7yOOz582FI_16payjoin_mailroom11ohttp_relay14gateway_proberNtB7_6Prober13assert_opt_in0Bb_
FNDA:0,_RNCNvMs3_NtNtCsk7yOOz582FI_16payjoin_mailroom11ohttp_relay14gateway_proberNtB7_6Prober15unavailable_for0Bb_
FNDA:9,_RNCNvMs3_NtNtCsk7yOOz582FI_16payjoin_mailroom11ohttp_relay14gateway_proberNtB7_6Prober18is_explicit_opt_in0Bb_
FNDA:9,_RNCNvMs3_NtNtCsk7yOOz582FI_16payjoin_mailroom11ohttp_relay14gateway_proberNtB7_6Prober5probe0Bb_
FNDA:4,_RINvMs3_NtNtCs8YpBKXcegdX_16payjoin_mailroom11ohttp_relay14gateway_proberNtB6_6Prober14retry_after_orNtNtNtCsjTA6264Tasq_5hyper4body8incoming8IncomingEBa_
FNDA:3,_RNCINvMs3_NtNtCs8YpBKXcegdX_16payjoin_mailroom11ohttp_relay14gateway_proberNtB8_6Prober14retry_after_orNtNtNtCsjTA6264Tasq_5hyper4body8incoming8IncomingE0Bc_
FNDA:3,_RNCINvMs3_NtNtCs8YpBKXcegdX_16payjoin_mailroom11ohttp_relay14gateway_proberNtB8_6Prober14retry_after_orNtNtNtCsjTA6264Tasq_5hyper4body8incoming8IncomingEs0_0Bc_
FNDA:3,_RNCINvMs3_NtNtCs8YpBKXcegdX_16payjoin_mailroom11ohttp_relay14gateway_proberNtB8_6Prober14retry_after_orNtNtNtCsjTA6264Tasq_5hyper4body8incoming8IncomingEs_0Bc_
FNDA:0,_RNCNCNvMs3_NtNtCs8YpBKXcegdX_16payjoin_mailroom11ohttp_relay14gateway_proberNtB9_6Prober5probe00Bd_
FNDA:0,_RNCNCNvMs3_NtNtCs8YpBKXcegdX_16payjoin_mailroom11ohttp_relay14gateway_proberNtB9_6Prober5probe0s_0Bd_
FNDA:2,_RNCNvMs2_NtNtCs8YpBKXcegdX_16payjoin_mailroom11ohttp_relay14gateway_proberNtB7_13KnownGateways15no_capacity_for0Bb_
FNDA:15,_RNCNvMs3_NtNtCs8YpBKXcegdX_16payjoin_mailroom11ohttp_relay14gateway_proberNtB7_6Prober12check_opt_in0Bb_
FNDA:7,_RNCNvMs3_NtNtCs8YpBKXcegdX_16payjoin_mailroom11ohttp_relay14gateway_proberNtB7_6Prober13assert_opt_in0Bb_
FNDA:0,_RNCNvMs3_NtNtCs8YpBKXcegdX_16payjoin_mailroom11ohttp_relay14gateway_proberNtB7_6Prober15unavailable_for0Bb_
FNDA:5,_RNCNvMs3_NtNtCs8YpBKXcegdX_16payjoin_mailroom11ohttp_relay14gateway_proberNtB7_6Prober18is_explicit_opt_in0Bb_
FNDA:10,_RNCNvMs3_NtNtCs8YpBKXcegdX_16payjoin_mailroom11ohttp_relay14gateway_proberNtB7_6Prober5probe0Bb_
FNDA:1,_RNvNtNtNtCs8YpBKXcegdX_16payjoin_mailroom11ohttp_relay14gateway_prober5testss_13test_mock_404
FNDA:1,_RNvNtNtNtCs8YpBKXcegdX_16payjoin_mailroom11ohttp_relay14gateway_prober5testss_16test_mock_opt_in
FNDA:1,_RNvNtNtNtCs8YpBKXcegdX_16payjoin_mailroom11ohttp_relay14gateway_prober5testss_18test_assert_opt_in
FNDA:1,_RNvNtNtNtCs8YpBKXcegdX_16payjoin_mailroom11ohttp_relay14gateway_prober5testss_19test_known_gateways
FNDA:1,_RNvNtNtNtCs8YpBKXcegdX_16payjoin_mailroom11ohttp_relay14gateway_prober5testss_19test_mock_no_opt_in
FNDA:1,_RNvNtNtNtCs8YpBKXcegdX_16payjoin_mailroom11ohttp_relay14gateway_prober5testss_23test_parse_alpn_encoded
FNDA:1,_RNvNtNtNtCs8YpBKXcegdX_16payjoin_mailroom11ohttp_relay14gateway_prober5testss_25test_mock_429_retry_after
FNDA:1,_RNvNtNtNtCs8YpBKXcegdX_16payjoin_mailroom11ohttp_relay14gateway_prober5testss_25test_mock_503_retry_after
FNDA:1,_RNvNtNtNtCs8YpBKXcegdX_16payjoin_mailroom11ohttp_relay14gateway_prober5testss_27test_inflight_deduplication
FNDA:1,_RNvNtNtNtCs8YpBKXcegdX_16payjoin_mailroom11ohttp_relay14gateway_prober5testss_41test_mock_429_no_retry_after_uses_default
FNDA:7,_RNvMNtNtCs8YpBKXcegdX_16payjoin_mailroom11ohttp_relay14gateway_proberNtB2_6Policy6always
FNDA:29,_RNvMs2_NtNtCs8YpBKXcegdX_16payjoin_mailroom11ohttp_relay14gateway_proberNtB5_13KnownGateways12has_capacity
FNDA:6,_RNvMs2_NtNtCs8YpBKXcegdX_16payjoin_mailroom11ohttp_relay14gateway_proberNtB5_13KnownGateways15no_capacity_for
FNDA:12,_RNvMs2_NtNtCs8YpBKXcegdX_16payjoin_mailroom11ohttp_relay14gateway_proberNtB5_13KnownGateways18allocate_in_flight
FNDA:30,_RNvMs2_NtNtCs8YpBKXcegdX_16payjoin_mailroom11ohttp_relay14gateway_proberNtB5_13KnownGateways3get
FNDA:59,_RNvMs2_NtNtCs8YpBKXcegdX_16payjoin_mailroom11ohttp_relay14gateway_proberNtB5_13KnownGateways5prune
FNDA:22,_RNvMs2_NtNtCs8YpBKXcegdX_16payjoin_mailroom11ohttp_relay14gateway_proberNtB5_13KnownGateways6insert
FNDA:15,_RNvMs3_NtNtCs8YpBKXcegdX_16payjoin_mailroom11ohttp_relay14gateway_proberNtB5_6Prober12check_opt_in
FNDA:7,_RNvMs3_NtNtCs8YpBKXcegdX_16payjoin_mailroom11ohttp_relay14gateway_proberNtB5_6Prober13assert_opt_in
FNDA:5,_RNvMs3_NtNtCs8YpBKXcegdX_16payjoin_mailroom11ohttp_relay14gateway_proberNtB5_6Prober15new_with_client
FNDA:0,_RNvMs3_NtNtCs8YpBKXcegdX_16payjoin_mailroom11ohttp_relay14gateway_proberNtB5_6Prober15unavailable_for
FNDA:5,_RNvMs3_NtNtCs8YpBKXcegdX_16payjoin_mailroom11ohttp_relay14gateway_proberNtB5_6Prober18is_explicit_opt_in
FNDA:10,_RNvMs3_NtNtCs8YpBKXcegdX_16payjoin_mailroom11ohttp_relay14gateway_proberNtB5_6Prober5probe
FNDA:13,_RNvNtNtCs8YpBKXcegdX_16payjoin_mailroom11ohttp_relay14gateway_prober18parse_alpn_encoded
FNDA:3,_RNvXs0_NtNtCs8YpBKXcegdX_16payjoin_mailroom11ohttp_relay14gateway_proberNtB5_9HeapEntryNtNtCs2hl1TO11rA7_4core3cmp10PartialOrd11partial_cmp
FNDA:14,_RNvXs1_NtNtCs8YpBKXcegdX_16payjoin_mailroom11ohttp_relay14gateway_proberNtB5_13KnownGatewaysNtNtCs2hl1TO11rA7_4core7default7Default7default
FNDA:13,_RNvXs4_NtNtCs8YpBKXcegdX_16payjoin_mailroom11ohttp_relay14gateway_proberNtB5_9TTLConfigNtNtCs2hl1TO11rA7_4core7default7Default7default
FNDA:3,_RNvXs_NtNtCs8YpBKXcegdX_16payjoin_mailroom11ohttp_relay14gateway_proberNtB4_9HeapEntryNtNtCs2hl1TO11rA7_4core3cmp3Ord3cmp
FNDA:1,_RNCNCNvNtNtNtCs8YpBKXcegdX_16payjoin_mailroom11ohttp_relay14gateway_prober5testss_27test_inflight_deduplication00Bb_
FNDA:1,_RNCNCNvNtNtNtCs8YpBKXcegdX_16payjoin_mailroom11ohttp_relay14gateway_prober5testss_27test_inflight_deduplication0s_0Bb_
FNDA:1,_RNCNvNtNtNtCs8YpBKXcegdX_16payjoin_mailroom11ohttp_relay14gateway_prober5testss_13test_mock_4040B9_
FNDA:1,_RNCNvNtNtNtCs8YpBKXcegdX_16payjoin_mailroom11ohttp_relay14gateway_prober5testss_16test_mock_opt_in0B9_
FNDA:1,_RNCNvNtNtNtCs8YpBKXcegdX_16payjoin_mailroom11ohttp_relay14gateway_prober5testss_18test_assert_opt_in0B9_
FNDA:1,_RNCNvNtNtNtCs8YpBKXcegdX_16payjoin_mailroom11ohttp_relay14gateway_prober5testss_19test_known_gateways0B9_
FNDA:1,_RNCNvNtNtNtCs8YpBKXcegdX_16payjoin_mailroom11ohttp_relay14gateway_prober5testss_19test_mock_no_opt_in0B9_
FNDA:1,_RNCNvNtNtNtCs8YpBKXcegdX_16payjoin_mailroom11ohttp_relay14gateway_prober5testss_25test_mock_429_retry_after0B9_
FNDA:1,_RNCNvNtNtNtCs8YpBKXcegdX_16payjoin_mailroom11ohttp_relay14gateway_prober5testss_25test_mock_503_retry_after0B9_
FNDA:1,_RNCNvNtNtNtCs8YpBKXcegdX_16payjoin_mailroom11ohttp_relay14gateway_prober5testss_27test_inflight_deduplication0B9_
FNDA:1,_RNCNvNtNtNtCs8YpBKXcegdX_16payjoin_mailroom11ohttp_relay14gateway_prober5testss_41test_mock_429_no_retry_after_uses_default0B9_
FNF:51
FNH:47
DA:28,30
DA:32,30
DA:33,30
DA:34,30
DA:65,12
DA:69,12
DA:73,37
DA:74,37
DA:75,37
DA:76,37
DA:77,37
DA:78,37
DA:79,37
DA:83,75
DA:86,75
DA:88,75
DA:98,75
DA:99,75
DA:101,113
DA:102,113
DA:103,118
DA:104,86
DA:105,81
DA:106,5
DA:108,5
DA:109,5
DA:111,113
DA:112,113
DA:114,38
DA:115,38
DA:117,38
DA:118,38
DA:120,6
DA:121,6
DA:122,4
DA:123,2
DA:125,2
DA:126,2
DA:127,2
DA:128,2
DA:129,6
DA:131,21
DA:132,21
DA:133,1
DA:134,20
DA:136,20
DA:137,0
DA:138,20
DA:140,20
DA:141,20
DA:143,20
DA:144,21
DA:146,54
DA:153,54
DA:154,2
DA:155,52
DA:157,52
DA:169,52
DA:170,52
DA:172,52
DA:173,54
DA:177,28
DA:178,28
DA:179,28
DA:182,30
DA:183,30
DA:184,30
DA:185,30
DA:189,60
DA:190,20
DA:191,60
DA:192,60
DA:193,40
DA:194,1
DA:198,19
DA:199,19
DA:204,20
DA:205,1
DA:206,19
DA:207,19
DA:210,19
DA:211,19
DA:214,19
DA:216,19
DA:219,60
DA:221,14
DA:222,14
DA:223,0
DA:224,14
DA:226,14
DA:227,28
DA:228,14
DA:229,14
DA:230,14
DA:231,0
DA:234,14
DA:235,14
DA:237,1
DA:238,13
DA:240,13
DA:241,13
DA:242,13
DA:243,0
DA:245,0
DA:246,14
DA:248,4
DA:251,4
DA:252,4
DA:253,4
DA:254,4
DA:255,4
DA:256,4
DA:257,4
DA:258,4
DA:261,19
DA:263,19
DA:264,19
DA:265,19
DA:266,19
DA:267,19
DA:268,0
DA:271,19
DA:273,19
DA:278,19
DA:280,19
DA:281,19
DA:282,19
DA:284,19
DA:286,19
DA:287,14
DA:289,14
DA:290,13
DA:292,1
DA:294,5
DA:295,0
DA:296,5
DA:297,3
DA:298,2
DA:299,1
DA:300,1
DA:301,1
DA:302,0
DA:303,0
DA:305,0
DA:308,0
DA:309,0
DA:310,0
DA:312,0
DA:313,0
DA:314,0
DA:315,0
DA:316,0
DA:319,0
DA:324,19
DA:325,19
DA:327,0
DA:328,0
DA:329,0
DA:330,0
DA:333,22
DA:334,22
DA:335,22
DA:337,38
DA:338,19
DA:339,18
DA:340,18
DA:343,19
DA:344,1
DA:345,1
DA:346,1
DA:347,1
DA:348,18
DA:350,18
DA:351,22
DA:388,36
DA:396,36
DA:397,36
DA:398,36
DA:399,36
DA:400,36
DA:401,36
DA:402,36
DA:403,36
DA:404,36
DA:405,36
DA:406,36
DA:407,36
DA:427,1
DA:428,1
DA:430,1
DA:432,1
DA:433,1
DA:434,1
DA:436,1
DA:442,1
DA:443,1
DA:444,1
DA:446,0
DA:450,1
DA:451,1
DA:454,1
DA:455,1
DA:456,1
DA:459,1
DA:460,1
DA:462,0
DA:466,1
DA:467,1
DA:468,1
DA:471,1
DA:472,1
DA:473,1
DA:476,1
DA:477,1
DA:480,1
DA:481,1
DA:484,1
DA:485,1
DA:486,1
DA:487,1
DA:491,1
DA:492,1
DA:494,1
DA:495,1
DA:497,1
DA:499,1
DA:500,1
DA:504,0
DA:508,1
DA:509,1
DA:512,1
DA:513,1
DA:514,1
DA:519,1
DA:520,1
DA:521,1
DA:524,1
DA:525,1
DA:526,1
DA:528,1
DA:530,1
DA:531,1
DA:533,1
DA:534,1
DA:535,1
DA:536,1
DA:537,1
DA:538,1
DA:541,1
DA:543,1
DA:544,1
DA:546,1
DA:548,1
DA:549,1
DA:551,1
DA:552,1
DA:553,1
DA:554,1
DA:558,1
DA:559,1
DA:560,1
DA:563,1
DA:565,1
DA:566,1
DA:567,1
DA:570,1
DA:571,1
DA:572,1
DA:573,1
DA:575,1
DA:577,1
DA:578,1
DA:579,1
DA:580,1
DA:581,1
DA:582,1
DA:585,1
DA:586,1
DA:587,1
DA:588,1
DA:591,1
DA:592,1
DA:593,1
DA:596,1
DA:598,1
DA:599,1
DA:600,1
DA:602,1
DA:604,1
DA:605,1
DA:606,1
DA:611,1
DA:612,1
DA:613,1
DA:616,1
DA:617,1
DA:618,1
DA:619,1
DA:621,1
DA:623,1
DA:624,1
DA:625,1
DA:626,1
DA:627,1
DA:628,1
DA:630,1
DA:631,1
DA:632,1
DA:633,1
DA:634,1
DA:635,1
DA:636,1
DA:639,1
DA:640,1
DA:641,1
DA:642,1
DA:644,1
DA:646,1
DA:647,1
DA:648,1
DA:649,1
DA:650,1
DA:651,1
DA:653,1
DA:654,1
DA:655,1
DA:656,1
DA:659,1
DA:660,1
DA:661,1
DA:662,1
DA:664,1
DA:666,1
DA:667,1
DA:668,1
DA:670,1
DA:671,1
DA:672,1
DA:673,1
DA:675,1
DA:676,1
DA:677,1
DA:678,1
DA:679,1
DA:681,1
DA:682,1
DA:685,1
DA:686,1
DA:687,0
DA:688,0
DA:690,1
DA:691,1
DA:692,1
DA:695,1
DA:696,1
DA:698,1
DA:701,1
DA:702,1
DA:703,1
DA:704,1
DA:706,1
DA:707,0
DA:708,0
DA:711,0
DA:715,1
DA:716,1
DA:717,1
DA:718,1
DA:719,1
DA:720,1
DA:722,1
DA:724,1
DA:725,1
DA:726,1
DA:729,1
DA:730,1
DA:733,1
DA:734,1
DA:737,1
DA:738,1
DA:739,1
DA:741,1
DA:742,1
DA:744,1
DA:745,1
DA:746,1
DA:751,1
DA:752,1
DA:754,1
DA:755,1
DA:757,1
DA:758,1
DA:759,1
DA:760,1
DA:762,1
DA:763,1
DA:764,1
DA:765,1
DA:766,1
DA:768,1
DA:769,1
DA:770,1
DA:771,1
DA:772,1
DA:773,1
DA:775,1
DA:776,1
DA:777,1
DA:778,1
DA:779,1
DA:782,1
DA:785,1
DA:786,1
DA:787,1
DA:788,1
DA:789,1
DA:791,1
DA:792,1
DA:793,1
DA:794,1
DA:795,1
DA:796,1
DA:797,1
DA:798,1
DA:800,1
DA:801,1
DA:802,1
DA:805,1
DA:806,1
DA:807,1
DA:810,1
DA:811,1
DA:812,1
DA:813,1
DA:814,1
DA:815,1
DA:816,1
DA:817,1
DA:818,1
DA:819,1
DA:820,1
DA:823,1
DA:824,1
DA:825,1
DA:826,1
DA:827,1
DA:829,1
DA:830,1
DA:831,1
DA:832,1
DA:833,1
DA:834,1
DA:835,1
DA:837,1
DA:838,1
DA:839,1
DA:840,1
DA:843,1
DA:844,1
DA:845,1
DA:846,1
DA:847,1
DA:849,1
DA:850,1
DA:851,1
DA:852,1
DA:853,1
DA:854,1
DA:856,1
DA:857,1
DA:858,1
DA:859,1
DA:864,1
DA:865,1
DA:866,1
BRF:0
BRH:0
LF:507
LH:473
end_of_record
SF:/Users/bene/bitcoin/rust-payjoin/payjoin-mailroom/src/ohttp_relay/gateway_uri.rs
FN:38,_RNvMNtNtCsewJmtgcsYNl_16payjoin_mailroom11ohttp_relay11gateway_uriNtB2_10GatewayUri11from_static
FN:55,_RNvMNtNtCsewJmtgcsYNl_16payjoin_mailroom11ohttp_relay11gateway_uriNtB2_10GatewayUri12rfc_9540_url
FN:69,_RNvMNtNtCsewJmtgcsYNl_16payjoin_mailroom11ohttp_relay11gateway_uriNtB2_10GatewayUri14to_socket_addr
FN:44,_RNvMNtNtCsewJmtgcsYNl_16payjoin_mailroom11ohttp_relay11gateway_uriNtB2_10GatewayUri14to_uri_builder
FN:73,_RNvMNtNtCsewJmtgcsYNl_16payjoin_mailroom11ohttp_relay11gateway_uriNtB2_10GatewayUri15to_socket_addrs
FN:19,_RNvMNtNtCsewJmtgcsYNl_16payjoin_mailroom11ohttp_relay11gateway_uriNtB2_10GatewayUri3new
FN:48,_RNvMNtNtCsewJmtgcsYNl_16payjoin_mailroom11ohttp_relay11gateway_uriNtB2_10GatewayUri6to_uri
FN:62,_RNvMNtNtCsewJmtgcsYNl_16payjoin_mailroom11ohttp_relay11gateway_uriNtB2_10GatewayUri9probe_url
FN:87,_RNvXs0_NtNtCsewJmtgcsYNl_16payjoin_mailroom11ohttp_relay11gateway_uriNtB5_10GatewayUriINtNtCs2hl1TO11rA7_4core7convert7TryFromNtNtCs8E9Z5UEjpQ7_4http3uri3UriE8try_from
FN:104,_RNvXs1_NtNtCsewJmtgcsYNl_16payjoin_mailroom11ohttp_relay11gateway_uriNtB5_10GatewayUriINtNtCs2hl1TO11rA7_4core7convert4FromNtNtNtCs8E9Z5UEjpQ7_4http3uri9authority9AuthorityE4from
FN:112,_RNvXs2_NtNtCsewJmtgcsYNl_16payjoin_mailroom11ohttp_relay11gateway_uriNtB5_10GatewayUriNtNtNtCs2hl1TO11rA7_4core3str6traits7FromStr8from_str
FN:81,_RNvXs_NtNtCsewJmtgcsYNl_16payjoin_mailroom11ohttp_relay11gateway_uriNtNtCs8E9Z5UEjpQ7_4http3uri3UriINtNtCs2hl1TO11rA7_4core7convert4FromNtB4_10GatewayUriE4from
FN:69,_RNCNvMNtNtCsewJmtgcsYNl_16payjoin_mailroom11ohttp_relay11gateway_uriNtB4_10GatewayUri14to_socket_addr0B8_
FN:75,_RNCNvMNtNtCsewJmtgcsYNl_16payjoin_mailroom11ohttp_relay11gateway_uriNtB4_10GatewayUri15to_socket_addrs0B8_
FN:81,_RNvXs_NtNtCsk7yOOz582FI_16payjoin_mailroom11ohttp_relay11gateway_uriNtNtCs8E9Z5UEjpQ7_4http3uri3UriINtNtCs2hl1TO11rA7_4core7convert4FromNtB4_10GatewayUriE4from
FN:69,_RNCNvMNtNtCsk7yOOz582FI_16payjoin_mailroom11ohttp_relay11gateway_uriNtB4_10GatewayUri14to_socket_addr0B8_
FN:75,_RNCNvMNtNtCsk7yOOz582FI_16payjoin_mailroom11ohttp_relay11gateway_uriNtB4_10GatewayUri15to_socket_addrs0B8_
FN:38,_RNvMNtNtCsk7yOOz582FI_16payjoin_mailroom11ohttp_relay11gateway_uriNtB2_10GatewayUri11from_static
FN:55,_RNvMNtNtCsk7yOOz582FI_16payjoin_mailroom11ohttp_relay11gateway_uriNtB2_10GatewayUri12rfc_9540_url
FN:69,_RNvMNtNtCsk7yOOz582FI_16payjoin_mailroom11ohttp_relay11gateway_uriNtB2_10GatewayUri14to_socket_addr
FN:44,_RNvMNtNtCsk7yOOz582FI_16payjoin_mailroom11ohttp_relay11gateway_uriNtB2_10GatewayUri14to_uri_builder
FN:73,_RNvMNtNtCsk7yOOz582FI_16payjoin_mailroom11ohttp_relay11gateway_uriNtB2_10GatewayUri15to_socket_addrs
FN:19,_RNvMNtNtCsk7yOOz582FI_16payjoin_mailroom11ohttp_relay11gateway_uriNtB2_10GatewayUri3new
FN:48,_RNvMNtNtCsk7yOOz582FI_16payjoin_mailroom11ohttp_relay11gateway_uriNtB2_10GatewayUri6to_uri
FN:62,_RNvMNtNtCsk7yOOz582FI_16payjoin_mailroom11ohttp_relay11gateway_uriNtB2_10GatewayUri9probe_url
FN:87,_RNvXs0_NtNtCsk7yOOz582FI_16payjoin_mailroom11ohttp_relay11gateway_uriNtB5_10GatewayUriINtNtCs2hl1TO11rA7_4core7convert7TryFromNtNtCs8E9Z5UEjpQ7_4http3uri3UriE8try_from
FN:104,_RNvXs1_NtNtCsk7yOOz582FI_16payjoin_mailroom11ohttp_relay11gateway_uriNtB5_10GatewayUriINtNtCs2hl1TO11rA7_4core7convert4FromNtNtNtCs8E9Z5UEjpQ7_4http3uri9authority9AuthorityE4from
FN:112,_RNvXs2_NtNtCsk7yOOz582FI_16payjoin_mailroom11ohttp_relay11gateway_uriNtB5_10GatewayUriNtNtNtCs2hl1TO11rA7_4core3str6traits7FromStr8from_str
FN:81,_RNvXs_NtNtCs8YpBKXcegdX_16payjoin_mailroom11ohttp_relay11gateway_uriNtNtCs8E9Z5UEjpQ7_4http3uri3UriINtNtCs2hl1TO11rA7_4core7convert4FromNtB4_10GatewayUriE4from
FN:69,_RNCNvMNtNtCs8YpBKXcegdX_16payjoin_mailroom11ohttp_relay11gateway_uriNtB4_10GatewayUri14to_socket_addr0B8_
FN:75,_RNCNvMNtNtCs8YpBKXcegdX_16payjoin_mailroom11ohttp_relay11gateway_uriNtB4_10GatewayUri15to_socket_addrs0B8_
FN:38,_RNvMNtNtCs8YpBKXcegdX_16payjoin_mailroom11ohttp_relay11gateway_uriNtB2_10GatewayUri11from_static
FN:55,_RNvMNtNtCs8YpBKXcegdX_16payjoin_mailroom11ohttp_relay11gateway_uriNtB2_10GatewayUri12rfc_9540_url
FN:69,_RNvMNtNtCs8YpBKXcegdX_16payjoin_mailroom11ohttp_relay11gateway_uriNtB2_10GatewayUri14to_socket_addr
FN:44,_RNvMNtNtCs8YpBKXcegdX_16payjoin_mailroom11ohttp_relay11gateway_uriNtB2_10GatewayUri14to_uri_builder
FN:73,_RNvMNtNtCs8YpBKXcegdX_16payjoin_mailroom11ohttp_relay11gateway_uriNtB2_10GatewayUri15to_socket_addrs
FN:19,_RNvMNtNtCs8YpBKXcegdX_16payjoin_mailroom11ohttp_relay11gateway_uriNtB2_10GatewayUri3new
FN:48,_RNvMNtNtCs8YpBKXcegdX_16payjoin_mailroom11ohttp_relay11gateway_uriNtB2_10GatewayUri6to_uri
FN:62,_RNvMNtNtCs8YpBKXcegdX_16payjoin_mailroom11ohttp_relay11gateway_uriNtB2_10GatewayUri9probe_url
FN:87,_RNvXs0_NtNtCs8YpBKXcegdX_16payjoin_mailroom11ohttp_relay11gateway_uriNtB5_10GatewayUriINtNtCs2hl1TO11rA7_4core7convert7TryFromNtNtCs8E9Z5UEjpQ7_4http3uri3UriE8try_from
FN:104,_RNvXs1_NtNtCs8YpBKXcegdX_16payjoin_mailroom11ohttp_relay11gateway_uriNtB5_10GatewayUriINtNtCs2hl1TO11rA7_4core7convert4FromNtNtNtCs8E9Z5UEjpQ7_4http3uri9authority9AuthorityE4from
FN:112,_RNvXs2_NtNtCs8YpBKXcegdX_16payjoin_mailroom11ohttp_relay11gateway_uriNtB5_10GatewayUriNtNtNtCs2hl1TO11rA7_4core3str6traits7FromStr8from_str
FN:120,_RNvNtNtNtCs8YpBKXcegdX_16payjoin_mailroom11ohttp_relay11gateway_uri4tests_10conversion
FN:141,_RNvNtNtNtCs8YpBKXcegdX_16payjoin_mailroom11ohttp_relay11gateway_uri4tests_12default_port
FN:164,_RNvNtNtNtCs8YpBKXcegdX_16payjoin_mailroom11ohttp_relay11gateway_uri4tests_12invalid_uris
FNDA:0,_RNvMNtNtCsewJmtgcsYNl_16payjoin_mailroom11ohttp_relay11gateway_uriNtB2_10GatewayUri11from_static
FNDA:0,_RNvMNtNtCsewJmtgcsYNl_16payjoin_mailroom11ohttp_relay11gateway_uriNtB2_10GatewayUri12rfc_9540_url
FNDA:0,_RNvMNtNtCsewJmtgcsYNl_16payjoin_mailroom11ohttp_relay11gateway_uriNtB2_10GatewayUri14to_socket_addr
FNDA:0,_RNvMNtNtCsewJmtgcsYNl_16payjoin_mailroom11ohttp_relay11gateway_uriNtB2_10GatewayUri14to_uri_builder
FNDA:0,_RNvMNtNtCsewJmtgcsYNl_16payjoin_mailroom11ohttp_relay11gateway_uriNtB2_10GatewayUri15to_socket_addrs
FNDA:0,_RNvMNtNtCsewJmtgcsYNl_16payjoin_mailroom11ohttp_relay11gateway_uriNtB2_10GatewayUri3new
FNDA:0,_RNvMNtNtCsewJmtgcsYNl_16payjoin_mailroom11ohttp_relay11gateway_uriNtB2_10GatewayUri6to_uri
FNDA:0,_RNvMNtNtCsewJmtgcsYNl_16payjoin_mailroom11ohttp_relay11gateway_uriNtB2_10GatewayUri9probe_url
FNDA:0,_RNvXs0_NtNtCsewJmtgcsYNl_16payjoin_mailroom11ohttp_relay11gateway_uriNtB5_10GatewayUriINtNtCs2hl1TO11rA7_4core7convert7TryFromNtNtCs8E9Z5UEjpQ7_4http3uri3UriE8try_from
FNDA:0,_RNvXs1_NtNtCsewJmtgcsYNl_16payjoin_mailroom11ohttp_relay11gateway_uriNtB5_10GatewayUriINtNtCs2hl1TO11rA7_4core7convert4FromNtNtNtCs8E9Z5UEjpQ7_4http3uri9authority9AuthorityE4from
FNDA:0,_RNvXs2_NtNtCsewJmtgcsYNl_16payjoin_mailroom11ohttp_relay11gateway_uriNtB5_10GatewayUriNtNtNtCs2hl1TO11rA7_4core3str6traits7FromStr8from_str
FNDA:0,_RNvXs_NtNtCsewJmtgcsYNl_16payjoin_mailroom11ohttp_relay11gateway_uriNtNtCs8E9Z5UEjpQ7_4http3uri3UriINtNtCs2hl1TO11rA7_4core7convert4FromNtB4_10GatewayUriE4from
FNDA:0,_RNCNvMNtNtCsewJmtgcsYNl_16payjoin_mailroom11ohttp_relay11gateway_uriNtB4_10GatewayUri14to_socket_addr0B8_
FNDA:0,_RNCNvMNtNtCsewJmtgcsYNl_16payjoin_mailroom11ohttp_relay11gateway_uriNtB4_10GatewayUri15to_socket_addrs0B8_
FNDA:0,_RNvXs_NtNtCsk7yOOz582FI_16payjoin_mailroom11ohttp_relay11gateway_uriNtNtCs8E9Z5UEjpQ7_4http3uri3UriINtNtCs2hl1TO11rA7_4core7convert4FromNtB4_10GatewayUriE4from
FNDA:12,_RNCNvMNtNtCsk7yOOz582FI_16payjoin_mailroom11ohttp_relay11gateway_uriNtB4_10GatewayUri14to_socket_addr0B8_
FNDA:12,_RNCNvMNtNtCsk7yOOz582FI_16payjoin_mailroom11ohttp_relay11gateway_uriNtB4_10GatewayUri15to_socket_addrs0B8_
FNDA:0,_RNvMNtNtCsk7yOOz582FI_16payjoin_mailroom11ohttp_relay11gateway_uriNtB2_10GatewayUri11from_static
FNDA:33,_RNvMNtNtCsk7yOOz582FI_16payjoin_mailroom11ohttp_relay11gateway_uriNtB2_10GatewayUri12rfc_9540_url
FNDA:12,_RNvMNtNtCsk7yOOz582FI_16payjoin_mailroom11ohttp_relay11gateway_uriNtB2_10GatewayUri14to_socket_addr
FNDA:42,_RNvMNtNtCsk7yOOz582FI_16payjoin_mailroom11ohttp_relay11gateway_uriNtB2_10GatewayUri14to_uri_builder
FNDA:12,_RNvMNtNtCsk7yOOz582FI_16payjoin_mailroom11ohttp_relay11gateway_uriNtB2_10GatewayUri15to_socket_addrs
FNDA:68,_RNvMNtNtCsk7yOOz582FI_16payjoin_mailroom11ohttp_relay11gateway_uriNtB2_10GatewayUri3new
FNDA:0,_RNvMNtNtCsk7yOOz582FI_16payjoin_mailroom11ohttp_relay11gateway_uriNtB2_10GatewayUri6to_uri
FNDA:9,_RNvMNtNtCsk7yOOz582FI_16payjoin_mailroom11ohttp_relay11gateway_uriNtB2_10GatewayUri9probe_url
FNDA:56,_RNvXs0_NtNtCsk7yOOz582FI_16payjoin_mailroom11ohttp_relay11gateway_uriNtB5_10GatewayUriINtNtCs2hl1TO11rA7_4core7convert7TryFromNtNtCs8E9Z5UEjpQ7_4http3uri3UriE8try_from
FNDA:12,_RNvXs1_NtNtCsk7yOOz582FI_16payjoin_mailroom11ohttp_relay11gateway_uriNtB5_10GatewayUriINtNtCs2hl1TO11rA7_4core7convert4FromNtNtNtCs8E9Z5UEjpQ7_4http3uri9authority9AuthorityE4from
FNDA:56,_RNvXs2_NtNtCsk7yOOz582FI_16payjoin_mailroom11ohttp_relay11gateway_uriNtB5_10GatewayUriNtNtNtCs2hl1TO11rA7_4core3str6traits7FromStr8from_str
FNDA:1,_RNvXs_NtNtCs8YpBKXcegdX_16payjoin_mailroom11ohttp_relay11gateway_uriNtNtCs8E9Z5UEjpQ7_4http3uri3UriINtNtCs2hl1TO11rA7_4core7convert4FromNtB4_10GatewayUriE4from
FNDA:0,_RNCNvMNtNtCs8YpBKXcegdX_16payjoin_mailroom11ohttp_relay11gateway_uriNtB4_10GatewayUri14to_socket_addr0B8_
FNDA:0,_RNCNvMNtNtCs8YpBKXcegdX_16payjoin_mailroom11ohttp_relay11gateway_uriNtB4_10GatewayUri15to_socket_addrs0B8_
FNDA:6,_RNvMNtNtCs8YpBKXcegdX_16payjoin_mailroom11ohttp_relay11gateway_uriNtB2_10GatewayUri11from_static
FNDA:3,_RNvMNtNtCs8YpBKXcegdX_16payjoin_mailroom11ohttp_relay11gateway_uriNtB2_10GatewayUri12rfc_9540_url
FNDA:0,_RNvMNtNtCs8YpBKXcegdX_16payjoin_mailroom11ohttp_relay11gateway_uriNtB2_10GatewayUri14to_socket_addr
FNDA:15,_RNvMNtNtCs8YpBKXcegdX_16payjoin_mailroom11ohttp_relay11gateway_uriNtB2_10GatewayUri14to_uri_builder
FNDA:0,_RNvMNtNtCs8YpBKXcegdX_16payjoin_mailroom11ohttp_relay11gateway_uriNtB2_10GatewayUri15to_socket_addrs
FNDA:24,_RNvMNtNtCs8YpBKXcegdX_16payjoin_mailroom11ohttp_relay11gateway_uriNtB2_10GatewayUri3new
FNDA:2,_RNvMNtNtCs8YpBKXcegdX_16payjoin_mailroom11ohttp_relay11gateway_uriNtB2_10GatewayUri6to_uri
FNDA:10,_RNvMNtNtCs8YpBKXcegdX_16payjoin_mailroom11ohttp_relay11gateway_uriNtB2_10GatewayUri9probe_url
FNDA:27,_RNvXs0_NtNtCs8YpBKXcegdX_16payjoin_mailroom11ohttp_relay11gateway_uriNtB5_10GatewayUriINtNtCs2hl1TO11rA7_4core7convert7TryFromNtNtCs8E9Z5UEjpQ7_4http3uri3UriE8try_from
FNDA:0,_RNvXs1_NtNtCs8YpBKXcegdX_16payjoin_mailroom11ohttp_relay11gateway_uriNtB5_10GatewayUriINtNtCs2hl1TO11rA7_4core7convert4FromNtNtNtCs8E9Z5UEjpQ7_4http3uri9authority9AuthorityE4from
FNDA:19,_RNvXs2_NtNtCs8YpBKXcegdX_16payjoin_mailroom11ohttp_relay11gateway_uriNtB5_10GatewayUriNtNtNtCs2hl1TO11rA7_4core3str6traits7FromStr8from_str
FNDA:1,_RNvNtNtNtCs8YpBKXcegdX_16payjoin_mailroom11ohttp_relay11gateway_uri4tests_10conversion
FNDA:1,_RNvNtNtNtCs8YpBKXcegdX_16payjoin_mailroom11ohttp_relay11gateway_uri4tests_12default_port
FNDA:1,_RNvNtNtNtCs8YpBKXcegdX_16payjoin_mailroom11ohttp_relay11gateway_uri4tests_12invalid_uris
FNF:17
FNH:17
DA:19,92
DA:20,92
DA:21,13
DA:22,79
DA:23,78
DA:25,1
DA:29,91
DA:30,91
DA:31,30
DA:32,30
DA:33,61
DA:35,91
DA:36,92
DA:38,6
DA:39,6
DA:40,6
DA:41,6
DA:42,6
DA:44,57
DA:45,57
DA:46,57
DA:48,2
DA:49,2
DA:50,2
DA:51,2
DA:52,2
DA:53,2
DA:55,36
DA:56,36
DA:57,36
DA:58,36
DA:59,36
DA:60,36
DA:62,19
DA:63,19
DA:64,19
DA:65,19
DA:66,19
DA:67,19
DA:69,12
DA:70,12
DA:71,12
DA:73,12
DA:74,12
DA:75,12
DA:76,12
DA:77,12
DA:81,1
DA:87,83
DA:88,83
DA:90,83
DA:91,82
DA:92,2
DA:93,80
DA:94,1
DA:96,81
DA:97,80
DA:99,80
DA:100,83
DA:104,12
DA:105,12
DA:106,12
DA:107,12
DA:112,75
DA:120,1
DA:121,1
DA:122,1
DA:123,1
DA:124,1
DA:126,1
DA:127,1
DA:128,1
DA:130,1
DA:131,1
DA:133,1
DA:134,1
DA:135,1
DA:138,1
DA:141,1
DA:142,1
DA:143,1
DA:144,1
DA:149,1
DA:150,1
DA:151,1
DA:156,1
DA:157,1
DA:159,1
DA:160,1
DA:161,1
DA:164,1
DA:165,1
DA:167,1
DA:169,1
DA:170,1
DA:174,1
DA:175,1
BRF:0
BRH:0
LF:99
LH:99
end_of_record
SF:/Users/bene/bitcoin/rust-payjoin/payjoin-mailroom/src/ohttp_relay/mod.rs
FN:52,_RINvMNtCsewJmtgcsYNl_16payjoin_mailroom11ohttp_relayNtB3_11RelayConfig3newNtB3_10HttpClientEB5_
FN:52,_RINvMNtCsewJmtgcsYNl_16payjoin_mailroom11ohttp_relayNtB3_11RelayConfig3newNtNtNtCsaxpMXzwCb3i_6rustls6webpki7anchors13RootCertStoreEB5_
FN:268,_RINvNtCsewJmtgcsYNl_16payjoin_mailroom11ohttp_relay16into_forward_reqNtNtCsbhYi8O17gzz_9axum_core4body4BodyEB4_
FN:151,_RINvNtCsewJmtgcsYNl_16payjoin_mailroom11ohttp_relay17serve_ohttp_relayNtNtCsbhYi8O17gzz_9axum_core4body4BodyEB4_
FN:248,_RINvNtCsewJmtgcsYNl_16payjoin_mailroom11ohttp_relay18handle_ohttp_relayNtNtCsbhYi8O17gzz_9axum_core4body4BodyEB4_
FN:316,_RINvNtCsewJmtgcsYNl_16payjoin_mailroom11ohttp_relay4fullNtNtCs3JibHiv1CSv_5alloc6string6StringEB4_
FN:316,_RINvNtCsewJmtgcsYNl_16payjoin_mailroom11ohttp_relay4fullNtNtCsaaYEsrDHBtF_5bytes5bytes5BytesEB4_
FN:276,_RNCINvNtCsewJmtgcsYNl_16payjoin_mailroom11ohttp_relay16into_forward_reqNtNtCsbhYi8O17gzz_9axum_core4body4BodyE0B6_
FN:158,_RNCINvNtCsewJmtgcsYNl_16payjoin_mailroom11ohttp_relay17serve_ohttp_relayNtNtCsbhYi8O17gzz_9axum_core4body4BodyE0B6_
FN:256,_RNCINvNtCsewJmtgcsYNl_16payjoin_mailroom11ohttp_relay18handle_ohttp_relayNtNtCsbhYi8O17gzz_9axum_core4body4BodyE0B6_
FN:297,_RNCNCNCINvNtCsewJmtgcsYNl_16payjoin_mailroom11ohttp_relay16into_forward_reqNtNtCsbhYi8O17gzz_9axum_core4body4BodyE000Ba_
FN:301,_RNCNCNCINvNtCsewJmtgcsYNl_16payjoin_mailroom11ohttp_relay16into_forward_reqNtNtCsbhYi8O17gzz_9axum_core4body4BodyE00s_0Ba_
FN:180,_RNCNCNCINvNtCsewJmtgcsYNl_16payjoin_mailroom11ohttp_relay17serve_ohttp_relayNtNtCsbhYi8O17gzz_9axum_core4body4BodyE000Ba_
FN:259,_RNCNCNCINvNtCsewJmtgcsYNl_16payjoin_mailroom11ohttp_relay18handle_ohttp_relayNtNtCsbhYi8O17gzz_9axum_core4body4BodyE000Ba_
FN:87,_RNCNCNvMs_NtCsewJmtgcsYNl_16payjoin_mailroom11ohttp_relayNtB8_7Service14new_with_roots00Ba_
FN:197,_RNCNCNvNtCsewJmtgcsYNl_16payjoin_mailroom11ohttp_relay17parse_gateway_uri00B7_
FN:85,_RNCNvMs_NtCsewJmtgcsYNl_16payjoin_mailroom11ohttp_relayNtB6_7Service14new_with_roots0B8_
FN:69,_RNCNvMs_NtCsewJmtgcsYNl_16payjoin_mailroom11ohttp_relayNtB6_7Service3new0B8_
FN:245,_RNCNvNtCsewJmtgcsYNl_16payjoin_mailroom11ohttp_relay12health_check0B5_
FN:308,_RNCNvNtCsewJmtgcsYNl_16payjoin_mailroom11ohttp_relay15forward_request0B5_
FN:190,_RNCNvNtCsewJmtgcsYNl_16payjoin_mailroom11ohttp_relay17parse_gateway_uri0B5_
FN:110,_RNCNvXs0_NtCsewJmtgcsYNl_16payjoin_mailroom11ohttp_relayNtB7_7ServiceINtCspbhVovv5hz_13tower_service7ServiceINtNtCs8E9Z5UEjpQ7_4http7request7RequestNtNtCsbhYi8O17gzz_9axum_core4body4BodyEE4call0B9_
FN:108,_RNvXs0_NtCsewJmtgcsYNl_16payjoin_mailroom11ohttp_relayNtB5_7ServiceINtCspbhVovv5hz_13tower_service7ServiceINtNtCs8E9Z5UEjpQ7_4http7request7RequestNtNtCsbhYi8O17gzz_9axum_core4body4BodyEE4callB7_
FN:104,_RNvXININtCsewJmtgcsYNl_16payjoin_mailroom11ohttp_relays0_0pENtB5_7ServiceINtCspbhVovv5hz_13tower_service7ServiceINtNtCs8E9Z5UEjpQ7_4http7request7RequestpEE10poll_readyB7_
FN:48,_RNvMNtCsewJmtgcsYNl_16payjoin_mailroom11ohttp_relayNtB2_11RelayConfig23new_with_default_client
FN:81,_RNvMs_NtCsewJmtgcsYNl_16payjoin_mailroom11ohttp_relayNtB4_7Service14new_with_roots
FN:69,_RNvMs_NtCsewJmtgcsYNl_16payjoin_mailroom11ohttp_relayNtB4_7Service3new
FN:245,_RNvNtCsewJmtgcsYNl_16payjoin_mailroom11ohttp_relay12health_check
FN:305,_RNvNtCsewJmtgcsYNl_16payjoin_mailroom11ohttp_relay15forward_request
FN:230,_RNvNtCsewJmtgcsYNl_16payjoin_mailroom11ohttp_relay16handle_preflight
FN:185,_RNvNtCsewJmtgcsYNl_16payjoin_mailroom11ohttp_relay17parse_gateway_uri
FN:216,_RNvNtCsewJmtgcsYNl_16payjoin_mailroom11ohttp_relay27parse_gateway_uri_from_path
FN:312,_RNvNtCsewJmtgcsYNl_16payjoin_mailroom11ohttp_relay5empty
FN:124,_RNvXs1_NtCsewJmtgcsYNl_16payjoin_mailroom11ohttp_relayNtB5_10HttpClientNtNtNtCs2hl1TO11rA7_4core3ops5deref5Deref5deref
FN:128,_RNvXs2_NtCsewJmtgcsYNl_16payjoin_mailroom11ohttp_relayNtB5_10HttpClientINtNtCs2hl1TO11rA7_4core7convert4FromINtNtNtCseLQVwuyxBhc_12hyper_rustls9connector7builder16ConnectorBuilderNtB1L_12WantsSchemesEE4from
FN:135,_RNvXs3_NtCsewJmtgcsYNl_16payjoin_mailroom11ohttp_relayNtB5_10HttpClientNtNtCs2hl1TO11rA7_4core7default7Default7default
FN:139,_RNvXs4_NtCsewJmtgcsYNl_16payjoin_mailroom11ohttp_relayNtB5_10HttpClientINtNtCs2hl1TO11rA7_4core7convert4FromNtNtNtCsaxpMXzwCb3i_6rustls6webpki7anchors13RootCertStoreE4from
FN:104,_RNvXININtCsk7yOOz582FI_16payjoin_mailroom11ohttp_relays0_0pENtB5_7ServiceINtCspbhVovv5hz_13tower_service7ServiceINtNtCs8E9Z5UEjpQ7_4http7request7RequestpEE10poll_readyB7_
FN:52,_RINvMNtCsk7yOOz582FI_16payjoin_mailroom11ohttp_relayNtB3_11RelayConfig3newNtB3_10HttpClientEB5_
FN:52,_RINvMNtCsk7yOOz582FI_16payjoin_mailroom11ohttp_relayNtB3_11RelayConfig3newNtNtNtCs1MMwEdPrRAm_6rustls6webpki7anchors13RootCertStoreEB5_
FN:268,_RINvNtCsk7yOOz582FI_16payjoin_mailroom11ohttp_relay16into_forward_reqNtNtCsbGkwFBM7K7x_9axum_core4body4BodyEB4_
FN:151,_RINvNtCsk7yOOz582FI_16payjoin_mailroom11ohttp_relay17serve_ohttp_relayNtNtCsbGkwFBM7K7x_9axum_core4body4BodyEB4_
FN:248,_RINvNtCsk7yOOz582FI_16payjoin_mailroom11ohttp_relay18handle_ohttp_relayNtNtCsbGkwFBM7K7x_9axum_core4body4BodyEB4_
FN:316,_RINvNtCsk7yOOz582FI_16payjoin_mailroom11ohttp_relay4fullNtNtCs3JibHiv1CSv_5alloc6string6StringEB4_
FN:316,_RINvNtCsk7yOOz582FI_16payjoin_mailroom11ohttp_relay4fullNtNtCsaaYEsrDHBtF_5bytes5bytes5BytesEB4_
FN:276,_RNCINvNtCsk7yOOz582FI_16payjoin_mailroom11ohttp_relay16into_forward_reqNtNtCsbGkwFBM7K7x_9axum_core4body4BodyE0B6_
FN:158,_RNCINvNtCsk7yOOz582FI_16payjoin_mailroom11ohttp_relay17serve_ohttp_relayNtNtCsbGkwFBM7K7x_9axum_core4body4BodyE0B6_
FN:256,_RNCINvNtCsk7yOOz582FI_16payjoin_mailroom11ohttp_relay18handle_ohttp_relayNtNtCsbGkwFBM7K7x_9axum_core4body4BodyE0B6_
FN:297,_RNCNCNCINvNtCsk7yOOz582FI_16payjoin_mailroom11ohttp_relay16into_forward_reqNtNtCsbGkwFBM7K7x_9axum_core4body4BodyE000Ba_
FN:301,_RNCNCNCINvNtCsk7yOOz582FI_16payjoin_mailroom11ohttp_relay16into_forward_reqNtNtCsbGkwFBM7K7x_9axum_core4body4BodyE00s_0Ba_
FN:180,_RNCNCNCINvNtCsk7yOOz582FI_16payjoin_mailroom11ohttp_relay17serve_ohttp_relayNtNtCsbGkwFBM7K7x_9axum_core4body4BodyE000Ba_
FN:259,_RNCNCNCINvNtCsk7yOOz582FI_16payjoin_mailroom11ohttp_relay18handle_ohttp_relayNtNtCsbGkwFBM7K7x_9axum_core4body4BodyE000Ba_
FN:87,_RNCNCNvMs_NtCsk7yOOz582FI_16payjoin_mailroom11ohttp_relayNtB8_7Service14new_with_roots00Ba_
FN:197,_RNCNCNvNtCsk7yOOz582FI_16payjoin_mailroom11ohttp_relay17parse_gateway_uri00B7_
FN:85,_RNCNvMs_NtCsk7yOOz582FI_16payjoin_mailroom11ohttp_relayNtB6_7Service14new_with_roots0B8_
FN:69,_RNCNvMs_NtCsk7yOOz582FI_16payjoin_mailroom11ohttp_relayNtB6_7Service3new0B8_
